 xerces-c_2_5_0

 Timestamp is 40313cea (Mon Feb 16 16:58:02 2004)

 Preferred load address is 12000000

 Start         Length     Name                   Class
 0001:00000000 0012b870H .text                   CODE
 0001:0012b870 00014c32H .text$x                 CODE
 0002:00000000 0000015cH .idata$5                DATA
 0002:00000160 000338f4H .rdata                  DATA
 0002:00033a58 00000044H .rdata$r                DATA
 0002:00033aa0 00019ff0H .xdata$x                DATA
 0002:0004da90 0000003cH .idata$2                DATA
 0002:0004dacc 00000014H .idata$3                DATA
 0002:0004dae0 0000015cH .idata$4                DATA
 0002:0004dc3c 00000502H .idata$6                DATA
 0002:0004e140 0008a1e4H .edata                  DATA
 0003:00000000 00000004H .CRT$XCA                DATA
 0003:00000004 00000078H .CRT$XCU                DATA
 0003:0000007c 00000004H .CRT$XCZ                DATA
 0003:00000080 00000004H .CRT$XIA                DATA
 0003:00000084 00000004H .CRT$XIZ                DATA
 0003:00000090 00024fc0H .data                   DATA
 0003:00025050 000006fcH .bss                    DATA
 0004:00000000 00000a90H .rsrc$01                DATA
 0004:00000a90 00015840H .rsrc$02                DATA

  Address         Publics by Value              Rva+Base     Lib:Object

 0001:00000000       ??0MemoryManager@xercesc_2_5@@IAE@XZ 12001000 f i Win32PlatformUtils.obj
 0001:00000010       ??_EMemoryManager@xercesc_2_5@@UAEPAXI@Z 12001010 f i Win32PlatformUtils.obj
 0001:00000070       ??0DOMError@xercesc_2_5@@IAE@XZ 12001070 f i Win32PlatformUtils.obj
 0001:00000080       ??1DOMError@xercesc_2_5@@UAE@XZ 12001080 f i Win32PlatformUtils.obj
 0001:00000090       ??_EDOMError@xercesc_2_5@@UAEPAXI@Z 12001090 f i Win32PlatformUtils.obj
 0001:000000f0       ??1XMLErrorReporter@xercesc_2_5@@UAE@XZ 120010f0 f i Win32PlatformUtils.obj
 0001:00000100       ??0XMLErrorReporter@xercesc_2_5@@IAE@XZ 12001100 f i Win32PlatformUtils.obj
 0001:00000110       ??_EXMLErrorReporter@xercesc_2_5@@UAEPAXI@Z 12001110 f i Win32PlatformUtils.obj
 0001:00000170       ?getSrcFile@XMLException@xercesc_2_5@@QBEPBDXZ 12001170 f i Win32PlatformUtils.obj
 0001:00000180       ?getErrorType@XMLException@xercesc_2_5@@QBE?AW4ErrTypes@XMLErrorReporter@2@XZ 12001180 f i Win32PlatformUtils.obj
 0001:000001c0       ??0PanicHandler@xercesc_2_5@@IAE@XZ 120011c0 f i Win32PlatformUtils.obj
 0001:000001d0       ??_EPanicHandler@xercesc_2_5@@UAEPAXI@Z 120011d0 f i Win32PlatformUtils.obj
 0001:00000230       ??0XMLPlatformUtilsException@xercesc_2_5@@QAE@QBDIW4Codes@XMLExcepts@1@PAVMemoryManager@1@@Z 12001230 f i Win32PlatformUtils.obj
 0001:000002a0       ??0XMLPlatformUtilsException@xercesc_2_5@@QAE@ABV01@@Z 120012a0 f i Win32PlatformUtils.obj
 0001:000002c0       ??0XMLPlatformUtilsException@xercesc_2_5@@QAE@QBDIW4Codes@XMLExcepts@1@QBG222PAVMemoryManager@1@@Z 120012c0 f i Win32PlatformUtils.obj
 0001:00000340       ??0XMLPlatformUtilsException@xercesc_2_5@@QAE@QBDIW4Codes@XMLExcepts@1@0000PAVMemoryManager@1@@Z 12001340 f i Win32PlatformUtils.obj
 0001:000003c0       ??1XMLPlatformUtilsException@xercesc_2_5@@UAE@XZ 120013c0 f i Win32PlatformUtils.obj
 0001:000003d0       ?duplicate@XMLPlatformUtilsException@xercesc_2_5@@UBEPAVXMLException@2@XZ 120013d0 f i Win32PlatformUtils.obj
 0001:00000430       ?getType@XMLPlatformUtilsException@xercesc_2_5@@UBEPBGXZ 12001430 f i Win32PlatformUtils.obj
 0001:00000440       ??_EXMLPlatformUtilsException@xercesc_2_5@@UAEPAXI@Z 12001440 f i Win32PlatformUtils.obj
 0001:000004a0       ?alignPointerForNewBlockAllocation@XMLPlatformUtils@xercesc_2_5@@SAII@Z 120014a0 f i Win32PlatformUtils.obj
 0001:000004c0       ??1XMLDeleter@xercesc_2_5@@UAE@XZ 120014c0 f i Win32PlatformUtils.obj
 0001:000004d0       ??_EXMLDeleter@xercesc_2_5@@UAEPAXI@Z 120014d0 f i Win32PlatformUtils.obj
 0001:00000530       ??0XMLDeleter@xercesc_2_5@@IAE@XZ 12001530 f i Win32PlatformUtils.obj
 0001:00000540       ??0RuntimeException@xercesc_2_5@@QAE@QBDIW4Codes@XMLExcepts@1@PAVMemoryManager@1@@Z 12001540 f i Win32PlatformUtils.obj
 0001:000005b0       ??0RuntimeException@xercesc_2_5@@QAE@ABV01@@Z 120015b0 f i Win32PlatformUtils.obj
 0001:000005d0       ??0RuntimeException@xercesc_2_5@@QAE@QBDIW4Codes@XMLExcepts@1@QBG222PAVMemoryManager@1@@Z 120015d0 f i Win32PlatformUtils.obj
 0001:00000650       ??0RuntimeException@xercesc_2_5@@QAE@QBDIW4Codes@XMLExcepts@1@0000PAVMemoryManager@1@@Z 12001650 f i Win32PlatformUtils.obj
 0001:000006d0       ??1RuntimeException@xercesc_2_5@@UAE@XZ 120016d0 f i Win32PlatformUtils.obj
 0001:000006e0       ?duplicate@RuntimeException@xercesc_2_5@@UBEPAVXMLException@2@XZ 120016e0 f i Win32PlatformUtils.obj
 0001:00000740       ?getType@RuntimeException@xercesc_2_5@@UBEPBGXZ 12001740 f i Win32PlatformUtils.obj
 0001:00000750       ??_ERuntimeException@xercesc_2_5@@UAEPAXI@Z 12001750 f i Win32PlatformUtils.obj
 0001:000007b0       ??0ArrayIndexOutOfBoundsException@xercesc_2_5@@QAE@QBDIW4Codes@XMLExcepts@1@PAVMemoryManager@1@@Z 120017b0 f i Win32PlatformUtils.obj
 0001:00000820       ??0ArrayIndexOutOfBoundsException@xercesc_2_5@@QAE@ABV01@@Z 12001820 f i Win32PlatformUtils.obj
 0001:00000840       ??0ArrayIndexOutOfBoundsException@xercesc_2_5@@QAE@QBDIW4Codes@XMLExcepts@1@QBG222PAVMemoryManager@1@@Z 12001840 f i Win32PlatformUtils.obj
 0001:000008c0       ??0ArrayIndexOutOfBoundsException@xercesc_2_5@@QAE@QBDIW4Codes@XMLExcepts@1@0000PAVMemoryManager@1@@Z 120018c0 f i Win32PlatformUtils.obj
 0001:00000940       ??1ArrayIndexOutOfBoundsException@xercesc_2_5@@UAE@XZ 12001940 f i Win32PlatformUtils.obj
 0001:00000950       ?duplicate@ArrayIndexOutOfBoundsException@xercesc_2_5@@UBEPAVXMLException@2@XZ 12001950 f i Win32PlatformUtils.obj
 0001:000009b0       ?getType@ArrayIndexOutOfBoundsException@xercesc_2_5@@UBEPBGXZ 120019b0 f i Win32PlatformUtils.obj
 0001:000009c0       ??_EArrayIndexOutOfBoundsException@xercesc_2_5@@UAEPAXI@Z 120019c0 f i Win32PlatformUtils.obj
 0001:00000a20       ??4XMLScannerResolver@xercesc_2_5@@QAEAAV01@ABV01@@Z 12001a20 f i Win32PlatformUtils.obj
 0001:00000a20       ??4RegxUtil@xercesc_2_5@@QAEAAV01@ABV01@@Z 12001a20 f i Win32PlatformUtils.obj
 0001:00000a20       ??4XPathSymbols@xercesc_2_5@@QAEAAV01@ABV01@@Z 12001a20 f i Win32PlatformUtils.obj
 0001:00000a20       ??4XercesElementWildcard@xercesc_2_5@@QAEAAV01@ABV01@@Z 12001a20 f i Win32PlatformUtils.obj
 0001:00000a20       ??4SchemaSymbols@xercesc_2_5@@QAEAAV01@ABV01@@Z 12001a20 f i Win32PlatformUtils.obj
 0001:00000a20       ??4DOMImplementationRegistry@xercesc_2_5@@QAEAAV01@ABV01@@Z 12001a20 f i Win32PlatformUtils.obj
 0001:00000a20       ??4XUtil@xercesc_2_5@@QAEAAV01@ABV01@@Z 12001a20 f i Win32PlatformUtils.obj
 0001:00000a20       ??4XSConstants@xercesc_2_5@@QAEAAV01@ABV01@@Z 12001a20 f i Win32PlatformUtils.obj
 0001:00000a20       ??4Base64@xercesc_2_5@@QAEAAV01@ABV01@@Z 12001a20 f i Win32PlatformUtils.obj
 0001:00000a20       ??4XMLPlatformUtils@xercesc_2_5@@QAEAAV01@ABV01@@Z 12001a20 f i Win32PlatformUtils.obj
 0001:00000a20       ??4XMLChar1_1@xercesc_2_5@@QAEAAV01@ABV01@@Z 12001a20 f i Win32PlatformUtils.obj
 0001:00000a20       ??4XMLUniCharacter@xercesc_2_5@@QAEAAV01@ABV01@@Z 12001a20 f i Win32PlatformUtils.obj
 0001:00000a20       ??4PSVIDefs@xercesc_2_5@@QAEAAV01@ABV01@@Z 12001a20 f i Win32PlatformUtils.obj
 0001:00000a20       ??4XMLString@xercesc_2_5@@QAEAAV01@ABV01@@Z 12001a20 f i Win32PlatformUtils.obj
 0001:00000a20       ??4XMLUni@xercesc_2_5@@QAEAAV01@ABV01@@Z 12001a20 f i Win32PlatformUtils.obj
 0001:00000a20       ??4XMLChar1_0@xercesc_2_5@@QAEAAV01@ABV01@@Z 12001a20 f i Win32PlatformUtils.obj
 0001:00000a30       ?moveChars@XMLString@xercesc_2_5@@SAXQAGQBGI@Z 12001a30 f i Win32PlatformUtils.obj
 0001:00000a60       ?stringLen@XMLString@xercesc_2_5@@SAIQBG@Z 12001a60 f i Win32PlatformUtils.obj
 0001:00000a90       ?replicate@XMLString@xercesc_2_5@@SAPAGQBGQAVMemoryManager@2@@Z 12001a90 f i Win32PlatformUtils.obj
 0001:00000ae0       ?startsWith@XMLString@xercesc_2_5@@SA_NQBG0@Z 12001ae0 f i Win32PlatformUtils.obj
 0001:00000b20       ?startsWithI@XMLString@xercesc_2_5@@SA_NQBG0@Z 12001b20 f i Win32PlatformUtils.obj
 0001:00000b60       ?endsWith@XMLString@xercesc_2_5@@SA_NQBG0@Z 12001b60 f i Win32PlatformUtils.obj
 0001:00000be0       ?validateRegion@XMLString@xercesc_2_5@@CA_NQBGH0HI@Z 12001be0 f i Win32PlatformUtils.obj
 0001:00000c60       ?equals@XMLString@xercesc_2_5@@SA_NQBG0@Z 12001c60 f i Win32PlatformUtils.obj
 0001:00000cb0       ?equals@XMLString@xercesc_2_5@@SA_NQBD0@Z 12001cb0 f i Win32PlatformUtils.obj
 0001:00000d00       ?lastIndexOf@XMLString@xercesc_2_5@@SAHQBGG@Z 12001d00 f i Win32PlatformUtils.obj
 0001:00000d50       ??1HashCMStateSet@xercesc_2_5@@UAE@XZ 12001d50 f i Win32PlatformUtils.obj
 0001:00000d50       ??1HashBase@xercesc_2_5@@UAE@XZ 12001d50 f i Win32PlatformUtils.obj
 0001:00000d60       ??0HashBase@xercesc_2_5@@QAE@XZ 12001d60 f i Win32PlatformUtils.obj
 0001:00000d70       ??_EHashBase@xercesc_2_5@@UAEPAXI@Z 12001d70 f i Win32PlatformUtils.obj
 0001:00000dd0       ??0IllegalArgumentException@xercesc_2_5@@QAE@QBDIW4Codes@XMLExcepts@1@PAVMemoryManager@1@@Z 12001dd0 f i Win32PlatformUtils.obj
 0001:00000e40       ??0IllegalArgumentException@xercesc_2_5@@QAE@ABV01@@Z 12001e40 f i Win32PlatformUtils.obj
 0001:00000e60       ??0IllegalArgumentException@xercesc_2_5@@QAE@QBDIW4Codes@XMLExcepts@1@QBG222PAVMemoryManager@1@@Z 12001e60 f i Win32PlatformUtils.obj
 0001:00000ee0       ??0IllegalArgumentException@xercesc_2_5@@QAE@QBDIW4Codes@XMLExcepts@1@0000PAVMemoryManager@1@@Z 12001ee0 f i Win32PlatformUtils.obj
 0001:00000f60       ??1IllegalArgumentException@xercesc_2_5@@UAE@XZ 12001f60 f i Win32PlatformUtils.obj
 0001:00000f70       ?duplicate@IllegalArgumentException@xercesc_2_5@@UBEPAVXMLException@2@XZ 12001f70 f i Win32PlatformUtils.obj
 0001:00000fd0       ?getType@IllegalArgumentException@xercesc_2_5@@UBEPBGXZ 12001fd0 f i Win32PlatformUtils.obj
 0001:00000fe0       ??_EIllegalArgumentException@xercesc_2_5@@UAEPAXI@Z 12001fe0 f i Win32PlatformUtils.obj
 0001:00001040       ??0NoSuchElementException@xercesc_2_5@@QAE@QBDIW4Codes@XMLExcepts@1@PAVMemoryManager@1@@Z 12002040 f i Win32PlatformUtils.obj
 0001:000010b0       ??0NoSuchElementException@xercesc_2_5@@QAE@ABV01@@Z 120020b0 f i Win32PlatformUtils.obj
 0001:000010d0       ??0NoSuchElementException@xercesc_2_5@@QAE@QBDIW4Codes@XMLExcepts@1@QBG222PAVMemoryManager@1@@Z 120020d0 f i Win32PlatformUtils.obj
 0001:00001150       ??0NoSuchElementException@xercesc_2_5@@QAE@QBDIW4Codes@XMLExcepts@1@0000PAVMemoryManager@1@@Z 12002150 f i Win32PlatformUtils.obj
 0001:000011d0       ??1NoSuchElementException@xercesc_2_5@@UAE@XZ 120021d0 f i Win32PlatformUtils.obj
 0001:000011e0       ?duplicate@NoSuchElementException@xercesc_2_5@@UBEPAVXMLException@2@XZ 120021e0 f i Win32PlatformUtils.obj
 0001:00001240       ?getType@NoSuchElementException@xercesc_2_5@@UBEPBGXZ 12002240 f i Win32PlatformUtils.obj
 0001:00001250       ??_ENoSuchElementException@xercesc_2_5@@UAEPAXI@Z 12002250 f i Win32PlatformUtils.obj
 0001:000012b0       ??0NullPointerException@xercesc_2_5@@QAE@QBDIW4Codes@XMLExcepts@1@PAVMemoryManager@1@@Z 120022b0 f i Win32PlatformUtils.obj
 0001:00001320       ??0NullPointerException@xercesc_2_5@@QAE@ABV01@@Z 12002320 f i Win32PlatformUtils.obj
 0001:00001340       ??0NullPointerException@xercesc_2_5@@QAE@QBDIW4Codes@XMLExcepts@1@QBG222PAVMemoryManager@1@@Z 12002340 f i Win32PlatformUtils.obj
 0001:000013c0       ??0NullPointerException@xercesc_2_5@@QAE@QBDIW4Codes@XMLExcepts@1@0000PAVMemoryManager@1@@Z 120023c0 f i Win32PlatformUtils.obj
 0001:00001440       ??1NullPointerException@xercesc_2_5@@UAE@XZ 12002440 f i Win32PlatformUtils.obj
 0001:00001450       ?duplicate@NullPointerException@xercesc_2_5@@UBEPAVXMLException@2@XZ 12002450 f i Win32PlatformUtils.obj
 0001:000014b0       ?getType@NullPointerException@xercesc_2_5@@UBEPBGXZ 120024b0 f i Win32PlatformUtils.obj
 0001:000014c0       ??_ENullPointerException@xercesc_2_5@@UAEPAXI@Z 120024c0 f i Win32PlatformUtils.obj
 0001:00001520       ?getPublicId@XMLNotationDecl@xercesc_2_5@@QBEPBGXZ 12002520 f i Win32PlatformUtils.obj
 0001:00001520       ?getElementDecl@ContentSpecNode@xercesc_2_5@@QAEPAVXMLElementDecl@2@XZ 12002520 f i Win32PlatformUtils.obj
 0001:00001520       ?getOptions@ModifierToken@xercesc_2_5@@QBEHXZ 12002520 f i Win32PlatformUtils.obj
 0001:00001520       ?getDocTypeHandler@DTDScanner@xercesc_2_5@@QAEPAVDocTypeHandler@2@XZ 12002520 f i Win32PlatformUtils.obj
 0001:00001520       ?getCreateReason@XMLElementDecl@xercesc_2_5@@QBE?AW4CreateReasons@12@XZ 12002520 f i Win32PlatformUtils.obj
 0001:00001520       ?getElementDecl@ContentSpecNode@xercesc_2_5@@QBEPBVXMLElementDecl@2@XZ 12002520 f i Win32PlatformUtils.obj
 0001:00001520       ?getSelector@IdentityConstraint@xercesc_2_5@@QBEPAVIC_Selector@2@XZ 12002520 f i Win32PlatformUtils.obj
 0001:00001520       ?getMin@ClosureToken@xercesc_2_5@@UBEHXZ 12002520 f i Win32PlatformUtils.obj
 0001:00001520       ?getFinalSet@DatatypeValidator@xercesc_2_5@@QBEHXZ 12002520 f i Win32PlatformUtils.obj
 0001:00001520       ?getBaseURI@XMLResourceIdentifier@xercesc_2_5@@QBEPBGXZ 12002520 f i Win32PlatformUtils.obj
 0001:00001520       ?getCategories@RangeTokenMap@xercesc_2_5@@IBEPAVXMLStringPool@2@XZ 12002520 f i Win32PlatformUtils.obj
 0001:00001520       ?getScale@XMLBigDecimal@xercesc_2_5@@QBEIXZ 12002520 f i Win32PlatformUtils.obj
 0001:00001520       ?curPos@BinHTTPURLInputStream@xercesc_2_5@@UBEIXZ 12002520 f i Win32PlatformUtils.obj
 0001:00001520       ?getReferenceNo@ConditionToken@xercesc_2_5@@UBEHXZ 12002520 f i Win32PlatformUtils.obj
 0001:00001520       ?getNameId@XercesGroupInfo@xercesc_2_5@@QBEIXZ 12002520 f i Win32PlatformUtils.obj
 0001:00001520       ?getSchemaNormalizedValue@PSVIItem@xercesc_2_5@@QAEPBGXZ 12002520 f i Win32PlatformUtils.obj
 0001:00001520       ?getReaderMgr@XMLValidator@xercesc_2_5@@IAEPAVReaderMgr@2@XZ 12002520 f i Win32PlatformUtils.obj
 0001:00001520       ?getOffset@DOMLocatorImpl@xercesc_2_5@@UBEJXZ 12002520 f i Win32PlatformUtils.obj
 0001:00001520       ?getLen@MemBufFormatTarget@xercesc_2_5@@QBEIXZ 12002520 f i Win32PlatformUtils.obj
 0001:00001520       ?getHost@XMLURL@xercesc_2_5@@QBEPBGXZ 12002520 f i Win32PlatformUtils.obj
 0001:00001520       ?getValue@XMLAttr@xercesc_2_5@@QBEPBGXZ 12002520 f i Win32PlatformUtils.obj
 0001:00001520       ?getNamespaceId@XercesAttGroupInfo@xercesc_2_5@@QBEIXZ 12002520 f i Win32PlatformUtils.obj
 0001:00001520       ?getNextOp@Op@xercesc_2_5@@QBEPBV12@XZ 12002520 f i Win32PlatformUtils.obj
 0001:00001520       ?getMemoryManager@XMLTranscoder@xercesc_2_5@@QBEPAVMemoryManager@2@XZ 12002520 f i Win32PlatformUtils.obj
 0001:00001520       ?getReferenceNo@StringToken@xercesc_2_5@@UBEHXZ 12002520 f i Win32PlatformUtils.obj
 0001:00001520       ?getHost@XMLUri@xercesc_2_5@@QBEPBGXZ 12002520 f i Win32PlatformUtils.obj
 0001:00001520       ?getSystemId@XSDLocator@xercesc_2_5@@UBEPBGXZ 12002520 f i Win32PlatformUtils.obj
 0001:00001520       ?getSrcLine@XMLException@xercesc_2_5@@QBEIXZ 12002520 f i Win32PlatformUtils.obj
 0001:00001520       ?getDerivedBy@ComplexTypeInfo@xercesc_2_5@@QBEHXZ 12002520 f i Win32PlatformUtils.obj
 0001:00001520       ?getChar@CharToken@xercesc_2_5@@UBEHXZ 12002520 f i Win32PlatformUtils.obj
 0001:00001520       ?getTargetNSURI@SchemaInfo@xercesc_2_5@@QBEHXZ 12002520 f i Win32PlatformUtils.obj
 0001:00001520       ?getNoParen@ParenToken@xercesc_2_5@@UBEHXZ 12002520 f i Win32PlatformUtils.obj
 0001:00001520       ?getLocationPaths@XercesXPath@xercesc_2_5@@QBEPAV?$RefVectorOf@VXercesLocationPath@xercesc_2_5@@@2@XZ 12002520 f i Win32PlatformUtils.obj
 0001:00001520       ?getValue@XMLEntityDecl@xercesc_2_5@@QBEPBGXZ 12002520 f i Win32PlatformUtils.obj
 0001:00001520       ?getReaderMgr@XMLValidator@xercesc_2_5@@IBEPBVReaderMgr@2@XZ 12002520 f i Win32PlatformUtils.obj
 0001:00001520       ?getCreateReason@XMLAttDef@xercesc_2_5@@QBE?AW4CreateReasons@12@XZ 12002520 f i Win32PlatformUtils.obj
 0001:00001520       ?getLocation@DOMErrorImpl@xercesc_2_5@@UBEPAVDOMLocator@2@XZ 12002520 f i Win32PlatformUtils.obj
 0001:00001520       ?getPublicId@InputSource@xercesc_2_5@@UBEPBGXZ 12002520 f i Win32PlatformUtils.obj
 0001:00001520       ?getDocTypeHandler@DTDScanner@xercesc_2_5@@QBEPBVDocTypeHandler@2@XZ 12002520 f i Win32PlatformUtils.obj
 0001:00001530       ?getLineNumber@DOMLocatorImpl@xercesc_2_5@@UBEJXZ 12002530 f i Win32PlatformUtils.obj
 0001:00001530       ?getXPath@IC_Field@xercesc_2_5@@QBEPAVXercesXPath@2@XZ 12002530 f i Win32PlatformUtils.obj
 0001:00001530       ?getUserDefinedRegistry@DatatypeValidatorFactory@xercesc_2_5@@QBEPAV?$RefHashTableOf@VDatatypeValidator@xercesc_2_5@@@2@XZ 12002530 f i Win32PlatformUtils.obj
 0001:00001530       ?getId@XMLEntityDecl@xercesc_2_5@@QBEIXZ 12002530 f i Win32PlatformUtils.obj
 0001:00001530       ?getBlockDefault@SchemaInfo@xercesc_2_5@@QBEHXZ 12002530 f i Win32PlatformUtils.obj
 0001:00001530       ?getDefaultType@XMLAttDef@xercesc_2_5@@QBE?AW4DefAttTypes@12@XZ 12002530 f i Win32PlatformUtils.obj
 0001:00001530       ?getLen@XMLBuffer@xercesc_2_5@@QBEIXZ 12002530 f i Win32PlatformUtils.obj
 0001:00001530       ?getId@XMLNotationDecl@xercesc_2_5@@QBEIXZ 12002530 f i Win32PlatformUtils.obj
 0001:00001530       ?getStringPool@GrammarResolver@xercesc_2_5@@QAEPAVXMLStringPool@2@XZ 12002530 f i Win32PlatformUtils.obj
 0001:00001530       ?getMemoryManager@XMLAttDefList@xercesc_2_5@@QBEPAVMemoryManager@2@XZ 12002530 f i Win32PlatformUtils.obj
 0001:00001530       ?getMemoryManager@DatatypeValidator@xercesc_2_5@@QBEPAVMemoryManager@2@XZ 12002530 f i Win32PlatformUtils.obj
 0001:00001530       ?getIdentityConstraintName@IdentityConstraint@xercesc_2_5@@QBEPAGXZ 12002530 f i Win32PlatformUtils.obj
 0001:00001530       ?getSign@XMLBigDecimal@xercesc_2_5@@UBEHXZ 12002530 f i Win32PlatformUtils.obj
 0001:00001530       ?getCode@XMLException@xercesc_2_5@@QBE?AW4Codes@XMLExcepts@2@XZ 12002530 f i Win32PlatformUtils.obj
 0001:00001530       ?getEntityExpansionLimit@SecurityManager@xercesc_2_5@@UBEIXZ 12002530 f i Win32PlatformUtils.obj
 0001:00001530       ?getNamespaces@XSModel@xercesc_2_5@@QAEPAV?$RefArrayVectorOf@G@2@XZ 12002530 f i Win32PlatformUtils.obj
 0001:00001530       ?getLineNumber@XSDLocator@xercesc_2_5@@UBEJXZ 12002530 f i Win32PlatformUtils.obj
 0001:00001530       ?getMessage@SAXException@xercesc_2_5@@UBEPBGXZ 12002530 f i Win32PlatformUtils.obj
 0001:00001530       ?getXPath@IC_Selector@xercesc_2_5@@QBEPAVXercesXPath@2@XZ 12002530 f i Win32PlatformUtils.obj
 0001:00001530       ?getTargetNamespace@SchemaGrammar@xercesc_2_5@@UBEPBGXZ 12002530 f i Win32PlatformUtils.obj
 0001:00001530       ?getMemoryManager@QName@xercesc_2_5@@QBEPAVMemoryManager@2@XZ 12002530 f i Win32PlatformUtils.obj
 0001:00001530       ?getMemoryManager@InputSource@xercesc_2_5@@QBEPAVMemoryManager@2@XZ 12002530 f i Win32PlatformUtils.obj
 0001:00001530       ?getBufMgr@XMLValidator@xercesc_2_5@@IAEPAVXMLBufferMgr@2@XZ 12002530 f i Win32PlatformUtils.obj
 0001:00001530       ?getEncodingName@XMLFormatter@xercesc_2_5@@QBEPBGXZ 12002530 f i Win32PlatformUtils.obj
 0001:00001530       ?getMemoryManager@XMLURL@xercesc_2_5@@QBEPAVMemoryManager@2@XZ 12002530 f i Win32PlatformUtils.obj
 0001:00001530       ?getType@XSObject@xercesc_2_5@@QBE?AW4COMPONENT_TYPE@XSConstants@2@XZ 12002530 f i Win32PlatformUtils.obj
 0001:00001530       ?getScheme@XMLUri@xercesc_2_5@@QBEPBGXZ 12002530 f i Win32PlatformUtils.obj
 0001:00001530       ?getMemoryManager@XMLElementDecl@xercesc_2_5@@QBEPAVMemoryManager@2@XZ 12002530 f i Win32PlatformUtils.obj
 0001:00001530       ?getTokenRegistry@RangeTokenMap@xercesc_2_5@@IBEPAV?$RefHashTableOf@VRangeTokenElemMap@xercesc_2_5@@@2@XZ 12002530 f i Win32PlatformUtils.obj
 0001:00001530       ?getPublicId@XMLResourceIdentifier@xercesc_2_5@@QBEPBGXZ 12002530 f i Win32PlatformUtils.obj
 0001:00001530       ?getReaderNum@EndOfEntityException@xercesc_2_5@@QBEIXZ 12002530 f i Win32PlatformUtils.obj
 0001:00001530       ?getBufMgr@XMLValidator@xercesc_2_5@@IBEPBVXMLBufferMgr@2@XZ 12002530 f i Win32PlatformUtils.obj
 0001:00001530       ?getType@XMLAttr@xercesc_2_5@@QBE?AW4AttTypes@XMLAttDef@2@XZ 12002530 f i Win32PlatformUtils.obj
 0001:00001530       ?getMemoryManager@XMLGrammarPool@xercesc_2_5@@QAEQAVMemoryManager@2@XZ 12002530 f i Win32PlatformUtils.obj
 0001:00001530       ?getMemoryManager@RegxParser@xercesc_2_5@@IBEPAVMemoryManager@2@XZ 12002530 f i Win32PlatformUtils.obj
 0001:00001530       ?getMemoryManager@XMLGrammarDescription@xercesc_2_5@@QBEPAVMemoryManager@2@XZ 12002530 f i Win32PlatformUtils.obj
 0001:00001530       ?getMemoryManager@XSerializeEngine@xercesc_2_5@@QBEPAVMemoryManager@2@XZ 12002530 f i Win32PlatformUtils.obj
 0001:00001530       ?getBlockSize@XMLTranscoder@xercesc_2_5@@QBEIXZ 12002530 f i Win32PlatformUtils.obj
 0001:00001540       ?getNameId@XercesAttGroupInfo@xercesc_2_5@@QBEIXZ 12002540 f i Win32PlatformUtils.obj
 0001:00001540       ?getCurrentReader@ReaderMgr@xercesc_2_5@@QBEPBVXMLReader@2@XZ 12002540 f i Win32PlatformUtils.obj
 0001:00001540       ?getName@XercesNodeTest@xercesc_2_5@@QBEPAVQName@2@XZ 12002540 f i Win32PlatformUtils.obj
 0001:00001540       ?getIdentityConstraint@IC_Selector@xercesc_2_5@@QBEPAVIdentityConstraint@2@XZ 12002540 f i Win32PlatformUtils.obj
 0001:00001540       ?getUserInfo@XMLUri@xercesc_2_5@@QBEPBGXZ 12002540 f i Win32PlatformUtils.obj
 0001:00001540       ?getElementName@XMLElementDecl@xercesc_2_5@@QAEPAVQName@2@XZ 12002540 f i Win32PlatformUtils.obj
 0001:00001540       ?getIdentityConstraint@IC_Field@xercesc_2_5@@QBEPAVIdentityConstraint@2@XZ 12002540 f i Win32PlatformUtils.obj
 0001:00001540       ?getKey@XMLNotationDecl@xercesc_2_5@@QBEPBGXZ 12002540 f i Win32PlatformUtils.obj
 0001:00001540       ?getNodeTest@XercesStep@xercesc_2_5@@QBEPAVXercesNodeTest@2@XZ 12002540 f i Win32PlatformUtils.obj
 0001:00001540       ?getNamespaceItems@XSModel@xercesc_2_5@@QAEPAV?$RefVectorOf@VXSNamespaceItem@xercesc_2_5@@@2@XZ 12002540 f i Win32PlatformUtils.obj
 0001:00001540       ?getSystemId@XMLResourceIdentifier@xercesc_2_5@@QBEPBGXZ 12002540 f i Win32PlatformUtils.obj
 0001:00001540       ?getFragment@XMLURL@xercesc_2_5@@QBEPBGXZ 12002540 f i Win32PlatformUtils.obj
 0001:00001540       ?getCurrentReader@ReaderMgr@xercesc_2_5@@QAEPAVXMLReader@2@XZ 12002540 f i Win32PlatformUtils.obj
 0001:00001540       ?getValidationContext@PSVIItem@xercesc_2_5@@QAEPBGXZ 12002540 f i Win32PlatformUtils.obj
 0001:00001540       ?getName@XMLNotationDecl@xercesc_2_5@@QBEPBGXZ 12002540 f i Win32PlatformUtils.obj
 0001:00001540       ?getTotalDigit@XMLBigDecimal@xercesc_2_5@@QBEIXZ 12002540 f i Win32PlatformUtils.obj
 0001:00001540       ?getRawData@XMLBigInteger@xercesc_2_5@@QBEPAGXZ 12002540 f i Win32PlatformUtils.obj
 0001:00001540       ?getRangeMap@RangeTokenMap@xercesc_2_5@@IBEPAV?$RefHashTableOf@VRangeFactory@xercesc_2_5@@@2@XZ 12002540 f i Win32PlatformUtils.obj
 0001:00001540       ?getFinalDefault@SchemaInfo@xercesc_2_5@@QBEHXZ 12002540 f i Win32PlatformUtils.obj
 0001:00001540       ?getElement@ContentSpecNode@xercesc_2_5@@QBEPBVQName@2@XZ 12002540 f i Win32PlatformUtils.obj
 0001:00001540       ?getEntityResolver@DOMBuilderImpl@xercesc_2_5@@UBEPBVDOMEntityResolver@2@XZ 12002540 f i Win32PlatformUtils.obj
 0001:00001540       ?getEncodingName@XMLTranscoder@xercesc_2_5@@QBEPBGXZ 12002540 f i Win32PlatformUtils.obj
 0001:00001540       ?getEncoding@InputSource@xercesc_2_5@@UBEPBGXZ 12002540 f i Win32PlatformUtils.obj
 0001:00001540       ?getScope@XercesGroupInfo@xercesc_2_5@@QBEHXZ 12002540 f i Win32PlatformUtils.obj
 0001:00001540       ?getType@XMLAttDef@xercesc_2_5@@QBE?AW4AttTypes@12@XZ 12002540 f i Win32PlatformUtils.obj
 0001:00001540       ?getIdentityConstraint@ValueStore@xercesc_2_5@@QBEPAVIdentityConstraint@2@XZ 12002540 f i Win32PlatformUtils.obj
 0001:00001540       ?getPrefix@QName@xercesc_2_5@@QBEPBGXZ 12002540 f i Win32PlatformUtils.obj
 0001:00001540       ?getColumnNumber@XSDLocator@xercesc_2_5@@UBEJXZ 12002540 f i Win32PlatformUtils.obj
 0001:00001540       ?getElement@ContentSpecNode@xercesc_2_5@@QAEPAVQName@2@XZ 12002540 f i Win32PlatformUtils.obj
 0001:00001540       ?getMessage@DOMErrorImpl@xercesc_2_5@@UBEPBGXZ 12002540 f i Win32PlatformUtils.obj
 0001:00001540       ?getPrefix@QName@xercesc_2_5@@QAEPAGXZ 12002540 f i Win32PlatformUtils.obj
 0001:00001540       ?getEntityResolver@DOMBuilderImpl@xercesc_2_5@@UAEPAVDOMEntityResolver@2@XZ 12002540 f i Win32PlatformUtils.obj
 0001:00001540       ?getValueLen@XMLEntityDecl@xercesc_2_5@@QBEIXZ 12002540 f i Win32PlatformUtils.obj
 0001:00001540       ?getExpression@XercesXPath@xercesc_2_5@@QAEPAGXZ 12002540 f i Win32PlatformUtils.obj
 0001:00001540       ?getRefName@XMLRefInfo@xercesc_2_5@@QBEPBGXZ 12002540 f i Win32PlatformUtils.obj
 0001:00001540       ?getKey@KVStringPair@xercesc_2_5@@QAEPAGXZ 12002540 f i Win32PlatformUtils.obj
 0001:00001540       ?getElementName@IdentityConstraint@xercesc_2_5@@QBEPAGXZ 12002540 f i Win32PlatformUtils.obj
 0001:00001540       ?getSchemaLocation@XMLResourceIdentifier@xercesc_2_5@@QBEPBGXZ 12002540 f i Win32PlatformUtils.obj
 0001:00001540       ?getElementName@XMLElementDecl@xercesc_2_5@@QBEPBVQName@2@XZ 12002540 f i Win32PlatformUtils.obj
 0001:00001540       ?getColumnNumber@DOMLocatorImpl@xercesc_2_5@@UBEJXZ 12002540 f i Win32PlatformUtils.obj
 0001:00001540       ?getKey@KVStringPair@xercesc_2_5@@QBEPBGXZ 12002540 f i Win32PlatformUtils.obj
 0001:00001550       ??1XMLMsgLoader@xercesc_2_5@@UAE@XZ 12002550 f i Win32PlatformUtils.obj
 0001:00001560       ??_EXMLMsgLoader@xercesc_2_5@@UAEPAXI@Z 12002560 f i Win32PlatformUtils.obj
 0001:000015c0       ??0XMLMsgLoader@xercesc_2_5@@IAE@XZ 120025c0 f i Win32PlatformUtils.obj
 0001:000015d0       ??_FXMLURL@xercesc_2_5@@QAEXXZ 120025d0 f i Win32PlatformUtils.obj
 0001:000015e0       ??9XMLURL@xercesc_2_5@@QBE_NABV01@@Z 120025e0 f i Win32PlatformUtils.obj
 0001:00001600       ?getTermType@XSParticle@xercesc_2_5@@QBE?AW4TERM_TYPE@12@XZ 12002600 f i Win32PlatformUtils.obj
 0001:00001600       ?getTypeCategory@XSTypeDefinition@xercesc_2_5@@QBE?AW4TYPE_CATEGORY@12@XZ 12002600 f i Win32PlatformUtils.obj
 0001:00001600       ?getLocalPart@QName@xercesc_2_5@@QBEPBGXZ 12002600 f i Win32PlatformUtils.obj
 0001:00001600       ?getOptionsMask@ModifierToken@xercesc_2_5@@QBEHXZ 12002600 f i Win32PlatformUtils.obj
 0001:00001600       ?getEntityDeclPool@DTDGrammar@xercesc_2_5@@QAEPAV?$NameIdPool@VDTDEntityDecl@xercesc_2_5@@@2@XZ 12002600 f i Win32PlatformUtils.obj
 0001:00001600       ?getFacetsDefined@DatatypeValidator@xercesc_2_5@@IBEHXZ 12002600 f i Win32PlatformUtils.obj
 0001:00001600       ?getConstraintType@XSWildcard@xercesc_2_5@@QBE?AW4NAMESPACE_CONSTRAINT@12@XZ 12002600 f i Win32PlatformUtils.obj
 0001:00001600       ?getType@DOMErrorImpl@xercesc_2_5@@UBEPBGXZ 12002600 f i Win32PlatformUtils.obj
 0001:00001600       ?getErrorHandler@DOMBuilderImpl@xercesc_2_5@@UAEPAVDOMErrorHandler@2@XZ 12002600 f i Win32PlatformUtils.obj
 0001:00001600       ?getString@StringToken@xercesc_2_5@@UBEPBGXZ 12002600 f i Win32PlatformUtils.obj
 0001:00001600       ?getName@XMLEntityDecl@xercesc_2_5@@QBEPBGXZ 12002600 f i Win32PlatformUtils.obj
 0001:00001600       ?getFacetKind@XSFacet@xercesc_2_5@@QBE?AW4FACET@XSSimpleTypeDefinition@2@XZ 12002600 f i Win32PlatformUtils.obj
 0001:00001600       ?getKey@XMLEntityDecl@xercesc_2_5@@QBEPBGXZ 12002600 f i Win32PlatformUtils.obj
 0001:00001600       ?getFirst@ContentSpecNode@xercesc_2_5@@QAEPAV12@XZ 12002600 f i Win32PlatformUtils.obj
 0001:00001600       ?getId@XMLElementDecl@xercesc_2_5@@QBEIXZ 12002600 f i Win32PlatformUtils.obj
 0001:00001600       ?getNamespaceId@XercesGroupInfo@xercesc_2_5@@QBEIXZ 12002600 f i Win32PlatformUtils.obj
 0001:00001600       ?getAttName@XMLAttr@xercesc_2_5@@QBEPAVQName@2@XZ 12002600 f i Win32PlatformUtils.obj
 0001:00001600       ?getScanner@XMLValidator@xercesc_2_5@@IAEPAVXMLScanner@2@XZ 12002600 f i Win32PlatformUtils.obj
 0001:00001600       ?getPublicId@XSDLocator@xercesc_2_5@@UBEPBGXZ 12002600 f i Win32PlatformUtils.obj
 0001:00001600       ?getOffset@RegxParser@xercesc_2_5@@QBEHXZ 12002600 f i Win32PlatformUtils.obj
 0001:00001600       ?getTranscoder@XMLFormatter@xercesc_2_5@@QBEPBVXMLTranscoder@2@XZ 12002600 f i Win32PlatformUtils.obj
 0001:00001600       ?getSystemId@XMLNotationDecl@xercesc_2_5@@QBEPBGXZ 12002600 f i Win32PlatformUtils.obj
 0001:00001600       ?getConditionToken@ConditionToken@xercesc_2_5@@QBEPAVToken@2@XZ 12002600 f i Win32PlatformUtils.obj
 0001:00001600       ?curPos@BinMemInputStream@xercesc_2_5@@UBEIXZ 12002600 f i Win32PlatformUtils.obj
 0001:00001600       ?getScopeCount@SchemaInfo@xercesc_2_5@@QBEHXZ 12002600 f i Win32PlatformUtils.obj
 0001:00001600       ?getFirst@ContentSpecNode@xercesc_2_5@@QBEPBV12@XZ 12002600 f i Win32PlatformUtils.obj
 0001:00001600       ?getFacetKind@XSMultiValueFacet@xercesc_2_5@@QBE?AW4FACET@XSSimpleTypeDefinition@2@XZ 12002600 f i Win32PlatformUtils.obj
 0001:00001600       ?getMax@ClosureToken@xercesc_2_5@@UBEHXZ 12002600 f i Win32PlatformUtils.obj
 0001:00001600       ?getPassword@XMLURL@xercesc_2_5@@QBEPBGXZ 12002600 f i Win32PlatformUtils.obj
 0001:00001600       ?getLocalPart@QName@xercesc_2_5@@QAEPAGXZ 12002600 f i Win32PlatformUtils.obj
 0001:00001600       ?getPort@XMLUri@xercesc_2_5@@QBEHXZ 12002600 f i Win32PlatformUtils.obj
 0001:00001600       ?getCompositor@XSModelGroup@xercesc_2_5@@QBE?AW4COMPOSITOR_TYPE@12@XZ 12002600 f i Win32PlatformUtils.obj
 0001:00001600       ?getSchemaDefault@PSVIItem@xercesc_2_5@@QAEPBGXZ 12002600 f i Win32PlatformUtils.obj
 0001:00001600       ?getScanner@XMLValidator@xercesc_2_5@@IBEPBVXMLScanner@2@XZ 12002600 f i Win32PlatformUtils.obj
 0001:00001600       ?getValue@KVStringPair@xercesc_2_5@@QAEPAGXZ 12002600 f i Win32PlatformUtils.obj
 0001:00001600       ?getEntityDeclPool@DTDGrammar@xercesc_2_5@@QBEPBV?$NameIdPool@VDTDEntityDecl@xercesc_2_5@@@2@XZ 12002600 f i Win32PlatformUtils.obj
 0001:00001600       ?getBlockSet@ComplexTypeInfo@xercesc_2_5@@QBEHXZ 12002600 f i Win32PlatformUtils.obj
 0001:00001600       ?getErrorHandler@DOMBuilderImpl@xercesc_2_5@@UBEPBVDOMErrorHandler@2@XZ 12002600 f i Win32PlatformUtils.obj
 0001:00001600       ?getSystemId@InputSource@xercesc_2_5@@UBEPBGXZ 12002600 f i Win32PlatformUtils.obj
 0001:00001600       ?getNameSpace@XMLResourceIdentifier@xercesc_2_5@@QBEPBGXZ 12002600 f i Win32PlatformUtils.obj
 0001:00001600       ?getValue@KVStringPair@xercesc_2_5@@QBEPBGXZ 12002600 f i Win32PlatformUtils.obj
 0001:00001600       ?getTokenFactory@RangeTokenMap@xercesc_2_5@@QBEPAVTokenFactory@2@XZ 12002600 f i Win32PlatformUtils.obj
 0001:00001600       ?getMessage@XMLException@xercesc_2_5@@QBEPBGXZ 12002600 f i Win32PlatformUtils.obj
 0001:00001600       ?getErrorNode@DOMLocatorImpl@xercesc_2_5@@UBEPAVDOMNode@2@XZ 12002600 f i Win32PlatformUtils.obj
 0001:00001610       ?getAnnotationString@XSAnnotation@xercesc_2_5@@QAEPAGXZ 12002610 f i Win32PlatformUtils.obj
 0001:00001610       ?getNamespaceScopeLevel@SchemaInfo@xercesc_2_5@@QBEIXZ 12002610 f i Win32PlatformUtils.obj
 0001:00001610       ?getNoParen@RegxParser@xercesc_2_5@@QBEHXZ 12002610 f i Win32PlatformUtils.obj
 0001:00001610       ?getNotationName@XMLEntityDecl@xercesc_2_5@@QBEPBGXZ 12002610 f i Win32PlatformUtils.obj
 0001:00001610       ?getId@XMLAttDef@xercesc_2_5@@QBEIXZ 12002610 f i Win32PlatformUtils.obj
 0001:00001610       ?getFinalSet@ComplexTypeInfo@xercesc_2_5@@QBEHXZ 12002610 f i Win32PlatformUtils.obj
 0001:00001610       ?getRawData@XMLBigDecimal@xercesc_2_5@@UBEPAGXZ 12002610 f i Win32PlatformUtils.obj
 0001:00001610       ?getSecond@ContentSpecNode@xercesc_2_5@@QAEPAV12@XZ 12002610 f i Win32PlatformUtils.obj
 0001:00001610       ?getRelatedData@DOMErrorImpl@xercesc_2_5@@UBEPAXXZ 12002610 f i Win32PlatformUtils.obj
 0001:00001610       ?getRefKey@XSIDCDefinition@xercesc_2_5@@QBEPAV12@XZ 12002610 f i Win32PlatformUtils.obj
 0001:00001610       ?getFormattedString@XMLBigDecimal@xercesc_2_5@@UBEPBGXZ 12002610 f i Win32PlatformUtils.obj
 0001:00001610       ?getBaseURI@XMLNotationDecl@xercesc_2_5@@QBEPBGXZ 12002610 f i Win32PlatformUtils.obj
 0001:00001610       ?getGrammar@DTDValidator@xercesc_2_5@@UBEPAVGrammar@2@XZ 12002610 f i Win32PlatformUtils.obj
 0001:00001610       ?getMinOccurs@XSParticle@xercesc_2_5@@QBEHXZ 12002610 f i Win32PlatformUtils.obj
 0001:00001610       ?getContentSpec@XercesGroupInfo@xercesc_2_5@@QBEPAVContentSpecNode@2@XZ 12002610 f i Win32PlatformUtils.obj
 0001:00001610       ?getRegBasedAuthority@XMLUri@xercesc_2_5@@QBEPBGXZ 12002610 f i Win32PlatformUtils.obj
 0001:00001610       ?getErrorCount@XMLScanner@xercesc_2_5@@QAEHXZ 12002610 f i Win32PlatformUtils.obj
 0001:00001610       ?getAttributeUses@XSAttributeGroupDefinition@xercesc_2_5@@QAEPAV?$RefVectorOf@VXSAttributeUse@xercesc_2_5@@@2@XZ 12002610 f i Win32PlatformUtils.obj
 0001:00001610       ?getTypeDefinition@XSAttributeDeclaration@xercesc_2_5@@QBEPAVXSSimpleTypeDefinition@2@XZ 12002610 f i Win32PlatformUtils.obj
 0001:00001610       ?getParticles@XSModelGroup@xercesc_2_5@@QBEPAV?$RefVectorOf@VXSParticle@xercesc_2_5@@@2@XZ 12002610 f i Win32PlatformUtils.obj
 0001:00001610       ?getCanonicalRepresentation@PSVIItem@xercesc_2_5@@QBEPBGXZ 12002610 f i Win32PlatformUtils.obj
 0001:00001610       ?getAnnotation@XSNotationDeclaration@xercesc_2_5@@QBEPAVXSAnnotation@2@XZ 12002610 f i Win32PlatformUtils.obj
 0001:00001610       ?getSecond@ContentSpecNode@xercesc_2_5@@QBEPBV12@XZ 12002610 f i Win32PlatformUtils.obj
 0001:00001610       ?getFilter@DOMBuilderImpl@xercesc_2_5@@UAEPAVDOMBuilderFilter@2@XZ 12002610 f i Win32PlatformUtils.obj
 0001:00001610       ?getFilter@DOMBuilderImpl@xercesc_2_5@@UBEPBVDOMBuilderFilter@2@XZ 12002610 f i Win32PlatformUtils.obj
 0001:00001610       ?getConstraintType@XSAttributeUse@xercesc_2_5@@QBE?AW4VALUE_CONSTRAINT@XSConstants@2@XZ 12002610 f i Win32PlatformUtils.obj
 0001:00001610       ?getURI@DOMLocatorImpl@xercesc_2_5@@UBEPBGXZ 12002610 f i Win32PlatformUtils.obj
 0001:00001610       ?getPath@XMLURL@xercesc_2_5@@QBEPBGXZ 12002610 f i Win32PlatformUtils.obj
 0001:00001610       ?getFixed@DatatypeValidator@xercesc_2_5@@IBEHXZ 12002610 f i Win32PlatformUtils.obj
 0001:00001610       ?getAnnotationString@XSAnnotation@xercesc_2_5@@QBEPBGXZ 12002610 f i Win32PlatformUtils.obj
 0001:00001610       ?getValidatingMemberType@ValidationContextImpl@xercesc_2_5@@UBEPAVDatatypeValidator@2@XZ 12002610 f i Win32PlatformUtils.obj
 0001:00001610       ?getProcessContents@XSWildcard@xercesc_2_5@@QBE?AW4PROCESS_CONTENTS@12@XZ 12002610 f i Win32PlatformUtils.obj
 0001:00001620       ?getAnnotation@XSWildcard@xercesc_2_5@@QBEPAVXSAnnotation@2@XZ 12002620 f i Win32PlatformUtils.obj
 0001:00001620       ?getBaseGroup@XercesGroupInfo@xercesc_2_5@@QBEPAV12@XZ 12002620 f i Win32PlatformUtils.obj
 0001:00001620       ?getAnnotations@XSMultiValueFacet@xercesc_2_5@@QAEPAV?$RefVectorOf@VXSAnnotation@xercesc_2_5@@@2@XZ 12002620 f i Win32PlatformUtils.obj
 0001:00001620       ?getDefinedFacets@XSSimpleTypeDefinition@xercesc_2_5@@QBEHXZ 12002620 f i Win32PlatformUtils.obj
 0001:00001620       ?getEnumeration@XMLAttDef@xercesc_2_5@@QBEPBGXZ 12002620 f i Win32PlatformUtils.obj
 0001:00001620       ?getIdentityConstraint@XPathMatcher@xercesc_2_5@@QBEPAVIdentityConstraint@2@XZ 12002620 f i Win32PlatformUtils.obj
 0001:00001620       ?getAnnotation@XSFacet@xercesc_2_5@@QBEPAVXSAnnotation@2@XZ 12002620 f i Win32PlatformUtils.obj
 0001:00001620       ?getSystemId@XMLEntityDecl@xercesc_2_5@@QBEPBGXZ 12002620 f i Win32PlatformUtils.obj
 0001:00001620       ?getComplexTypeRegistry@SchemaGrammar@xercesc_2_5@@QBEPAV?$RefHashTableOf@VComplexTypeInfo@xercesc_2_5@@@2@XZ 12002620 f i Win32PlatformUtils.obj
 0001:00001620       ?getPSVIScope@SchemaElementDecl@xercesc_2_5@@QBE?AW4PSVIScope@PSVIDefs@2@XZ 12002620 f i Win32PlatformUtils.obj
 0001:00001620       ?getMemoryManager@XMLNotationDecl@xercesc_2_5@@QBEPAVMemoryManager@2@XZ 12002620 f i Win32PlatformUtils.obj
 0001:00001620       ?getValidationAttempted@PSVIItem@xercesc_2_5@@QBE?AW4ASSESSMENT_TYPE@12@XZ 12002620 f i Win32PlatformUtils.obj
 0001:00001620       ?getKey@IC_KeyRef@xercesc_2_5@@QBEPAVIdentityConstraint@2@XZ 12002620 f i Win32PlatformUtils.obj
 0001:00001620       ?getAnnotation@XSAttributeGroupDefinition@xercesc_2_5@@QBEPAVXSAnnotation@2@XZ 12002620 f i Win32PlatformUtils.obj
 0001:00001620       ?getTargetNSURIString@SchemaInfo@xercesc_2_5@@QBEQBGXZ 12002620 f i Win32PlatformUtils.obj
 0001:00001620       ?getAttrDeclaration@XSAttributeUse@xercesc_2_5@@QBEPAVXSAttributeDeclaration@2@XZ 12002620 f i Win32PlatformUtils.obj
 0001:00001620       ?getBaseValidator@DatatypeValidator@xercesc_2_5@@QBEPAV12@XZ 12002620 f i Win32PlatformUtils.obj
 0001:00001620       ?getQueryString@XMLUri@xercesc_2_5@@QBEPBGXZ 12002620 f i Win32PlatformUtils.obj
 0001:00001620       ?getElementId@ComplexTypeInfo@xercesc_2_5@@QBEIXZ 12002620 f i Win32PlatformUtils.obj
 0001:00001620       ?getProtocol@XMLURL@xercesc_2_5@@QBE?AW4Protocols@12@XZ 12002620 f i Win32PlatformUtils.obj
 0001:00001620       ?getMemoryManager@XMLBigDecimal@xercesc_2_5@@QBEPAVMemoryManager@2@XZ 12002620 f i Win32PlatformUtils.obj
 0001:00001630       ?getScope@XSAttributeDeclaration@xercesc_2_5@@QBE?AW4SCOPE@XSConstants@2@XZ 12002630 f i Win32PlatformUtils.obj
 0001:00001630       ?getGroupInfoRegistry@SchemaGrammar@xercesc_2_5@@QBEPAV?$RefHashTableOf@VXercesGroupInfo@xercesc_2_5@@@2@XZ 12002630 f i Win32PlatformUtils.obj
 0001:00001630       ?getFacets@DatatypeValidator@xercesc_2_5@@QBEPAV?$RefHashTableOf@VKVStringPair@xercesc_2_5@@@2@XZ 12002630 f i Win32PlatformUtils.obj
 0001:00001630       ?getAttributeWildcard@XSComplexTypeDefinition@xercesc_2_5@@QBEPAVXSWildcard@2@XZ 12002630 f i Win32PlatformUtils.obj
 0001:00001630       ?getLocator@XercesGroupInfo@xercesc_2_5@@QBEPAVXSDLocator@2@XZ 12002630 f i Win32PlatformUtils.obj
 0001:00001630       ?getContentType@ComplexTypeInfo@xercesc_2_5@@QBEHXZ 12002630 f i Win32PlatformUtils.obj
 0001:00001630       ?getTypeDefinition@XSElementDeclaration@xercesc_2_5@@QBEPAVXSTypeDefinition@2@XZ 12002630 f i Win32PlatformUtils.obj
 0001:00001630       ?getMemoryManager@XMLAttDef@xercesc_2_5@@QBEPAVMemoryManager@2@XZ 12002630 f i Win32PlatformUtils.obj
 0001:00001630       ?getQuery@XMLURL@xercesc_2_5@@QBEPBGXZ 12002630 f i Win32PlatformUtils.obj
 0001:00001630       ?getDatatypeValidator@SchemaElementDecl@xercesc_2_5@@QBEPAVDatatypeValidator@2@XZ 12002630 f i Win32PlatformUtils.obj
 0001:00001630       ?getRoot@SchemaInfo@xercesc_2_5@@QBEPBVDOMElement@2@XZ 12002630 f i Win32PlatformUtils.obj
 0001:00001630       ?getString@Context@RegularExpression@xercesc_2_5@@QBEPBGXZ 12002630 f i Win32PlatformUtils.obj
 0001:00001630       ?getBaseURI@XMLEntityDecl@xercesc_2_5@@QBEPBGXZ 12002630 f i Win32PlatformUtils.obj
 0001:00001630       ?getMinOccurs@ContentSpecNode@xercesc_2_5@@QBEHXZ 12002630 f i Win32PlatformUtils.obj
 0001:00001630       ?getContentSpec@DTDElementDecl@xercesc_2_5@@UBEPBVContentSpecNode@2@XZ 12002630 f i Win32PlatformUtils.obj
 0001:00001630       ?getFragment@XMLUri@xercesc_2_5@@QBEPBGXZ 12002630 f i Win32PlatformUtils.obj
 0001:00001630       ?getMemoryManager@XPathMatcher@xercesc_2_5@@QBEPAVMemoryManager@2@XZ 12002630 f i Win32PlatformUtils.obj
 0001:00001630       ?getEmptyNamespaceId@XMLScanner@xercesc_2_5@@QBEIXZ 12002630 f i Win32PlatformUtils.obj
 0001:00001630       ?getURI@QName@xercesc_2_5@@QBEIXZ 12002630 f i Win32PlatformUtils.obj
 0001:00001630       ?getFixedFacets@XSSimpleTypeDefinition@xercesc_2_5@@QBEHXZ 12002630 f i Win32PlatformUtils.obj
 0001:00001630       ?getContentSpec@DTDElementDecl@xercesc_2_5@@UAEPAVContentSpecNode@2@XZ 12002630 f i Win32PlatformUtils.obj
 0001:00001640       ?getTypeName@ComplexTypeInfo@xercesc_2_5@@QBEPAGXZ 12002640 f i Win32PlatformUtils.obj
 0001:00001640       ?getCurrentNode@AbstractDOMParser@xercesc_2_5@@IAEPAVDOMNode@2@XZ 12002640 f i Win32PlatformUtils.obj
 0001:00001640       ?getElemId@SchemaAttDef@xercesc_2_5@@QBEIXZ 12002640 f i Win32PlatformUtils.obj
 0001:00001640       ?getMemoryManager@XMLEntityDecl@xercesc_2_5@@QBEPAVMemoryManager@2@XZ 12002640 f i Win32PlatformUtils.obj
 0001:00001640       ?getEnclosingCTDefinition@XSElementDeclaration@xercesc_2_5@@QBEPAVXSComplexTypeDefinition@2@XZ 12002640 f i Win32PlatformUtils.obj
 0001:00001640       ?getUnknownNamespaceId@XMLScanner@xercesc_2_5@@QBEIXZ 12002640 f i Win32PlatformUtils.obj
 0001:00001640       ?getEnclosingCTDefinition@XSAttributeDeclaration@xercesc_2_5@@QAEPAVXSComplexTypeDefinition@2@XZ 12002640 f i Win32PlatformUtils.obj
 0001:00001640       ?getModelType@DTDElementDecl@xercesc_2_5@@QBE?AW4ModelTypes@12@XZ 12002640 f i Win32PlatformUtils.obj
 0001:00001640       ?getUser@XMLURL@xercesc_2_5@@QBEPBGXZ 12002640 f i Win32PlatformUtils.obj
 0001:00001640       ?getAttributeUses@XSComplexTypeDefinition@xercesc_2_5@@QAEPAV?$RefVectorOf@VXSAttributeUse@xercesc_2_5@@@2@XZ 12002640 f i Win32PlatformUtils.obj
 0001:00001640       ?getEntityResolver@DOMParser@xercesc_2_5@@QBEPBVEntityResolver@2@XZ 12002640 f i Win32PlatformUtils.obj
 0001:00001640       ?getAttGroupInfoRegistry@SchemaGrammar@xercesc_2_5@@QBEPAV?$RefHashTableOf@VXercesAttGroupInfo@xercesc_2_5@@@2@XZ 12002640 f i Win32PlatformUtils.obj
 0001:00001640       ?getValueStore@FieldMatcher@xercesc_2_5@@QBEPAVValueStore@2@XZ 12002640 f i Win32PlatformUtils.obj
 0001:00001640       ?getVariety@XSSimpleTypeDefinition@xercesc_2_5@@QBE?AW4VARIETY@12@XZ 12002640 f i Win32PlatformUtils.obj
 0001:00001640       ?getInitialDepth@SelectorMatcher@xercesc_2_5@@UBEHXZ 12002640 f i Win32PlatformUtils.obj
 0001:00001640       ?getElemId@DTDAttDef@xercesc_2_5@@QBEIXZ 12002640 f i Win32PlatformUtils.obj
 0001:00001640       ?getMemoryManager@XMLAbstractDoubleFloat@xercesc_2_5@@QBEPAVMemoryManager@2@XZ 12002640 f i Win32PlatformUtils.obj
 0001:00001640       ?getPattern@DatatypeValidator@xercesc_2_5@@IBEPBGXZ 12002640 f i Win32PlatformUtils.obj
 0001:00001640       ?getTypeDefinition@PSVIAttribute@xercesc_2_5@@UAEPAVXSTypeDefinition@2@XZ 12002640 f i Win32PlatformUtils.obj
 0001:00001640       ?getCharData@RegxParser@xercesc_2_5@@QBEHXZ 12002640 f i Win32PlatformUtils.obj
 0001:00001640       ?getGrammarsToAddToXSModel@GrammarResolver@xercesc_2_5@@QAEPAV?$ValueVectorOf@PAVSchemaGrammar@xercesc_2_5@@@2@XZ 12002640 f i Win32PlatformUtils.obj
 0001:00001640       ?getEnclosingScope@SchemaElementDecl@xercesc_2_5@@QBEHXZ 12002640 f i Win32PlatformUtils.obj
 0001:00001640       ?getEntityResolver@DOMParser@xercesc_2_5@@QAEPAVEntityResolver@2@XZ 12002640 f i Win32PlatformUtils.obj
 0001:00001640       ?getMaxOccurs@ContentSpecNode@xercesc_2_5@@QBEHXZ 12002640 f i Win32PlatformUtils.obj
 0001:00001650       ?getURLText@XMLURL@xercesc_2_5@@QBEPBGXZ 12002650 f i Win32PlatformUtils.obj
 0001:00001670       ??0MalformedURLException@xercesc_2_5@@QAE@QBDIW4Codes@XMLExcepts@1@PAVMemoryManager@1@@Z 12002670 f i Win32PlatformUtils.obj
 0001:000016e0       ??0MalformedURLException@xercesc_2_5@@QAE@ABV01@@Z 120026e0 f i Win32PlatformUtils.obj
 0001:00001700       ??0MalformedURLException@xercesc_2_5@@QAE@QBDIW4Codes@XMLExcepts@1@QBG222PAVMemoryManager@1@@Z 12002700 f i Win32PlatformUtils.obj
 0001:00001780       ??0MalformedURLException@xercesc_2_5@@QAE@QBDIW4Codes@XMLExcepts@1@0000PAVMemoryManager@1@@Z 12002780 f i Win32PlatformUtils.obj
 0001:00001800       ??1MalformedURLException@xercesc_2_5@@UAE@XZ 12002800 f i Win32PlatformUtils.obj
 0001:00001810       ?duplicate@MalformedURLException@xercesc_2_5@@UBEPAVXMLException@2@XZ 12002810 f i Win32PlatformUtils.obj
 0001:00001870       ?getType@MalformedURLException@xercesc_2_5@@UBEPBGXZ 12002870 f i Win32PlatformUtils.obj
 0001:00001880       ??_EMalformedURLException@xercesc_2_5@@UAEPAXI@Z 12002880 f i Win32PlatformUtils.obj
 0001:000018e0       ??1XMLNetAccessor@xercesc_2_5@@UAE@XZ 120028e0 f i Win32PlatformUtils.obj
 0001:000018f0       ??0XMLNetAccessor@xercesc_2_5@@IAE@XZ 120028f0 f i Win32PlatformUtils.obj
 0001:00001900       ??_EXMLNetAccessor@xercesc_2_5@@UAEPAXI@Z 12002900 f i Win32PlatformUtils.obj
 0001:00001960       ??0NetAccessorException@xercesc_2_5@@QAE@QBDIW4Codes@XMLExcepts@1@PAVMemoryManager@1@@Z 12002960 f i Win32PlatformUtils.obj
 0001:000019d0       ??0NetAccessorException@xercesc_2_5@@QAE@ABV01@@Z 120029d0 f i Win32PlatformUtils.obj
 0001:000019f0       ??0NetAccessorException@xercesc_2_5@@QAE@QBDIW4Codes@XMLExcepts@1@QBG222PAVMemoryManager@1@@Z 120029f0 f i Win32PlatformUtils.obj
 0001:00001a70       ??0NetAccessorException@xercesc_2_5@@QAE@QBDIW4Codes@XMLExcepts@1@0000PAVMemoryManager@1@@Z 12002a70 f i Win32PlatformUtils.obj
 0001:00001af0       ??1NetAccessorException@xercesc_2_5@@UAE@XZ 12002af0 f i Win32PlatformUtils.obj
 0001:00001b00       ?duplicate@NetAccessorException@xercesc_2_5@@UBEPAVXMLException@2@XZ 12002b00 f i Win32PlatformUtils.obj
 0001:00001b60       ?getType@NetAccessorException@xercesc_2_5@@UBEPBGXZ 12002b60 f i Win32PlatformUtils.obj
 0001:00001b70       ??_ENetAccessorException@xercesc_2_5@@UAEPAXI@Z 12002b70 f i Win32PlatformUtils.obj
 0001:00001bd0       ?getId@WinSockNetAccessor@xercesc_2_5@@UBEPBGXZ 12002bd0 f i Win32PlatformUtils.obj
 0001:00001be0       ?panic@XMLPlatformUtils@xercesc_2_5@@SAXW4PanicReasons@PanicHandler@2@@Z 12002be0 f   Win32PlatformUtils.obj
 0001:00001c00       ?curFilePos@XMLPlatformUtils@xercesc_2_5@@SAIPAXQAVMemoryManager@2@@Z 12002c00 f   Win32PlatformUtils.obj
 0001:00001c50       ?closeFile@XMLPlatformUtils@xercesc_2_5@@SAXPAXQAVMemoryManager@2@@Z 12002c50 f   Win32PlatformUtils.obj
 0001:00001c90       ?fileSize@XMLPlatformUtils@xercesc_2_5@@SAIPAXQAVMemoryManager@2@@Z 12002c90 f   Win32PlatformUtils.obj
 0001:00001d60       ?openFile@XMLPlatformUtils@xercesc_2_5@@SAPAXQBDQAVMemoryManager@2@@Z 12002d60 f   Win32PlatformUtils.obj
 0001:00001d90       ?openFile@XMLPlatformUtils@xercesc_2_5@@SAPAXQBGQAVMemoryManager@2@@Z 12002d90 f   Win32PlatformUtils.obj
 0001:00001f20       ?openFileToWrite@XMLPlatformUtils@xercesc_2_5@@SAPAXQBDQAVMemoryManager@2@@Z 12002f20 f   Win32PlatformUtils.obj
 0001:00001f50       ?openFileToWrite@XMLPlatformUtils@xercesc_2_5@@SAPAXQBGQAVMemoryManager@2@@Z 12002f50 f   Win32PlatformUtils.obj
 0001:00002070       ?openStdInHandle@XMLPlatformUtils@xercesc_2_5@@SAPAXQAVMemoryManager@2@@Z 12003070 f   Win32PlatformUtils.obj
 0001:00002140       ?readFileBuffer@XMLPlatformUtils@xercesc_2_5@@SAIPAXIQAEQAVMemoryManager@2@@Z 12003140 f   Win32PlatformUtils.obj
 0001:000021b0       ?writeBufferToFile@XMLPlatformUtils@xercesc_2_5@@SAXQAXJQBEQAVMemoryManager@2@@Z 120031b0 f   Win32PlatformUtils.obj
 0001:00002240       ?resetFile@XMLPlatformUtils@xercesc_2_5@@SAXPAXQAVMemoryManager@2@@Z 12003240 f   Win32PlatformUtils.obj
 0001:00002290       ?getFullPath@XMLPlatformUtils@xercesc_2_5@@SAPAGQBGQAVMemoryManager@2@@Z 12003290 f   Win32PlatformUtils.obj
 0001:00002490       ?isRelative@XMLPlatformUtils@xercesc_2_5@@SA_NQBGQAVMemoryManager@2@@Z 12003490 f   Win32PlatformUtils.obj
 0001:000024f0       ?getCurrentDirectory@XMLPlatformUtils@xercesc_2_5@@SAPAGQAVMemoryManager@2@@Z 120034f0 f   Win32PlatformUtils.obj
 0001:000025e0       ?isAnySlash@XMLPlatformUtils@xercesc_2_5@@SA_NG@Z 120035e0 f i Win32PlatformUtils.obj
 0001:00002610       ?getCurrentMillis@XMLPlatformUtils@xercesc_2_5@@SAKXZ 12003610 f   Win32PlatformUtils.obj
 0001:00002620       ?closeMutex@XMLPlatformUtils@xercesc_2_5@@SAXQAX@Z 12003620 f   Win32PlatformUtils.obj
 0001:00002640       ?lockMutex@XMLPlatformUtils@xercesc_2_5@@SAXQAX@Z 12003640 f   Win32PlatformUtils.obj
 0001:00002650       ?makeMutex@XMLPlatformUtils@xercesc_2_5@@SAPAXXZ 12003650 f   Win32PlatformUtils.obj
 0001:00002670       ?unlockMutex@XMLPlatformUtils@xercesc_2_5@@SAXQAX@Z 12003670 f   Win32PlatformUtils.obj
 0001:00002680       ?compareAndSwap@XMLPlatformUtils@xercesc_2_5@@SAPAXPAPAXQBX1@Z 12003680 f   Win32PlatformUtils.obj
 0001:000026a0       ?atomicIncrement@XMLPlatformUtils@xercesc_2_5@@SAHAAH@Z 120036a0 f   Win32PlatformUtils.obj
 0001:000026b0       ?atomicDecrement@XMLPlatformUtils@xercesc_2_5@@SAHAAH@Z 120036b0 f   Win32PlatformUtils.obj
 0001:000026c0       ?makeNetAccessor@XMLPlatformUtils@xercesc_2_5@@CAPAVXMLNetAccessor@2@XZ 120036c0 f   Win32PlatformUtils.obj
 0001:00002720       ?loadAMsgSet@XMLPlatformUtils@xercesc_2_5@@CAPAVXMLMsgLoader@2@QBG@Z 12003720 f   Win32PlatformUtils.obj
 0001:00002780       ?makeTransService@XMLPlatformUtils@xercesc_2_5@@CAPAVXMLTransService@2@XZ 12003780 f   Win32PlatformUtils.obj
 0001:000027e0       ?platformInit@XMLPlatformUtils@xercesc_2_5@@CAXXZ 120037e0 f   Win32PlatformUtils.obj
 0001:00002810       ?weavePaths@XMLPlatformUtils@xercesc_2_5@@SAPAGQBG0QAVMemoryManager@2@@Z 12003810 f   Win32PlatformUtils.obj
 0001:00002930       ?removeDotSlash@XMLPlatformUtils@xercesc_2_5@@SAXQAGQAVMemoryManager@2@@Z 12003930 f   Win32PlatformUtils.obj
 0001:00002a70       ?removeDotDotSlash@XMLPlatformUtils@xercesc_2_5@@SAXQAGQAVMemoryManager@2@@Z 12003a70 f   Win32PlatformUtils.obj
 0001:00002d00       ?searchSlashDotDotSlash@XMLPlatformUtils@xercesc_2_5@@CAHQAG@Z 12003d00 f   Win32PlatformUtils.obj
 0001:00002db0       ??1?$ArrayJanitor@H@xercesc_2_5@@QAE@XZ 12003db0 f i Win32PlatformUtils.obj
 0001:00002db0       ??1?$ArrayJanitor@G@xercesc_2_5@@QAE@XZ 12003db0 f i Win32PlatformUtils.obj
 0001:00002db0       ??1?$ArrayJanitor@D@xercesc_2_5@@QAE@XZ 12003db0 f i Win32PlatformUtils.obj
 0001:00002db0       ??1?$ArrayJanitor@_N@xercesc_2_5@@QAE@XZ 12003db0 f i Win32PlatformUtils.obj
 0001:00002db0       ??1?$ArrayJanitor@E@xercesc_2_5@@QAE@XZ 12003db0 f i Win32PlatformUtils.obj
 0001:00002df0       _DllMain@12                12003df0 f   Win32MsgLoader.obj
 0001:00002e10       ??0Win32MsgLoader@xercesc_2_5@@QAE@QBG@Z 12003e10 f   Win32MsgLoader.obj
 0001:00003030       ??_EWin32MsgLoader@xercesc_2_5@@UAEPAXI@Z 12004030 f i Win32MsgLoader.obj
 0001:00003090       ??1Win32MsgLoader@xercesc_2_5@@UAE@XZ 12004090 f   Win32MsgLoader.obj
 0001:000030e0       ?loadMsg@Win32MsgLoader@xercesc_2_5@@UAE_NIQAGI@Z 120040e0 f   Win32MsgLoader.obj
 0001:00003190       ?loadMsg@Win32MsgLoader@xercesc_2_5@@UAE_NIQAGIQBG111QAVMemoryManager@2@@Z 12004190 f   Win32MsgLoader.obj
 0001:000031e0       ?loadMsg@Win32MsgLoader@xercesc_2_5@@UAE_NIQAGIQBD111QAVMemoryManager@2@@Z 120041e0 f   Win32MsgLoader.obj
 0001:000032c0       ??0TranscodingException@xercesc_2_5@@QAE@QBDIW4Codes@XMLExcepts@1@PAVMemoryManager@1@@Z 120042c0 f i Win32TransService.obj
 0001:00003330       ??0TranscodingException@xercesc_2_5@@QAE@ABV01@@Z 12004330 f i Win32TransService.obj
 0001:00003350       ??0TranscodingException@xercesc_2_5@@QAE@QBDIW4Codes@XMLExcepts@1@QBG222PAVMemoryManager@1@@Z 12004350 f i Win32TransService.obj
 0001:000033d0       ??0TranscodingException@xercesc_2_5@@QAE@QBDIW4Codes@XMLExcepts@1@0000PAVMemoryManager@1@@Z 120043d0 f i Win32TransService.obj
 0001:00003450       ??1TranscodingException@xercesc_2_5@@UAE@XZ 12004450 f i Win32TransService.obj
 0001:00003460       ?duplicate@TranscodingException@xercesc_2_5@@UBEPAVXMLException@2@XZ 12004460 f i Win32TransService.obj
 0001:000034c0       ?getType@TranscodingException@xercesc_2_5@@UBEPBGXZ 120044c0 f i Win32TransService.obj
 0001:000034d0       ??_ETranscodingException@xercesc_2_5@@UAEPAXI@Z 120044d0 f i Win32TransService.obj
 0001:00003530       ??0Win32TransService@xercesc_2_5@@QAE@XZ 12004530 f   Win32TransService.obj
 0001:00003cd0       ??_EWin32TransService@xercesc_2_5@@UAEPAXI@Z 12004cd0 f i Win32TransService.obj
 0001:00003d30       ??1Win32TransService@xercesc_2_5@@UAE@XZ 12004d30 f   Win32TransService.obj
 0001:00003e30       ?compareIString@Win32TransService@xercesc_2_5@@UAEHQBG0@Z 12004e30 f   Win32TransService.obj
 0001:00003e50       ?compareNIString@Win32TransService@xercesc_2_5@@UAEHQBG0I@Z 12004e50 f   Win32TransService.obj
 0001:00003e70       ?getId@Win32TransService@xercesc_2_5@@UBEPBGXZ 12004e70 f   Win32TransService.obj
 0001:00003e80       ?isSpace@Win32TransService@xercesc_2_5@@UBE_NG@Z 12004e80 f   Win32TransService.obj
 0001:00003ea0       ?makeNewLCPTranscoder@Win32TransService@xercesc_2_5@@UAEPAVXMLLCPTranscoder@2@XZ 12004ea0 f   Win32TransService.obj
 0001:00003ef0       ?upperCase@Win32TransService@xercesc_2_5@@UBEXQAG@Z 12004ef0 f   Win32TransService.obj
 0001:00003f00       ?lowerCase@Win32TransService@xercesc_2_5@@UBEXQAG@Z 12004f00 f   Win32TransService.obj
 0001:00003f10       ?isAlias@Win32TransService@xercesc_2_5@@CA_NQAUHKEY__@@QADI@Z 12004f10 f   Win32TransService.obj
 0001:00003f40       ?makeNewXMLTranscoder@Win32TransService@xercesc_2_5@@MAEPAVXMLTranscoder@2@QBGAAW4Codes@XMLTransService@2@IQAVMemoryManager@2@@Z 12004f40 f   Win32TransService.obj
 0001:000040a0       ??0Win32Transcoder@xercesc_2_5@@QAE@QBGIIIQAVMemoryManager@1@@Z 120050a0 f   Win32TransService.obj
 0001:000040e0       ??_EWin32Transcoder@xercesc_2_5@@UAEPAXI@Z 120050e0 f i Win32TransService.obj
 0001:00004140       ??1Win32Transcoder@xercesc_2_5@@UAE@XZ 12005140 f   Win32TransService.obj
 0001:00004150       ?transcodeFrom@Win32Transcoder@xercesc_2_5@@UAEIQBEIQAGIAAIQAE@Z 12005150 f   Win32TransService.obj
 0001:00004280       ?transcodeTo@Win32Transcoder@xercesc_2_5@@UAEIQBGIQAEIAAIW4UnRepOpts@XMLTranscoder@2@@Z 12005280 f   Win32TransService.obj
 0001:00004360       ?canTranscodeTo@Win32Transcoder@xercesc_2_5@@UBE_NI@Z 12005360 f   Win32TransService.obj
 0001:000043e0       ??0Win32LCPTranscoder@xercesc_2_5@@QAE@XZ 120053e0 f   Win32TransService.obj
 0001:00004400       ??_EWin32LCPTranscoder@xercesc_2_5@@UAEPAXI@Z 12005400 f i Win32TransService.obj
 0001:00004460       ??1Win32LCPTranscoder@xercesc_2_5@@UAE@XZ 12005460 f   Win32TransService.obj
 0001:00004470       ?calcRequiredSize@Win32LCPTranscoder@xercesc_2_5@@UAEIQBDQAVMemoryManager@2@@Z 12005470 f   Win32TransService.obj
 0001:00004490       ?calcRequiredSize@Win32LCPTranscoder@xercesc_2_5@@UAEIQBGQAVMemoryManager@2@@Z 12005490 f   Win32TransService.obj
 0001:000044c0       ?transcode@Win32LCPTranscoder@xercesc_2_5@@UAEPADQBG@Z 120054c0 f   Win32TransService.obj
 0001:00004530       ?transcode@Win32LCPTranscoder@xercesc_2_5@@UAEPADQBGQAVMemoryManager@2@@Z 12005530 f   Win32TransService.obj
 0001:000045a0       ?transcode@Win32LCPTranscoder@xercesc_2_5@@UAEPAGQBD@Z 120055a0 f   Win32TransService.obj
 0001:00004630       ?transcode@Win32LCPTranscoder@xercesc_2_5@@UAEPAGQBDQAVMemoryManager@2@@Z 12005630 f   Win32TransService.obj
 0001:000046c0       ?transcode@Win32LCPTranscoder@xercesc_2_5@@UAE_NQBDQAGIQAVMemoryManager@2@@Z 120056c0 f   Win32TransService.obj
 0001:00004710       ?transcode@Win32LCPTranscoder@xercesc_2_5@@UAE_NQBGQADIQAVMemoryManager@2@@Z 12005710 f   Win32TransService.obj
 0001:00004780       ??_GCPMapEntry@xercesc_2_5@@QAEPAXI@Z 12005780 f i Win32TransService.obj
 0001:000047b0       ?Initialize@BinHTTPURLInputStream@xercesc_2_5@@CAXQAVMemoryManager@2@@Z 120057b0 f   BinHTTPURLInputStream.obj
 0001:00004a50       ?Cleanup@BinHTTPURLInputStream@xercesc_2_5@@SAXXZ 12005a50 f   BinHTTPURLInputStream.obj
 0001:00004af0       ?gethostbyname@BinHTTPURLInputStream@xercesc_2_5@@CAPAUhostent@@PBD@Z 12005af0 f i BinHTTPURLInputStream.obj
 0001:00004b00       ?inet_addr@BinHTTPURLInputStream@xercesc_2_5@@CAKPBD@Z 12005b00 f i BinHTTPURLInputStream.obj
 0001:00004b10       ?gethostbyaddr@BinHTTPURLInputStream@xercesc_2_5@@CAPAUhostent@@PBDHH@Z 12005b10 f i BinHTTPURLInputStream.obj
 0001:00004b30       ?htons@BinHTTPURLInputStream@xercesc_2_5@@CAGG@Z 12005b30 f i BinHTTPURLInputStream.obj
 0001:00004b40       ?socket@BinHTTPURLInputStream@xercesc_2_5@@CAGHHH@Z 12005b40 f i BinHTTPURLInputStream.obj
 0001:00004b60       ?connect@BinHTTPURLInputStream@xercesc_2_5@@CAHGPBUsockaddr@@H@Z 12005b60 f i BinHTTPURLInputStream.obj
 0001:00004b80       ?send@BinHTTPURLInputStream@xercesc_2_5@@CAHGPBDHH@Z 12005b80 f i BinHTTPURLInputStream.obj
 0001:00004ba0       ?recv@BinHTTPURLInputStream@xercesc_2_5@@CAHGPADHH@Z 12005ba0 f i BinHTTPURLInputStream.obj
 0001:00004bc0       ?shutdown@BinHTTPURLInputStream@xercesc_2_5@@CAHIH@Z 12005bc0 f i BinHTTPURLInputStream.obj
 0001:00004be0       ?closesocket@BinHTTPURLInputStream@xercesc_2_5@@CAHI@Z 12005be0 f i BinHTTPURLInputStream.obj
 0001:00004bf0       ??0BinHTTPURLInputStream@xercesc_2_5@@QAE@ABVXMLURL@1@@Z 12005bf0 f   BinHTTPURLInputStream.obj
 0001:00005630       ??_EBinHTTPURLInputStream@xercesc_2_5@@UAEPAXI@Z 12006630 f i BinHTTPURLInputStream.obj
 0001:00005690       ??1BinHTTPURLInputStream@xercesc_2_5@@UAE@XZ 12006690 f   BinHTTPURLInputStream.obj
 0001:000056f0       ?readBytes@BinHTTPURLInputStream@xercesc_2_5@@UAEIQAEI@Z 120066f0 f   BinHTTPURLInputStream.obj
 0001:00005790       ??0WinSockNetAccessor@xercesc_2_5@@QAE@XZ 12006790 f   WinSockNetAccessor.obj
 0001:000057a0       ??_EWinSockNetAccessor@xercesc_2_5@@UAEPAXI@Z 120067a0 f i WinSockNetAccessor.obj
 0001:00005800       ??1WinSockNetAccessor@xercesc_2_5@@UAE@XZ 12006800 f   WinSockNetAccessor.obj
 0001:00005850       ?makeNew@WinSockNetAccessor@xercesc_2_5@@UAEPAVBinInputStream@2@ABVXMLURL@2@@Z 12006850 f   WinSockNetAccessor.obj
 0001:00005910       ?getTokenType@Token@xercesc_2_5@@QBEGXZ 12006910 f i ASCIIRangeFactory.obj
 0001:00005910       ?getType@XercesNodeTest@xercesc_2_5@@QBEFXZ 12006910 f i ASCIIRangeFactory.obj
 0001:00005910       ?getAxisType@XercesStep@xercesc_2_5@@QBEGXZ 12006910 f i ASCIIRangeFactory.obj
 0001:00005920       ?getDOMTypeInfoUri@DTDElementDecl@xercesc_2_5@@UBEPBGXZ 12006920 f i ASCIIRangeFactory.obj
 0001:00005920       ?getContentLeafNameTypeVector@MixedContentModel@xercesc_2_5@@UBEPAVContentLeafNameTypeVector@2@XZ 12006920 f i ASCIIRangeFactory.obj
 0001:00005920       ?getRelatedException@DOMErrorImpl@xercesc_2_5@@UBEPAXXZ 12006920 f i ASCIIRangeFactory.obj
 0001:00005920       ?getBaseURI@Wrapper4InputSource@xercesc_2_5@@UBEPBGXZ 12006920 f i ASCIIRangeFactory.obj
 0001:00005920       ?getEnclosingCT@SchemaAttDef@xercesc_2_5@@QBEPAVComplexTypeInfo@2@XZ 12006920 f i ASCIIRangeFactory.obj
 0001:00005920       ?getContentLeafNameTypeVector@AllContentModel@xercesc_2_5@@UBEPAVContentLeafNameTypeVector@2@XZ 12006920 f i ASCIIRangeFactory.obj
 0001:00005920       ?getReferenceNo@Token@xercesc_2_5@@UBEHXZ 12006920 f i ASCIIRangeFactory.obj
 0001:00005920       ?getDOMTypeInfoName@DTDElementDecl@xercesc_2_5@@UBEPBGXZ 12006920 f i ASCIIRangeFactory.obj
 0001:00005920       ?getGrammarType@DTDGrammar@xercesc_2_5@@UBE?AW4GrammarType@Grammar@2@XZ 12006920 f i ASCIIRangeFactory.obj
 0001:00005920       ?getString@Token@xercesc_2_5@@UBEPBGXZ 12006920 f i ASCIIRangeFactory.obj
 0001:00005920       ?getSrcLine@OutOfMemoryException@xercesc_2_5@@QBEIXZ 12006920 f i ASCIIRangeFactory.obj
 0001:00005920       ?getDOMTypeInfoUri@DTDAttDef@xercesc_2_5@@UBEPBGXZ 12006920 f i ASCIIRangeFactory.obj
 0001:00005920       ?getNoParen@Token@xercesc_2_5@@UBEHXZ 12006920 f i ASCIIRangeFactory.obj
 0001:00005920       ?size@Token@xercesc_2_5@@UBEHXZ 12006920 f i ASCIIRangeFactory.obj
 0001:00005920       ?getGrammarType@XMLDTDDescription@xercesc_2_5@@UBE?AW4GrammarType@Grammar@2@XZ 12006920 f i ASCIIRangeFactory.obj
 0001:00005930       ?getChild@Token@xercesc_2_5@@UBEPAV12@H@Z 12006930 f i ASCIIRangeFactory.obj
 0001:00005940       ?getMin@Token@xercesc_2_5@@UBEHXZ 12006940 f i ASCIIRangeFactory.obj
 0001:00005940       ?getChar@Token@xercesc_2_5@@UBEHXZ 12006940 f i ASCIIRangeFactory.obj
 0001:00005940       ?getMax@Token@xercesc_2_5@@UBEHXZ 12006940 f i ASCIIRangeFactory.obj
 0001:00005950       ?setTokenType@Token@xercesc_2_5@@QAEXG@Z 12006950 f i ASCIIRangeFactory.obj
 0001:00005960       ?addChild@Token@xercesc_2_5@@UAEXQAV12@QAVTokenFactory@2@@Z 12006960 f i ASCIIRangeFactory.obj
 0001:00005990       ?addRange@Token@xercesc_2_5@@UAEXHH@Z 12006990 f i ASCIIRangeFactory.obj
 0001:000059c0       ?mergeRanges@Token@xercesc_2_5@@UAEXQBV12@@Z 120069c0 f i ASCIIRangeFactory.obj
 0001:000059f0       ?sortRanges@Token@xercesc_2_5@@UAEXXZ 120069f0 f i ASCIIRangeFactory.obj
 0001:00005a20       ?compactRanges@Token@xercesc_2_5@@UAEXXZ 12006a20 f i ASCIIRangeFactory.obj
 0001:00005a50       ?subtractRanges@Token@xercesc_2_5@@UAEXQAVRangeToken@2@@Z 12006a50 f i ASCIIRangeFactory.obj
 0001:00005a80       ?intersectRanges@Token@xercesc_2_5@@UAEXQAVRangeToken@2@@Z 12006a80 f i ASCIIRangeFactory.obj
 0001:00005ab0       ??_FTokenFactory@xercesc_2_5@@QAEXXZ 12006ab0 f i ASCIIRangeFactory.obj
 0001:00005ac0       ?getEntityResolver@SAXParser@xercesc_2_5@@QAEPAVEntityResolver@2@XZ 12006ac0 f i ASCIIRangeFactory.obj
 0001:00005ac0       ?getGrammarResolver@AbstractDOMParser@xercesc_2_5@@IBEPAVGrammarResolver@2@XZ 12006ac0 f i ASCIIRangeFactory.obj
 0001:00005ac0       ?getEntityResolver@SAXParser@xercesc_2_5@@QBEPBVEntityResolver@2@XZ 12006ac0 f i ASCIIRangeFactory.obj
 0001:00005ac0       ?getRecursingTypeNames@SchemaInfo@xercesc_2_5@@QBEPAV?$ValueVectorOf@PBG@2@XZ 12006ac0 f i ASCIIRangeFactory.obj
 0001:00005ac0       ?getValidity@SchemaAttDef@xercesc_2_5@@QBE?AW4Validity@PSVIDefs@2@XZ 12006ac0 f i ASCIIRangeFactory.obj
 0001:00005ac0       ?getContentHandler@SAX2XMLReaderImpl@xercesc_2_5@@UBEPAVContentHandler@2@XZ 12006ac0 f i ASCIIRangeFactory.obj
 0001:00005ac0       ?getMemoryManager@TokenFactory@xercesc_2_5@@QBEPAVMemoryManager@2@XZ 12006ac0 f i ASCIIRangeFactory.obj
 0001:00005ac0       ?getContentSpec@ComplexTypeInfo@xercesc_2_5@@QBEPAVContentSpecNode@2@XZ 12006ac0 f i ASCIIRangeFactory.obj
 0001:00005ac0       ?getMemberTypes@XSSimpleTypeDefinition@xercesc_2_5@@QBEPAV?$RefVectorOf@VXSSimpleTypeDefinition@xercesc_2_5@@@2@XZ 12006ac0 f i ASCIIRangeFactory.obj
 0001:00005ad0       ?getSign@XMLBigInteger@xercesc_2_5@@QBEHXZ 12006ad0 f i ASCIIRangeFactory.obj
 0001:00005ad0       ?getEntity@EndOfEntityException@xercesc_2_5@@QAEAAVXMLEntityDecl@2@XZ 12006ad0 f i ASCIIRangeFactory.obj
 0001:00005ad0       ?intValue@XMLInteger@xercesc_2_5@@QBEHXZ 12006ad0 f i ASCIIRangeFactory.obj
 0001:00005ad0       ?getGroup@XMLCanRepGroup@xercesc_2_5@@QBE?AW4CanRepGroup@12@XZ 12006ad0 f i ASCIIRangeFactory.obj
 0001:00005ad0       ?getCategoryId@RangeTokenElemMap@xercesc_2_5@@QBEIXZ 12006ad0 f i ASCIIRangeFactory.obj
 0001:00005ad0       ?getResourceIdentifierType@XMLResourceIdentifier@xercesc_2_5@@QBE?AW4ResourceIdentifierType@12@XZ 12006ad0 f i ASCIIRangeFactory.obj
 0001:00005ad0       ?getMatcherCount@XPathMatcherStack@xercesc_2_5@@QBEIXZ 12006ad0 f i ASCIIRangeFactory.obj
 0001:00005ad0       ?getEntity@EndOfEntityException@xercesc_2_5@@QBEABVXMLEntityDecl@2@XZ 12006ad0 f i ASCIIRangeFactory.obj
 0001:00005ae0       ?getRangeToken@RangeTokenElemMap@xercesc_2_5@@QBEPAVRangeToken@2@_N@Z 12006ae0 f i ASCIIRangeFactory.obj
 0001:00005b00       ?setEscapeFlags@XMLFormatter@xercesc_2_5@@QAEXW4EscapeFlags@12@@Z 12006b00 f i ASCIIRangeFactory.obj
 0001:00005b00       ?setSign@XMLBigInteger@xercesc_2_5@@AAEXH@Z 12006b00 f i ASCIIRangeFactory.obj
 0001:00005b00       ?setValueStoreCache@FieldActivator@xercesc_2_5@@QAEXQAVValueStoreCache@2@@Z 12006b00 f i ASCIIRangeFactory.obj
 0001:00005b00       ?setCategoryId@RangeTokenElemMap@xercesc_2_5@@QAEXI@Z 12006b00 f i ASCIIRangeFactory.obj
 0001:00005b10       ?setRangeToken@RangeTokenElemMap@xercesc_2_5@@QAEXQAVRangeToken@2@_N@Z 12006b10 f i ASCIIRangeFactory.obj
 0001:00005b30       ??0ASCIIRangeFactory@xercesc_2_5@@QAE@XZ 12006b30 f   ASCIIRangeFactory.obj
 0001:00005b50       ??_EASCIIRangeFactory@xercesc_2_5@@UAEPAXI@Z 12006b50 f i ASCIIRangeFactory.obj
 0001:00005bb0       ??1ASCIIRangeFactory@xercesc_2_5@@UAE@XZ 12006bb0 f   ASCIIRangeFactory.obj
 0001:00005bc0       ?buildRanges@ASCIIRangeFactory@xercesc_2_5@@MAEXXZ 12006bc0 f   ASCIIRangeFactory.obj
 0001:00005d10       ?initializeKeywordMap@ASCIIRangeFactory@xercesc_2_5@@UAEXXZ 12006d10 f   ASCIIRangeFactory.obj
 0001:00005d80       ??0BlockRangeFactory@xercesc_2_5@@QAE@XZ 12006d80 f   BlockRangeFactory.obj
 0001:00005da0       ??_EBlockRangeFactory@xercesc_2_5@@UAEPAXI@Z 12006da0 f i BlockRangeFactory.obj
 0001:00005e00       ??1BlockRangeFactory@xercesc_2_5@@UAE@XZ 12006e00 f   BlockRangeFactory.obj
 0001:00005e10       ?buildRanges@BlockRangeFactory@xercesc_2_5@@MAEXXZ 12006e10 f   BlockRangeFactory.obj
 0001:00005fb0       ?initializeKeywordMap@BlockRangeFactory@xercesc_2_5@@UAEXXZ 12006fb0 f   BlockRangeFactory.obj
 0001:00005ff0       ??0XMemory@xercesc_2_5@@IAE@XZ 12006ff0 f i BMPattern.obj
 0001:00005ff0       ??0OutOfMemoryException@xercesc_2_5@@QAE@XZ 12006ff0 f i BMPattern.obj
 0001:00005ff0       ??0XUtil@xercesc_2_5@@AAE@XZ 12006ff0 f i BMPattern.obj
 0001:00006000       ??0XMemory@xercesc_2_5@@IAE@ABV01@@Z 12007000 f i BMPattern.obj
 0001:00006000       ??0OutOfMemoryException@xercesc_2_5@@QAE@ABV01@@Z 12007000 f i BMPattern.obj
 0001:00006000       ??4OutOfMemoryException@xercesc_2_5@@QAEAAV01@ABV01@@Z 12007000 f i BMPattern.obj
 0001:00006010       ?getCode@OutOfMemoryException@xercesc_2_5@@QBE?AW4Codes@XMLExcepts@2@XZ 12007010 f i BMPattern.obj
 0001:00006020       ?getMessage@OutOfMemoryException@xercesc_2_5@@QBEPBGXZ 12007020 f i BMPattern.obj
 0001:00006030       ?getType@OutOfMemoryException@xercesc_2_5@@QBEPBGXZ 12007030 f i BMPattern.obj
 0001:00006040       ?getSrcFile@OutOfMemoryException@xercesc_2_5@@QBEPBDXZ 12007040 f i BMPattern.obj
 0001:00006050       ??0BMPattern@xercesc_2_5@@QAE@QBG_NQAVMemoryManager@1@@Z 12007050 f   BMPattern.obj
 0001:00006130       ??0BMPattern@xercesc_2_5@@QAE@QBGH_NQAVMemoryManager@1@@Z 12007130 f   BMPattern.obj
 0001:00006210       ??1BMPattern@xercesc_2_5@@QAE@XZ 12007210 f   BMPattern.obj
 0001:00006210       ?cleanUp@BMPattern@xercesc_2_5@@AAEXXZ 12007210 f   BMPattern.obj
 0001:00006240       ?matches@BMPattern@xercesc_2_5@@QAEHQBGHH@Z 12007240 f   BMPattern.obj
 0001:00006410       ?initialize@BMPattern@xercesc_2_5@@AAEXXZ 12007410 f   BMPattern.obj
 0001:000065c0       ?match@CharToken@xercesc_2_5@@QAE_NH@Z 120075c0 f i CharToken.obj
 0001:000065e0       ??0CharToken@xercesc_2_5@@QAE@GHQAVMemoryManager@1@@Z 120075e0 f   CharToken.obj
 0001:00006610       ??_ECharToken@xercesc_2_5@@UAEPAXI@Z 12007610 f i CharToken.obj
 0001:00006670       ??1CharToken@xercesc_2_5@@UAE@XZ 12007670 f   CharToken.obj
 0001:00006680       ?getTypeType@SchemaAttDef@xercesc_2_5@@QBE?AW4Complexity@PSVIDefs@2@XZ 12007680 f i ClosureToken.obj
 0001:00006680       ?getGrammarType@XMLSchemaDescription@xercesc_2_5@@UBE?AW4GrammarType@Grammar@2@XZ 12007680 f i ClosureToken.obj
 0001:00006680       ?getGrammarType@SchemaGrammar@xercesc_2_5@@UBE?AW4GrammarType@Grammar@2@XZ 12007680 f i ClosureToken.obj
 0001:00006680       ?size@ModifierToken@xercesc_2_5@@UBEHXZ 12007680 f i ClosureToken.obj
 0001:00006680       ?size@ClosureToken@xercesc_2_5@@UBEHXZ 12007680 f i ClosureToken.obj
 0001:00006680       ?size@ParenToken@xercesc_2_5@@UBEHXZ 12007680 f i ClosureToken.obj
 0001:00006690       ?getChild@ModifierToken@xercesc_2_5@@UBEPAVToken@2@H@Z 12007690 f i ClosureToken.obj
 0001:00006690       ?getChild@ClosureToken@xercesc_2_5@@UBEPAVToken@2@H@Z 12007690 f i ClosureToken.obj
 0001:000066a0       ?setId@XMLElementDecl@xercesc_2_5@@QAEXI@Z 120076a0 f i ClosureToken.obj
 0001:000066a0       ?setScanner@ValueStoreCache@xercesc_2_5@@QAEXQAVXMLScanner@2@@Z 120076a0 f i ClosureToken.obj
 0001:000066a0       ?setBlockSet@ComplexTypeInfo@xercesc_2_5@@QAEXH@Z 120076a0 f i ClosureToken.obj
 0001:000066a0       ?setType@DOMErrorImpl@xercesc_2_5@@UAEXPBG@Z 120076a0 f i ClosureToken.obj
 0001:000066a0       ?setMax@ClosureToken@xercesc_2_5@@UAEXH@Z 120076a0 f i ClosureToken.obj
 0001:000066a0       ?setScopeCount@SchemaInfo@xercesc_2_5@@QAEXH@Z 120076a0 f i ClosureToken.obj
 0001:000066a0       ?setErrorNode@DOMLocatorImpl@xercesc_2_5@@UAEXQAVDOMNode@2@@Z 120076a0 f i ClosureToken.obj
 0001:000066b0       ?setCreateReason@XMLElementDecl@xercesc_2_5@@QAEXW4CreateReasons@12@@Z 120076b0 f i ClosureToken.obj
 0001:000066b0       ?setMin@ClosureToken@xercesc_2_5@@UAEXH@Z 120076b0 f i ClosureToken.obj
 0001:000066b0       ?setOffset@DOMLocatorImpl@xercesc_2_5@@UAEXJ@Z 120076b0 f i ClosureToken.obj
 0001:000066b0       ?setCreateReason@XMLAttDef@xercesc_2_5@@QAEXW4CreateReasons@12@@Z 120076b0 f i ClosureToken.obj
 0001:000066b0       ?setUnRepFlags@XMLFormatter@xercesc_2_5@@QAEXW4UnRepFlags@12@@Z 120076b0 f i ClosureToken.obj
 0001:000066b0       ?setNextOp@Op@xercesc_2_5@@QAEXQBV12@@Z 120076b0 f i ClosureToken.obj
 0001:000066b0       ?setDerivedBy@ComplexTypeInfo@xercesc_2_5@@QAEXH@Z 120076b0 f i ClosureToken.obj
 0001:000066b0       ?setDocTypeHandler@DTDScanner@xercesc_2_5@@QAEXQAVDocTypeHandler@2@@Z 120076b0 f i ClosureToken.obj
 0001:000066b0       ?setEntityHandler@ReaderMgr@xercesc_2_5@@QAEXQAVXMLEntityHandler@2@@Z 120076b0 f i ClosureToken.obj
 0001:000066c0       ??0ClosureToken@xercesc_2_5@@QAE@GQAVToken@1@QAVMemoryManager@1@@Z 120076c0 f   ClosureToken.obj
 0001:000066f0       ??_EClosureToken@xercesc_2_5@@UAEPAXI@Z 120076f0 f i ClosureToken.obj
 0001:00006750       ??1ClosureToken@xercesc_2_5@@UAE@XZ 12007750 f   ClosureToken.obj
 0001:00006760       ?size@ConcatToken@xercesc_2_5@@UBEHXZ 12007760 f i ConcatToken.obj
 0001:00006770       ?getChild@ConcatToken@xercesc_2_5@@UBEPAVToken@2@H@Z 12007770 f i ConcatToken.obj
 0001:00006790       ??0ConcatToken@xercesc_2_5@@QAE@QAVToken@1@0QAVMemoryManager@1@@Z 12007790 f   ConcatToken.obj
 0001:000067c0       ??_EConcatToken@xercesc_2_5@@UAEPAXI@Z 120077c0 f i ConcatToken.obj
 0001:00006820       ??1ConcatToken@xercesc_2_5@@UAE@XZ 12007820 f   ConcatToken.obj
 0001:00006830       ?size@ConditionToken@xercesc_2_5@@UBEHXZ 12007830 f i ConditionToken.obj
 0001:00006840       ?getChild@ConditionToken@xercesc_2_5@@UBEPAVToken@2@H@Z 12007840 f i ConditionToken.obj
 0001:00006890       ??0ConditionToken@xercesc_2_5@@QAE@IQAVToken@1@00QAVMemoryManager@1@@Z 12007890 f   ConditionToken.obj
 0001:000068d0       ??_EConditionToken@xercesc_2_5@@UAEPAXI@Z 120078d0 f i ConditionToken.obj
 0001:00006930       ??1ConditionToken@xercesc_2_5@@UAE@XZ 12007930 f   ConditionToken.obj
 0001:00006940       ??_FMatch@xercesc_2_5@@QAEXXZ 12007940 f i Match.obj
 0001:00006960       ?getNoGroups@Match@xercesc_2_5@@QBEHXZ 12007960 f i Match.obj
 0001:000069a0       ?getStartPos@Match@xercesc_2_5@@QBEHH@Z 120079a0 f i Match.obj
 0001:00006a20       ?getEndPos@Match@xercesc_2_5@@QBEHH@Z 12007a20 f i Match.obj
 0001:00006aa0       ?setStartPos@Match@xercesc_2_5@@QAEXHH@Z 12007aa0 f i Match.obj
 0001:00006b20       ?setEndPos@Match@xercesc_2_5@@QAEXHH@Z 12007b20 f i Match.obj
 0001:00006ba0       ??0Match@xercesc_2_5@@QAE@QAVMemoryManager@1@@Z 12007ba0 f   Match.obj
 0001:00006bc0       ??_EMatch@xercesc_2_5@@UAEPAXI@Z 12007bc0 f i Match.obj
 0001:00006c40       ??0Match@xercesc_2_5@@QAE@ABV01@@Z 12007c40 f   Match.obj
 0001:00006ef0       ??4Match@xercesc_2_5@@QAEAAV01@ABV01@@Z 12007ef0 f   Match.obj
 0001:00007190       ??1Match@xercesc_2_5@@UAE@XZ 12008190 f   Match.obj
 0001:000071c0       ?setNoGroups@Match@xercesc_2_5@@QAEXH@Z 120081c0 f   Match.obj
 0001:00007250       ?initialize@Match@xercesc_2_5@@AAEXABV12@@Z 12008250 f   Match.obj
 0001:000074f0       ?cleanUp@Match@xercesc_2_5@@AAEXXZ 120084f0 f   Match.obj
 0001:00007520       ??0ModifierToken@xercesc_2_5@@QAE@QAVToken@1@HHQAVMemoryManager@1@@Z 12008520 f   ModifierToken.obj
 0001:00007550       ??_EModifierToken@xercesc_2_5@@UAEPAXI@Z 12008550 f i ModifierToken.obj
 0001:000075b0       ??1ModifierToken@xercesc_2_5@@UAE@XZ 120085b0 f   ModifierToken.obj
 0001:000075c0       ??_EOp@xercesc_2_5@@UAEPAXI@Z 120085c0 f i Op.obj
 0001:00007620       ??_ECharOp@xercesc_2_5@@UAEPAXI@Z 12008620 f i Op.obj
 0001:00007620       ??_EChildOp@xercesc_2_5@@UAEPAXI@Z 12008620 f i Op.obj
 0001:00007620       ??_ERangeOp@xercesc_2_5@@UAEPAXI@Z 12008620 f i Op.obj
 0001:00007680       ??1UnionOp@xercesc_2_5@@UAE@XZ 12008680 f i Op.obj
 0001:000076d0       ??_EUnionOp@xercesc_2_5@@UAEPAXI@Z 120086d0 f i Op.obj
 0001:00007730       ??1ConditionOp@xercesc_2_5@@UAE@XZ 12008730 f i Op.obj
 0001:00007730       ??1RangeOp@xercesc_2_5@@UAE@XZ 12008730 f i Op.obj
 0001:00007730       ??1CharOp@xercesc_2_5@@UAE@XZ 12008730 f i Op.obj
 0001:00007730       ??1ModifierOp@xercesc_2_5@@UAE@XZ 12008730 f i Op.obj
 0001:00007730       ??1ChildOp@xercesc_2_5@@UAE@XZ 12008730 f i Op.obj
 0001:00007730       ??1Op@xercesc_2_5@@UAE@XZ  12008730 f i Op.obj
 0001:00007740       ??_EModifierOp@xercesc_2_5@@UAEPAXI@Z 12008740 f i Op.obj
 0001:000077a0       ??1StringOp@xercesc_2_5@@UAE@XZ 120087a0 f i Op.obj
 0001:000077f0       ??_EStringOp@xercesc_2_5@@UAEPAXI@Z 120087f0 f i Op.obj
 0001:00007850       ??_EConditionOp@xercesc_2_5@@UAEPAXI@Z 12008850 f i Op.obj
 0001:000078b0       ?getOpType@Op@xercesc_2_5@@QBEFXZ 120088b0 f i Op.obj
 0001:000078c0       ?setOpType@Op@xercesc_2_5@@QAEXF@Z 120088c0 f i Op.obj
 0001:000078d0       ??0Op@xercesc_2_5@@IAE@FQAVMemoryManager@1@@Z 120088d0 f   Op.obj
 0001:00007900       ?getSize@Op@xercesc_2_5@@UBEHXZ 12008900 f   Op.obj
 0001:00007930       ?getData@Op@xercesc_2_5@@UBEHXZ 12008930 f   Op.obj
 0001:00007960       ?getData2@Op@xercesc_2_5@@UBEHXZ 12008960 f   Op.obj
 0001:00007990       ?getRefNo@Op@xercesc_2_5@@UBEHXZ 12008990 f   Op.obj
 0001:000079c0       ?elementAt@Op@xercesc_2_5@@UBEPBV12@H@Z 120089c0 f   Op.obj
 0001:000079f0       ?getChild@Op@xercesc_2_5@@UBEPBV12@XZ 120089f0 f   Op.obj
 0001:00007a20       ?getConditionFlow@Op@xercesc_2_5@@UBEPBV12@XZ 12008a20 f   Op.obj
 0001:00007a50       ?getYesFlow@Op@xercesc_2_5@@UBEPBV12@XZ 12008a50 f   Op.obj
 0001:00007a80       ?getNoFlow@Op@xercesc_2_5@@UBEPBV12@XZ 12008a80 f   Op.obj
 0001:00007ab0       ?getLiteral@Op@xercesc_2_5@@UBEPBGXZ 12008ab0 f   Op.obj
 0001:00007ae0       ?getToken@Op@xercesc_2_5@@UBEPBVToken@2@XZ 12008ae0 f   Op.obj
 0001:00007b10       ??0CharOp@xercesc_2_5@@QAE@FHQAVMemoryManager@1@@Z 12008b10 f   Op.obj
 0001:00007b40       ??0UnionOp@xercesc_2_5@@QAE@FHQAVMemoryManager@1@@Z 12008b40 f   Op.obj
 0001:00007c10       ?getName@XSNotationDeclaration@xercesc_2_5@@UAEPBGXZ 12008c10 f   Op.obj
 0001:00007c10       ?getSize@UnionOp@xercesc_2_5@@UBEHXZ 12008c10 f   Op.obj
 0001:00007c20       ?elementAt@UnionOp@xercesc_2_5@@UBEPBVOp@2@H@Z 12008c20 f   Op.obj
 0001:00007c70       ?addElement@UnionOp@xercesc_2_5@@QAEXQAVOp@2@@Z 12008c70 f   Op.obj
 0001:00007d00       ??0ChildOp@xercesc_2_5@@QAE@FQAVMemoryManager@1@@Z 12008d00 f   Op.obj
 0001:00007d30       ??0ModifierOp@xercesc_2_5@@QAE@FHHQAVMemoryManager@1@@Z 12008d30 f   Op.obj
 0001:00007d70       ??0RangeOp@xercesc_2_5@@QAE@FQBVToken@1@QAVMemoryManager@1@@Z 12008d70 f   Op.obj
 0001:00007da0       ??0StringOp@xercesc_2_5@@QAE@FQBGQAVMemoryManager@1@@Z 12008da0 f   Op.obj
 0001:00007e50       ??0ConditionOp@xercesc_2_5@@QAE@FHQBVOp@1@00QAVMemoryManager@1@@Z 12008e50 f   Op.obj
 0001:00007e90       ??_G?$RefVectorOf@VOp@xercesc_2_5@@@xercesc_2_5@@UAEPAXI@Z 12008e90 f i Op.obj
 0001:00007e90       ??_E?$RefVectorOf@VOp@xercesc_2_5@@@xercesc_2_5@@UAEPAXI@Z 12008e90 f i Op.obj
 0001:00007eb0       ??1?$RefVectorOf@VOp@xercesc_2_5@@@xercesc_2_5@@UAE@XZ 12008eb0 f i Op.obj
 0001:00007f30       ??1?$BaseRefVectorOf@VOp@xercesc_2_5@@@xercesc_2_5@@UAE@XZ 12008f30 f i Op.obj
 0001:00007f40       ??_FOpFactory@xercesc_2_5@@QAEXXZ 12008f40 f i OpFactory.obj
 0001:00007f50       ?reset@OpFactory@xercesc_2_5@@QAEXXZ 12008f50 f i OpFactory.obj
 0001:00007f60       ??0OpFactory@xercesc_2_5@@QAE@QAVMemoryManager@1@@Z 12008f60 f   OpFactory.obj
 0001:00008000       ??1TokenFactory@xercesc_2_5@@QAE@XZ 12009000 f   OpFactory.obj
 0001:00008000       ??1OpFactory@xercesc_2_5@@QAE@XZ 12009000 f   OpFactory.obj
 0001:00008020       ?createDotOp@OpFactory@xercesc_2_5@@QAEPAVOp@2@XZ 12009020 f   OpFactory.obj
 0001:00008110       ?createCharOp@OpFactory@xercesc_2_5@@QAEPAVCharOp@2@H@Z 12009110 f   OpFactory.obj
 0001:00008200       ?createAnchorOp@OpFactory@xercesc_2_5@@QAEPAVCharOp@2@H@Z 12009200 f   OpFactory.obj
 0001:000082f0       ?createCaptureOp@OpFactory@xercesc_2_5@@QAEPAVCharOp@2@HQBVOp@2@@Z 120092f0 f   OpFactory.obj
 0001:000083f0       ?createUnionOp@OpFactory@xercesc_2_5@@QAEPAVUnionOp@2@H@Z 120093f0 f   OpFactory.obj
 0001:000084e0       ?createClosureOp@OpFactory@xercesc_2_5@@QAEPAVChildOp@2@H@Z 120094e0 f   OpFactory.obj
 0001:000085d0       ?createNonGreedyClosureOp@OpFactory@xercesc_2_5@@QAEPAVChildOp@2@XZ 120095d0 f   OpFactory.obj
 0001:000086c0       ?createQuestionOp@OpFactory@xercesc_2_5@@QAEPAVChildOp@2@_N@Z 120096c0 f   OpFactory.obj
 0001:000087c0       ?createRangeOp@OpFactory@xercesc_2_5@@QAEPAVRangeOp@2@QBVToken@2@@Z 120097c0 f   OpFactory.obj
 0001:000088b0       ?createLookOp@OpFactory@xercesc_2_5@@QAEPAVChildOp@2@FQBVOp@2@0@Z 120098b0 f   OpFactory.obj
 0001:000089c0       ?createBackReferenceOp@OpFactory@xercesc_2_5@@QAEPAVCharOp@2@H@Z 120099c0 f   OpFactory.obj
 0001:00008ab0       ?createStringOp@OpFactory@xercesc_2_5@@QAEPAVStringOp@2@QBG@Z 12009ab0 f   OpFactory.obj
 0001:00008ba0       ?createIndependentOp@OpFactory@xercesc_2_5@@QAEPAVChildOp@2@QBVOp@2@0@Z 12009ba0 f   OpFactory.obj
 0001:00008cb0       ?createModifierOp@OpFactory@xercesc_2_5@@QAEPAVModifierOp@2@QBVOp@2@0HH@Z 12009cb0 f   OpFactory.obj
 0001:00008d40       ?createConditionOp@OpFactory@xercesc_2_5@@QAEPAVConditionOp@2@QBVOp@2@H000@Z 12009d40 f   OpFactory.obj
 0001:00008de0       ?getChild@ParenToken@xercesc_2_5@@UBEPAVToken@2@H@Z 12009de0 f i ParenToken.obj
 0001:00008df0       ??0ParenToken@xercesc_2_5@@QAE@GQAVToken@1@HQAVMemoryManager@1@@Z 12009df0 f   ParenToken.obj
 0001:00008e20       ??_EParenToken@xercesc_2_5@@UAEPAXI@Z 12009e20 f i ParenToken.obj
 0001:00008e80       ??1ParenToken@xercesc_2_5@@UAE@XZ 12009e80 f   ParenToken.obj
 0001:00008e90       ??_FRegxParser@xercesc_2_5@@QAEXXZ 12009e90 f i ParserForXMLSchema.obj
 0001:00008ea0       ?getParseContext@RegxParser@xercesc_2_5@@QBEGXZ 12009ea0 f i ParserForXMLSchema.obj
 0001:00008eb0       ?getState@RegxParser@xercesc_2_5@@QBEGXZ 12009eb0 f i ParserForXMLSchema.obj
 0001:00008ec0       ?hasBackReferences@RegxParser@xercesc_2_5@@QBE_NXZ 12009ec0 f i ParserForXMLSchema.obj
 0001:00008ec0       ?getPreprocessed@ComplexTypeInfo@xercesc_2_5@@QBE_NXZ 12009ec0 f i ParserForXMLSchema.obj
 0001:00008ec0       ?getValidationConstraintFatal@XMLScanner@xercesc_2_5@@QBE_NXZ 12009ec0 f i ParserForXMLSchema.obj
 0001:00008ec0       ?getAnonymous@DatatypeValidator@xercesc_2_5@@QBE_NXZ 12009ec0 f i ParserForXMLSchema.obj
 0001:00008ed0       ?setParseContext@RegxParser@xercesc_2_5@@QAEXG@Z 12009ed0 f i ParserForXMLSchema.obj
 0001:00008ee0       ?setTokenFactory@RegxParser@xercesc_2_5@@QAEXQAVTokenFactory@2@@Z 12009ee0 f i ParserForXMLSchema.obj
 0001:00008ee0       ?setBaseDatatypeValidator@ComplexTypeInfo@xercesc_2_5@@QAEXQAVDatatypeValidator@2@@Z 12009ee0 f i ParserForXMLSchema.obj
 0001:00008ee0       ?setAnyDatatypeValidator@SchemaAttDef@xercesc_2_5@@QAEXPAVDatatypeValidator@2@@Z 12009ee0 f i ParserForXMLSchema.obj
 0001:00008ee0       ?setMiscFlags@SchemaElementDecl@xercesc_2_5@@QAEXH@Z 12009ee0 f i ParserForXMLSchema.obj
 0001:00008ef0       ?isSet@RegxParser@xercesc_2_5@@AAE_NH@Z 12009ef0 f i ParserForXMLSchema.obj
 0001:00008f10       ?hexChar@RegxParser@xercesc_2_5@@AAEHH@Z 12009f10 f i ParserForXMLSchema.obj
 0001:00008f50       ??_FParserForXMLSchema@xercesc_2_5@@QAEXXZ 12009f50 f i ParserForXMLSchema.obj
 0001:00008f60       ?setString@StringToken@xercesc_2_5@@QAEXQBG@Z 12009f60 f i ParserForXMLSchema.obj
 0001:00008fd0       ?size@UnionToken@xercesc_2_5@@UBEHXZ 12009fd0 f i ParserForXMLSchema.obj
 0001:00008fe0       ?getChild@UnionToken@xercesc_2_5@@UBEPAVToken@2@H@Z 12009fe0 f i ParserForXMLSchema.obj
 0001:00009030       ??0ParseException@xercesc_2_5@@QAE@QBDIW4Codes@XMLExcepts@1@PAVMemoryManager@1@@Z 1200a030 f i ParserForXMLSchema.obj
 0001:000090a0       ??0ParseException@xercesc_2_5@@QAE@ABV01@@Z 1200a0a0 f i ParserForXMLSchema.obj
 0001:000090c0       ??0ParseException@xercesc_2_5@@QAE@QBDIW4Codes@XMLExcepts@1@QBG222PAVMemoryManager@1@@Z 1200a0c0 f i ParserForXMLSchema.obj
 0001:00009140       ??0ParseException@xercesc_2_5@@QAE@QBDIW4Codes@XMLExcepts@1@0000PAVMemoryManager@1@@Z 1200a140 f i ParserForXMLSchema.obj
 0001:000091c0       ??1ParseException@xercesc_2_5@@UAE@XZ 1200a1c0 f i ParserForXMLSchema.obj
 0001:000091d0       ??4ArrayIndexOutOfBoundsException@xercesc_2_5@@QAEAAV01@ABV01@@Z 1200a1d0 f i ParserForXMLSchema.obj
 0001:000091d0       ??4InvalidCastException@xercesc_2_5@@QAEAAV01@ABV01@@Z 1200a1d0 f i ParserForXMLSchema.obj
 0001:000091d0       ??4InvalidDatatypeFacetException@xercesc_2_5@@QAEAAV01@ABV01@@Z 1200a1d0 f i ParserForXMLSchema.obj
 0001:000091d0       ??4UnexpectedEOFException@xercesc_2_5@@QAEAAV01@ABV01@@Z 1200a1d0 f i ParserForXMLSchema.obj
 0001:000091d0       ??4IllegalArgumentException@xercesc_2_5@@QAEAAV01@ABV01@@Z 1200a1d0 f i ParserForXMLSchema.obj
 0001:000091d0       ??4NumberFormatException@xercesc_2_5@@QAEAAV01@ABV01@@Z 1200a1d0 f i ParserForXMLSchema.obj
 0001:000091d0       ??4IOException@xercesc_2_5@@QAEAAV01@ABV01@@Z 1200a1d0 f i ParserForXMLSchema.obj
 0001:000091d0       ??4UTFDataFormatException@xercesc_2_5@@QAEAAV01@ABV01@@Z 1200a1d0 f i ParserForXMLSchema.obj
 0001:000091d0       ??4TranscodingException@xercesc_2_5@@QAEAAV01@ABV01@@Z 1200a1d0 f i ParserForXMLSchema.obj
 0001:000091d0       ??4XSerializationException@xercesc_2_5@@QAEAAV01@ABV01@@Z 1200a1d0 f i ParserForXMLSchema.obj
 0001:000091d0       ??4UnsupportedEncodingException@xercesc_2_5@@QAEAAV01@ABV01@@Z 1200a1d0 f i ParserForXMLSchema.obj
 0001:000091d0       ??4EmptyStackException@xercesc_2_5@@QAEAAV01@ABV01@@Z 1200a1d0 f i ParserForXMLSchema.obj
 0001:000091d0       ??4NoSuchElementException@xercesc_2_5@@QAEAAV01@ABV01@@Z 1200a1d0 f i ParserForXMLSchema.obj
 0001:000091d0       ??4NullPointerException@xercesc_2_5@@QAEAAV01@ABV01@@Z 1200a1d0 f i ParserForXMLSchema.obj
 0001:000091d0       ??4XPathException@xercesc_2_5@@QAEAAV01@ABV01@@Z 1200a1d0 f i ParserForXMLSchema.obj
 0001:000091d0       ??4RuntimeException@xercesc_2_5@@QAEAAV01@ABV01@@Z 1200a1d0 f i ParserForXMLSchema.obj
 0001:000091d0       ??4MalformedURLException@xercesc_2_5@@QAEAAV01@ABV01@@Z 1200a1d0 f i ParserForXMLSchema.obj
 0001:000091d0       ??4NetAccessorException@xercesc_2_5@@QAEAAV01@ABV01@@Z 1200a1d0 f i ParserForXMLSchema.obj
 0001:000091d0       ??4InvalidDatatypeValueException@xercesc_2_5@@QAEAAV01@ABV01@@Z 1200a1d0 f i ParserForXMLSchema.obj
 0001:000091d0       ??4SchemaDateTimeException@xercesc_2_5@@QAEAAV01@ABV01@@Z 1200a1d0 f i ParserForXMLSchema.obj
 0001:000091d0       ??4XMLPlatformUtilsException@xercesc_2_5@@QAEAAV01@ABV01@@Z 1200a1d0 f i ParserForXMLSchema.obj
 0001:000091d0       ??4ParseException@xercesc_2_5@@QAEAAV01@ABV01@@Z 1200a1d0 f i ParserForXMLSchema.obj
 0001:000091f0       ?duplicate@ParseException@xercesc_2_5@@UBEPAVXMLException@2@XZ 1200a1f0 f i ParserForXMLSchema.obj
 0001:00009250       ?getType@ParseException@xercesc_2_5@@UBEPBGXZ 1200a250 f i ParserForXMLSchema.obj
 0001:00009260       ??_EParseException@xercesc_2_5@@UAEPAXI@Z 1200a260 f i ParserForXMLSchema.obj
 0001:000092c0       ??0ParserForXMLSchema@xercesc_2_5@@QAE@QAVMemoryManager@1@@Z 1200a2c0 f   ParserForXMLSchema.obj
 0001:000092e0       ??_EParserForXMLSchema@xercesc_2_5@@UAEPAXI@Z 1200a2e0 f i ParserForXMLSchema.obj
 0001:00009340       ??1ParserForXMLSchema@xercesc_2_5@@UAE@XZ 1200a340 f   ParserForXMLSchema.obj
 0001:00009350       ?processCaret@ParserForXMLSchema@xercesc_2_5@@MAEPAVToken@2@XZ 1200a350 f   ParserForXMLSchema.obj
 0001:00009370       ?processDollar@ParserForXMLSchema@xercesc_2_5@@MAEPAVToken@2@XZ 1200a370 f   ParserForXMLSchema.obj
 0001:00009390       ?processPlus@ParserForXMLSchema@xercesc_2_5@@MAEPAVToken@2@QAV32@@Z 1200a390 f   ParserForXMLSchema.obj
 0001:000093c0       ?processStar@ParserForXMLSchema@xercesc_2_5@@MAEPAVToken@2@QAV32@@Z 1200a3c0 f   ParserForXMLSchema.obj
 0001:000093e0       ?processQuestion@ParserForXMLSchema@xercesc_2_5@@MAEPAVToken@2@QAV32@@Z 1200a3e0 f   ParserForXMLSchema.obj
 0001:00009420       ?processParen@ParserForXMLSchema@xercesc_2_5@@MAEPAVToken@2@XZ 1200a420 f   ParserForXMLSchema.obj
 0001:00009490       ?parseCharacterClass@ParserForXMLSchema@xercesc_2_5@@MAEPAVRangeToken@2@_N@Z 1200a490 f   ParserForXMLSchema.obj
 0001:00009910       ?processCInCharacterClass@ParserForXMLSchema@xercesc_2_5@@MAEHQAVRangeToken@2@H@Z 1200a910 f   ParserForXMLSchema.obj
 0001:00009930       ?processLook@ParserForXMLSchema@xercesc_2_5@@MAEPAVToken@2@G@Z 1200a930 f   ParserForXMLSchema.obj
 0001:00009960       ?processBacksolidus_A@ParserForXMLSchema@xercesc_2_5@@MAEPAVToken@2@XZ 1200a960 f   ParserForXMLSchema.obj
 0001:00009990       ?processBacksolidus_B@ParserForXMLSchema@xercesc_2_5@@MAEPAVToken@2@XZ 1200a990 f   ParserForXMLSchema.obj
 0001:000099c0       ?processBacksolidus_b@ParserForXMLSchema@xercesc_2_5@@MAEPAVToken@2@XZ 1200a9c0 f   ParserForXMLSchema.obj
 0001:000099f0       ?processBacksolidus_C@ParserForXMLSchema@xercesc_2_5@@MAEPAVToken@2@XZ 1200a9f0 f   ParserForXMLSchema.obj
 0001:00009a10       ?processBacksolidus_c@ParserForXMLSchema@xercesc_2_5@@MAEPAVToken@2@XZ 1200aa10 f   ParserForXMLSchema.obj
 0001:00009a30       ?processBacksolidus_g@ParserForXMLSchema@xercesc_2_5@@MAEPAVToken@2@XZ 1200aa30 f   ParserForXMLSchema.obj
 0001:00009a60       ?processBacksolidus_gt@ParserForXMLSchema@xercesc_2_5@@MAEPAVToken@2@XZ 1200aa60 f   ParserForXMLSchema.obj
 0001:00009a90       ?processBacksolidus_I@ParserForXMLSchema@xercesc_2_5@@MAEPAVToken@2@XZ 1200aa90 f   ParserForXMLSchema.obj
 0001:00009ab0       ?processBacksolidus_i@ParserForXMLSchema@xercesc_2_5@@MAEPAVToken@2@XZ 1200aab0 f   ParserForXMLSchema.obj
 0001:00009ad0       ?processBacksolidus_lt@ParserForXMLSchema@xercesc_2_5@@MAEPAVToken@2@XZ 1200aad0 f   ParserForXMLSchema.obj
 0001:00009b00       ?processBacksolidus_X@ParserForXMLSchema@xercesc_2_5@@MAEPAVToken@2@XZ 1200ab00 f   ParserForXMLSchema.obj
 0001:00009b30       ?processBacksolidus_Z@ParserForXMLSchema@xercesc_2_5@@MAEPAVToken@2@XZ 1200ab30 f   ParserForXMLSchema.obj
 0001:00009b60       ?processBacksolidus_z@ParserForXMLSchema@xercesc_2_5@@MAEPAVToken@2@XZ 1200ab60 f   ParserForXMLSchema.obj
 0001:00009b90       ?processBackReference@ParserForXMLSchema@xercesc_2_5@@MAEPAVToken@2@XZ 1200ab90 f   ParserForXMLSchema.obj
 0001:00009bc0       ?processCondition@ParserForXMLSchema@xercesc_2_5@@MAEPAVToken@2@XZ 1200abc0 f   ParserForXMLSchema.obj
 0001:00009bf0       ?processIndependent@ParserForXMLSchema@xercesc_2_5@@MAEPAVToken@2@XZ 1200abf0 f   ParserForXMLSchema.obj
 0001:00009c20       ?processModifiers@ParserForXMLSchema@xercesc_2_5@@MAEPAVToken@2@XZ 1200ac20 f   ParserForXMLSchema.obj
 0001:00009c50       ?processParen2@ParserForXMLSchema@xercesc_2_5@@MAEPAVToken@2@XZ 1200ac50 f   ParserForXMLSchema.obj
 0001:00009c80       ?parseSetOperations@ParserForXMLSchema@xercesc_2_5@@MAEPAVRangeToken@2@XZ 1200ac80 f   ParserForXMLSchema.obj
 0001:00009cb0       ?getTokenForShorthand@ParserForXMLSchema@xercesc_2_5@@MAEPAVToken@2@H@Z 1200acb0 f   ParserForXMLSchema.obj
 0001:00009df0       ?checkQuestion@ParserForXMLSchema@xercesc_2_5@@MAE_NH@Z 1200adf0 f   ParserForXMLSchema.obj
 0001:00009e00       ?decodeEscaped@ParserForXMLSchema@xercesc_2_5@@MAEHXZ 1200ae00 f   ParserForXMLSchema.obj
 0001:00009f20       ??0RangeFactory@xercesc_2_5@@IAE@XZ 1200af20 f   RangeFactory.obj
 0001:00009f30       ??_ERangeFactory@xercesc_2_5@@UAEPAXI@Z 1200af30 f i RangeFactory.obj
 0001:00009f90       ??1RangeFactory@xercesc_2_5@@UAE@XZ 1200af90 f   RangeFactory.obj
 0001:00009fa0       ??0RangeToken@xercesc_2_5@@QAE@GQAVMemoryManager@1@@Z 1200afa0 f   RangeToken.obj
 0001:00009ff0       ??_ERangeToken@xercesc_2_5@@UAEPAXI@Z 1200aff0 f i RangeToken.obj
 0001:0000a050       ??1RangeToken@xercesc_2_5@@UAE@XZ 1200b050 f   RangeToken.obj
 0001:0000a0c0       ?getCaseInsensitiveToken@RangeToken@xercesc_2_5@@QAEPAV12@QAVTokenFactory@2@@Z 1200b0c0 f   RangeToken.obj
 0001:0000a100       ?setRangeValues@RangeToken@xercesc_2_5@@QAEXQAHI@Z 1200b100 f   RangeToken.obj
 0001:0000a150       ?addRange@RangeToken@xercesc_2_5@@UAEXHH@Z 1200b150 f   RangeToken.obj
 0001:0000a280       ?sortRanges@RangeToken@xercesc_2_5@@UAEXXZ 1200b280 f   RangeToken.obj
 0001:0000a330       ?compactRanges@RangeToken@xercesc_2_5@@UAEXXZ 1200b330 f   RangeToken.obj
 0001:0000a410       ?mergeRanges@RangeToken@xercesc_2_5@@UAEXQBVToken@2@@Z 1200b410 f   RangeToken.obj
 0001:0000a610       ?subtractRanges@RangeToken@xercesc_2_5@@UAEXQAV12@@Z 1200b610 f   RangeToken.obj
 0001:0000a7b0       ?intersectRanges@RangeToken@xercesc_2_5@@UAEXQAV12@@Z 1200b7b0 f   RangeToken.obj
 0001:0000a910       ?complementRanges@RangeToken@xercesc_2_5@@SAPAVToken@2@QAV12@QAVTokenFactory@2@QAVMemoryManager@2@@Z 1200b910 f   RangeToken.obj
 0001:0000a9f0       ?match@RangeToken@xercesc_2_5@@QAE_NH@Z 1200b9f0 f   RangeToken.obj
 0001:0000aaf0       ?expand@RangeToken@xercesc_2_5@@AAEXI@Z 1200baf0 f   RangeToken.obj
 0001:0000ab80       ?createMap@RangeToken@xercesc_2_5@@AAEXXZ 1200bb80 f   RangeToken.obj
 0001:0000ac20       ??0XSerializationException@xercesc_2_5@@QAE@QBDIW4Codes@XMLExcepts@1@PAVMemoryManager@1@@Z 1200bc20 f i RangeTokenMap.obj
 0001:0000ac90       ??0XSerializationException@xercesc_2_5@@QAE@ABV01@@Z 1200bc90 f i RangeTokenMap.obj
 0001:0000acb0       ??0XSerializationException@xercesc_2_5@@QAE@QBDIW4Codes@XMLExcepts@1@QBG222PAVMemoryManager@1@@Z 1200bcb0 f i RangeTokenMap.obj
 0001:0000ad30       ??0XSerializationException@xercesc_2_5@@QAE@QBDIW4Codes@XMLExcepts@1@0000PAVMemoryManager@1@@Z 1200bd30 f i RangeTokenMap.obj
 0001:0000adb0       ??1XSerializationException@xercesc_2_5@@UAE@XZ 1200bdb0 f i RangeTokenMap.obj
 0001:0000adc0       ?duplicate@XSerializationException@xercesc_2_5@@UBEPAVXMLException@2@XZ 1200bdc0 f i RangeTokenMap.obj
 0001:0000ae20       ?getType@XSerializationException@xercesc_2_5@@UBEPBGXZ 1200be20 f i RangeTokenMap.obj
 0001:0000ae30       ??_EXSerializationException@xercesc_2_5@@UAEPAXI@Z 1200be30 f i RangeTokenMap.obj
 0001:0000ae90       ?isStoring@XSerializeEngine@xercesc_2_5@@QBE_NXZ 1200be90 f i RangeTokenMap.obj
 0001:0000aea0       ?isLoading@XSerializeEngine@xercesc_2_5@@QBE_NXZ 1200bea0 f i RangeTokenMap.obj
 0001:0000aeb0       ?ensureStoring@XSerializeEngine@xercesc_2_5@@ABEXXZ 1200beb0 f i RangeTokenMap.obj
 0001:0000aef0       ?ensureLoading@XSerializeEngine@xercesc_2_5@@ABEXXZ 1200bef0 f i RangeTokenMap.obj
 0001:0000af30       ?Assert@XSerializeEngine@xercesc_2_5@@ABEX_NW4Codes@XMLExcepts@2@@Z 1200bf30 f i RangeTokenMap.obj
 0001:0000af70       ?allignAdjust@XSerializeEngine@xercesc_2_5@@ABEIXZ 1200bf70 f i RangeTokenMap.obj
 0001:0000af90       ?allignBufCur@XSerializeEngine@xercesc_2_5@@AAEXXZ 1200bf90 f i RangeTokenMap.obj
 0001:0000afc0       ??1XMLAttDefList@xercesc_2_5@@UAE@XZ 1200bfc0 f i RangeTokenMap.obj
 0001:0000afc0       ??1Grammar@xercesc_2_5@@UAE@XZ 1200bfc0 f i RangeTokenMap.obj
 0001:0000afc0       ??1XSerializable@xercesc_2_5@@UAE@XZ 1200bfc0 f i RangeTokenMap.obj
 0001:0000afd0       ??0XSerializable@xercesc_2_5@@IAE@XZ 1200bfd0 f i RangeTokenMap.obj
 0001:0000afe0       ??_EXSerializable@xercesc_2_5@@UAEPAXI@Z 1200bfe0 f i RangeTokenMap.obj
 0001:0000b040       ??_FXMLStringPool@xercesc_2_5@@QAEXXZ 1200c040 f i RangeTokenMap.obj
 0001:0000b070       ??0RangeTokenElemMap@xercesc_2_5@@QAE@I@Z 1200c070 f   RangeTokenMap.obj
 0001:0000b090       ??0RangeTokenMap@xercesc_2_5@@IAE@XZ 1200c090 f   RangeTokenMap.obj
 0001:0000b0b0       ??1RangeTokenMap@xercesc_2_5@@IAE@XZ 1200c0b0 f   RangeTokenMap.obj
 0001:0000b220       ?getRange@RangeTokenMap@xercesc_2_5@@IAEPAVRangeToken@2@QBG_N@Z 1200c220 f   RangeTokenMap.obj
 0001:0000b3d0       ?addCategory@RangeTokenMap@xercesc_2_5@@QAEXQBG@Z 1200c3d0 f   RangeTokenMap.obj
 0001:0000b3f0       ?addRangeMap@RangeTokenMap@xercesc_2_5@@QAEXQBGQAVRangeFactory@2@@Z 1200c3f0 f   RangeTokenMap.obj
 0001:0000b410       ?addKeywordMap@RangeTokenMap@xercesc_2_5@@QAEXQBG0@Z 1200c410 f   RangeTokenMap.obj
 0001:0000b6c0       ?setRangeToken@RangeTokenMap@xercesc_2_5@@QAEXQBGQAVRangeToken@2@_N@Z 1200c6c0 f   RangeTokenMap.obj
 0001:0000b810       ?initializeRegistry@RangeTokenMap@xercesc_2_5@@AAEXXZ 1200c810 f   RangeTokenMap.obj
 0001:0000ba00       ?instance@RangeTokenMap@xercesc_2_5@@SAPAV12@XZ 1200ca00 f   RangeTokenMap.obj
 0001:0000bc20       ?reinitInstance@RangeTokenMap@xercesc_2_5@@SAXXZ 1200cc20 f   RangeTokenMap.obj
 0001:0000bc50       ?put@?$RefHashTableOf@VRangeFactory@xercesc_2_5@@@xercesc_2_5@@QAEXPAXQAVRangeFactory@2@@Z 1200cc50 f i RangeTokenMap.obj
 0001:0000be70       ??0Context@RegularExpression@xercesc_2_5@@QAE@ABV012@@Z 1200ce70 f i RegularExpression.obj
 0001:0000bec0       ??_FContext@RegularExpression@xercesc_2_5@@QAEXXZ 1200cec0 f i RegularExpression.obj
 0001:0000bef0       ?cleanUp@RegularExpression@xercesc_2_5@@AAEXXZ 1200cef0 f i RegularExpression.obj
 0001:0000bf40       ?isSet@RegularExpression@xercesc_2_5@@AAE_NHH@Z 1200cf40 f i RegularExpression.obj
 0001:0000bf40       ?isSet@Token@xercesc_2_5@@AAE_NHI@Z 1200cf40 f i RegularExpression.obj
 0001:0000bf60       ?compileLook@RegularExpression@xercesc_2_5@@AAEPAVOp@2@QBVToken@2@QBV32@_NG@Z 1200cf60 f i RegularExpression.obj
 0001:0000c050       ?compileSingle@RegularExpression@xercesc_2_5@@AAEPAVOp@2@QBVToken@2@QAV32@G@Z 1200d050 f i RegularExpression.obj
 0001:0000c130       ?compileUnion@RegularExpression@xercesc_2_5@@AAEPAVOp@2@QBVToken@2@QAV32@_N@Z 1200d130 f i RegularExpression.obj
 0001:0000c190       ?compileCondition@RegularExpression@xercesc_2_5@@AAEPAVOp@2@QBVToken@2@QAV32@_N@Z 1200d190 f i RegularExpression.obj
 0001:0000c230       ?compileParenthesis@RegularExpression@xercesc_2_5@@AAEPAVOp@2@QBVToken@2@QAV32@_N@Z 1200d230 f i RegularExpression.obj
 0001:0000c300       ?compileConcat@RegularExpression@xercesc_2_5@@AAEPAVOp@2@QBVToken@2@QAV32@_N@Z 1200d300 f i RegularExpression.obj
 0001:0000c380       ?compileClosure@RegularExpression@xercesc_2_5@@AAEPAVOp@2@QBVToken@2@QAV32@_NG@Z 1200d380 f i RegularExpression.obj
 0001:0000c4b0       ?matchUnion@RegularExpression@xercesc_2_5@@AAEHQAVContext@12@QBVOp@2@HF@Z 1200d4b0 f i RegularExpression.obj
 0001:0000c510       ?matchModifier@RegularExpression@xercesc_2_5@@AAEHQAVContext@12@QBVOp@2@HF@Z 1200d510 f i RegularExpression.obj
 0001:0000c560       ?getWordType@RegularExpression@xercesc_2_5@@AAEGQBGHHH@Z 1200d560 f i RegularExpression.obj
 0001:0000c590       ?getPreviousWordType@RegularExpression@xercesc_2_5@@AAEGQBGHHH@Z 1200d590 f i RegularExpression.obj
 0001:0000c600       ?matchIgnoreCase@RegularExpression@xercesc_2_5@@AAE_NHH@Z 1200d600 f i RegularExpression.obj
 0001:0000c620       ?isEOLChar@RegxUtil@xercesc_2_5@@SA_NG@Z 1200d620 f i RegularExpression.obj
 0001:0000c650       ?composeFromSurrogate@RegxUtil@xercesc_2_5@@SAHGG@Z 1200d650 f i RegularExpression.obj
 0001:0000c670       ?isLowSurrogate@RegxUtil@xercesc_2_5@@SA_NG@Z 1200d670 f i RegularExpression.obj
 0001:0000c690       ?isHighSurrogate@RegxUtil@xercesc_2_5@@SA_NG@Z 1200d690 f i RegularExpression.obj
 0001:0000c6b0       ?isWordChar@RegxUtil@xercesc_2_5@@SA_NG@Z 1200d6b0 f i RegularExpression.obj
 0001:0000c6f0       ??0XMLBuffer@xercesc_2_5@@QAE@HQAVMemoryManager@1@@Z 1200d6f0 f i RegularExpression.obj
 0001:0000c730       ??1XMLBuffer@xercesc_2_5@@QAE@XZ 1200d730 f i RegularExpression.obj
 0001:0000c740       ?append@XMLBuffer@xercesc_2_5@@QAEXG@Z 1200d740 f i RegularExpression.obj
 0001:0000c770       ?getRawBuffer@XMLBuffer@xercesc_2_5@@QAEPAGXZ 1200d770 f i RegularExpression.obj
 0001:0000c770       ?getRawBuffer@XMLBuffer@xercesc_2_5@@QBEPBGXZ 1200d770 f i RegularExpression.obj
 0001:0000c780       ?reset@XMLBuffer@xercesc_2_5@@QAEXXZ 1200d780 f i RegularExpression.obj
 0001:0000c790       ?getSpecified@XMLAttr@xercesc_2_5@@QBE_NXZ 1200d790 f i RegularExpression.obj
 0001:0000c790       ?getInUse@XMLBuffer@xercesc_2_5@@QBE_NXZ 1200d790 f i RegularExpression.obj
 0001:0000c7a0       ?isEmpty@XMLBuffer@xercesc_2_5@@QBE_NXZ 1200d7a0 f i RegularExpression.obj
 0001:0000c7b0       ?setInUse@XMLBuffer@xercesc_2_5@@QAEX_N@Z 1200d7b0 f i RegularExpression.obj
 0001:0000c7b0       ?setSpecified@XMLAttr@xercesc_2_5@@QAEX_N@Z 1200d7b0 f i RegularExpression.obj
 0001:0000c7c0       ??_FXMLBuffer@xercesc_2_5@@QAEXXZ 1200d7c0 f i RegularExpression.obj
 0001:0000c800       ??0Context@RegularExpression@xercesc_2_5@@QAE@QAVMemoryManager@2@@Z 1200d800 f   RegularExpression.obj
 0001:0000c830       ??1Context@RegularExpression@xercesc_2_5@@QAE@XZ 1200d830 f   RegularExpression.obj
 0001:0000c870       ?reset@Context@RegularExpression@xercesc_2_5@@QAEXQBGHHHH@Z 1200d870 f   RegularExpression.obj
 0001:0000c980       ?nextCh@Context@RegularExpression@xercesc_2_5@@QAE_NAAH0F@Z 1200d980 f   RegularExpression.obj
 0001:0000ca60       ??0RegularExpression@xercesc_2_5@@QAE@QBDQAVMemoryManager@1@@Z 1200da60 f   RegularExpression.obj
 0001:0000cb90       ??0RegularExpression@xercesc_2_5@@QAE@QBD0QAVMemoryManager@1@@Z 1200db90 f   RegularExpression.obj
 0001:0000cd00       ??0RegularExpression@xercesc_2_5@@QAE@QBGQAVMemoryManager@1@@Z 1200dd00 f   RegularExpression.obj
 0001:0000cdf0       ??0RegularExpression@xercesc_2_5@@QAE@QBG0QAVMemoryManager@1@@Z 1200ddf0 f   RegularExpression.obj
 0001:0000cee0       ??1RegularExpression@xercesc_2_5@@QAE@XZ 1200dee0 f   RegularExpression.obj
 0001:0000cf80       ?setPattern@RegularExpression@xercesc_2_5@@AAEXQBG0@Z 1200df80 f   RegularExpression.obj
 0001:0000d180       ?matches@RegularExpression@xercesc_2_5@@QAE_NQBDQAVMemoryManager@2@@Z 1200e180 f   RegularExpression.obj
 0001:0000d230       ?matches@RegularExpression@xercesc_2_5@@QAE_NQBDHHQAVMemoryManager@2@@Z 1200e230 f   RegularExpression.obj
 0001:0000d2d0       ?matches@RegularExpression@xercesc_2_5@@QAE_NQBDQAVMatch@2@QAVMemoryManager@2@@Z 1200e2d0 f   RegularExpression.obj
 0001:0000d390       ?matches@RegularExpression@xercesc_2_5@@QAE_NQBDHHQAVMatch@2@QAVMemoryManager@2@@Z 1200e390 f   RegularExpression.obj
 0001:0000d430       ?matches@RegularExpression@xercesc_2_5@@QAE_NQBGQAVMemoryManager@2@@Z 1200e430 f   RegularExpression.obj
 0001:0000d470       ?matches@RegularExpression@xercesc_2_5@@QAE_NQBGHHQAVMemoryManager@2@@Z 1200e470 f   RegularExpression.obj
 0001:0000d490       ?matches@RegularExpression@xercesc_2_5@@QAE_NQBGQAVMatch@2@QAVMemoryManager@2@@Z 1200e490 f   RegularExpression.obj
 0001:0000d4e0       ?matches@RegularExpression@xercesc_2_5@@QAE_NQBGHHQAVMatch@2@QAVMemoryManager@2@@Z 1200e4e0 f   RegularExpression.obj
 0001:0000dd90       ?tokenize@RegularExpression@xercesc_2_5@@QAEPAV?$RefArrayVectorOf@G@2@QBD@Z 1200ed90 f   RegularExpression.obj
 0001:0000de40       ?tokenize@RegularExpression@xercesc_2_5@@QAEPAV?$RefArrayVectorOf@G@2@QBDHH@Z 1200ee40 f   RegularExpression.obj
 0001:0000dee0       ?tokenize@RegularExpression@xercesc_2_5@@QAEPAV?$RefArrayVectorOf@G@2@QBG@Z 1200eee0 f   RegularExpression.obj
 0001:0000df30       ?tokenize@RegularExpression@xercesc_2_5@@QAEPAV?$RefArrayVectorOf@G@2@QBGHH@Z 1200ef30 f   RegularExpression.obj
 0001:0000df50       ?tokenize@RegularExpression@xercesc_2_5@@AAEPAV?$RefArrayVectorOf@G@2@QBGHHPAV?$RefVectorOf@VMatch@xercesc_2_5@@@2@@Z 1200ef50 f   RegularExpression.obj
 0001:0000e530       ?replace@RegularExpression@xercesc_2_5@@QAEPAGQBD0@Z 1200f530 f   RegularExpression.obj
 0001:0000e630       ?replace@RegularExpression@xercesc_2_5@@QAEPAGQBD0HH@Z 1200f630 f   RegularExpression.obj
 0001:0000e710       ?replace@RegularExpression@xercesc_2_5@@QAEPAGQBG0@Z 1200f710 f   RegularExpression.obj
 0001:0000e760       ?replace@RegularExpression@xercesc_2_5@@QAEPAGQBG0HH@Z 1200f760 f   RegularExpression.obj
 0001:0000eb10       ?getOptionValue@RegularExpression@xercesc_2_5@@SAHG@Z 1200fb10 f   RegularExpression.obj
 0001:0000ebf0       ?match@RegularExpression@xercesc_2_5@@AAEHQAVContext@12@QBVOp@2@HF@Z 1200fbf0 f   RegularExpression.obj
 0001:0000f3a0       ?matchChar@RegularExpression@xercesc_2_5@@AAE_NQAVContext@12@HAAHF_N@Z 120103a0 f   RegularExpression.obj
 0001:0000f450       ?matchDot@RegularExpression@xercesc_2_5@@AAE_NQAVContext@12@AAHF@Z 12010450 f   RegularExpression.obj
 0001:0000f500       ?matchRange@RegularExpression@xercesc_2_5@@AAE_NQAVContext@12@QBVOp@2@AAHF_N@Z 12010500 f   RegularExpression.obj
 0001:0000f590       ?matchAnchor@RegularExpression@xercesc_2_5@@AAE_NQAVContext@12@HH@Z 12010590 f   RegularExpression.obj
 0001:0000fab0       ?matchBackReference@RegularExpression@xercesc_2_5@@AAE_NQAVContext@12@HAAHF_N@Z 12010ab0 f   RegularExpression.obj
 0001:0000fd20       ?matchString@RegularExpression@xercesc_2_5@@AAE_NQAVContext@12@QBGAAHF_N@Z 12010d20 f   RegularExpression.obj
 0001:0000fdc0       ?matchCapture@RegularExpression@xercesc_2_5@@AAEHQAVContext@12@QBVOp@2@HF@Z 12010dc0 f   RegularExpression.obj
 0001:000100c0       ?matchCondition@RegularExpression@xercesc_2_5@@AAE_NQAVContext@12@QBVOp@2@HF@Z 120110c0 f   RegularExpression.obj
 0001:00010200       ?parseOptions@RegularExpression@xercesc_2_5@@AAEHQBG@Z 12011200 f   RegularExpression.obj
 0001:00010370       ?compile@RegularExpression@xercesc_2_5@@AAEXQBVToken@2@@Z 12011370 f   RegularExpression.obj
 0001:000103a0       ?compile@RegularExpression@xercesc_2_5@@AAEPAVOp@2@QBVToken@2@QAV32@_N@Z 120113a0 f   RegularExpression.obj
 0001:00010760       ?subInExp@RegularExpression@xercesc_2_5@@AAEPBGQBG0PBVMatch@2@@Z 12011760 f   RegularExpression.obj
 0001:00010b30       ?prepare@RegularExpression@xercesc_2_5@@AAEXXZ 12011b30 f   RegularExpression.obj
 0001:00010e40       ?getCharType@RegularExpression@xercesc_2_5@@AAEGG@Z 12011e40 f   RegularExpression.obj
 0001:00010fa0       ?setElementAt@?$BaseRefVectorOf@G@xercesc_2_5@@UAEXQAGI@Z 12011fa0 f i RegularExpression.obj
 0001:00011000       ?removeAllElements@?$BaseRefVectorOf@G@xercesc_2_5@@UAEXXZ 12012000 f i RegularExpression.obj
 0001:00011040       ?removeElementAt@?$BaseRefVectorOf@G@xercesc_2_5@@UAEXI@Z 12012040 f i RegularExpression.obj
 0001:000110f0       ?removeLastElement@?$BaseRefVectorOf@G@xercesc_2_5@@UAEXXZ 120120f0 f i RegularExpression.obj
 0001:00011110       ?cleanup@?$BaseRefVectorOf@G@xercesc_2_5@@UAEXXZ 12012110 f i RegularExpression.obj
 0001:00011150       ?setElementAt@?$RefArrayVectorOf@G@xercesc_2_5@@UAEXQAGI@Z 12012150 f i RegularExpression.obj
 0001:000111b0       ?removeAllElements@?$RefArrayVectorOf@G@xercesc_2_5@@UAEXXZ 120121b0 f i RegularExpression.obj
 0001:000111f0       ?removeElementAt@?$RefArrayVectorOf@G@xercesc_2_5@@UAEXI@Z 120121f0 f i RegularExpression.obj
 0001:000112a0       ?removeLastElement@?$RefArrayVectorOf@G@xercesc_2_5@@UAEXXZ 120122a0 f i RegularExpression.obj
 0001:000112d0       ?cleanup@?$RefArrayVectorOf@G@xercesc_2_5@@UAEXXZ 120122d0 f i RegularExpression.obj
 0001:00011310       ?removeLastElement@?$BaseRefVectorOf@VXSSimpleTypeDefinition@xercesc_2_5@@@xercesc_2_5@@UAEXXZ 12012310 f i RegularExpression.obj
 0001:00011310       ?removeLastElement@?$BaseRefVectorOf@VXMLElementDecl@xercesc_2_5@@@xercesc_2_5@@UAEXXZ 12012310 f i RegularExpression.obj
 0001:00011310       ?removeLastElement@?$BaseRefVectorOf@VXercesLocationPath@xercesc_2_5@@@xercesc_2_5@@UAEXXZ 12012310 f i RegularExpression.obj
 0001:00011310       ?removeLastElement@?$BaseRefVectorOf@VSchemaAttDef@xercesc_2_5@@@xercesc_2_5@@UAEXXZ 12012310 f i RegularExpression.obj
 0001:00011310       ?removeLastElement@?$BaseRefVectorOf@VXSObject@xercesc_2_5@@@xercesc_2_5@@UAEXXZ 12012310 f i RegularExpression.obj
 0001:00011310       ?removeLastElement@?$BaseRefVectorOf@VXSAnnotation@xercesc_2_5@@@xercesc_2_5@@UAEXXZ 12012310 f i RegularExpression.obj
 0001:00011310       ?removeLastElement@?$BaseRefVectorOf@VXPathMatcher@xercesc_2_5@@@xercesc_2_5@@UAEXXZ 12012310 f i RegularExpression.obj
 0001:00011310       ?removeLastElement@?$BaseRefVectorOf@VKVStringPair@xercesc_2_5@@@xercesc_2_5@@UAEXXZ 12012310 f i RegularExpression.obj
 0001:00011310       ?removeLastElement@?$BaseRefVectorOf@VToken@xercesc_2_5@@@xercesc_2_5@@UAEXXZ 12012310 f i RegularExpression.obj
 0001:00011310       ?removeLastElement@?$BaseRefVectorOf@VIC_Field@xercesc_2_5@@@xercesc_2_5@@UAEXXZ 12012310 f i RegularExpression.obj
 0001:00011310       ?removeLastElement@?$BaseRefVectorOf@VMatch@xercesc_2_5@@@xercesc_2_5@@UAEXXZ 12012310 f i RegularExpression.obj
 0001:00011310       ?removeLastElement@?$BaseRefVectorOf@VNodeIteratorImpl@xercesc_2_5@@@xercesc_2_5@@UAEXXZ 12012310 f i RegularExpression.obj
 0001:00011310       ?removeLastElement@?$BaseRefVectorOf@VXSParticle@xercesc_2_5@@@xercesc_2_5@@UAEXXZ 12012310 f i RegularExpression.obj
 0001:00011310       ?removeLastElement@?$BaseRefVectorOf@VDOMImplementationSource@xercesc_2_5@@@xercesc_2_5@@UAEXXZ 12012310 f i RegularExpression.obj
 0001:00011310       ?removeLastElement@?$BaseRefVectorOf@VRangeImpl@xercesc_2_5@@@xercesc_2_5@@UAEXXZ 12012310 f i RegularExpression.obj
 0001:00011310       ?removeLastElement@?$BaseRefVectorOf@VDOMNode@xercesc_2_5@@@xercesc_2_5@@UAEXXZ 12012310 f i RegularExpression.obj
 0001:00011310       ?removeLastElement@?$BaseRefVectorOf@VIdentityConstraint@xercesc_2_5@@@xercesc_2_5@@UAEXXZ 12012310 f i RegularExpression.obj
 0001:00011310       ?removeLastElement@?$BaseRefVectorOf@VXSElementDeclaration@xercesc_2_5@@@xercesc_2_5@@UAEXXZ 12012310 f i RegularExpression.obj
 0001:00011310       ?removeLastElement@?$BaseRefVectorOf@VDatatypeValidator@xercesc_2_5@@@xercesc_2_5@@UAEXXZ 12012310 f i RegularExpression.obj
 0001:00011310       ?removeLastElement@?$BaseRefVectorOf@VXMLNumber@xercesc_2_5@@@xercesc_2_5@@UAEXXZ 12012310 f i RegularExpression.obj
 0001:00011310       ?removeLastElement@?$BaseRefVectorOf@VENameMap@xercesc_2_5@@@xercesc_2_5@@UAEXXZ 12012310 f i RegularExpression.obj
 0001:00011310       ?removeLastElement@?$BaseRefVectorOf@VTreeWalkerImpl@xercesc_2_5@@@xercesc_2_5@@UAEXXZ 12012310 f i RegularExpression.obj
 0001:00011310       ?removeLastElement@?$BaseRefVectorOf@VOp@xercesc_2_5@@@xercesc_2_5@@UAEXXZ 12012310 f i RegularExpression.obj
 0001:00011310       ?removeLastElement@?$BaseRefVectorOf@VXercesStep@xercesc_2_5@@@xercesc_2_5@@UAEXXZ 12012310 f i RegularExpression.obj
 0001:00011310       ?removeLastElement@?$BaseRefVectorOf@VXSMultiValueFacet@xercesc_2_5@@@xercesc_2_5@@UAEXXZ 12012310 f i RegularExpression.obj
 0001:00011310       ?removeLastElement@?$BaseRefVectorOf@VXSAttributeUse@xercesc_2_5@@@xercesc_2_5@@UAEXXZ 12012310 f i RegularExpression.obj
 0001:00011310       ?removeLastElement@?$BaseRefVectorOf@VXSAttributeDeclaration@xercesc_2_5@@@xercesc_2_5@@UAEXXZ 12012310 f i RegularExpression.obj
 0001:00011310       ?removeLastElement@?$BaseRefVectorOf@VXMLEntityDecl@xercesc_2_5@@@xercesc_2_5@@UAEXXZ 12012310 f i RegularExpression.obj
 0001:00011310       ?removeLastElement@?$BaseRefVectorOf@VDOMRangeImpl@xercesc_2_5@@@xercesc_2_5@@UAEXXZ 12012310 f i RegularExpression.obj
 0001:00011310       ?removeLastElement@?$BaseRefVectorOf@VContentSpecNode@xercesc_2_5@@@xercesc_2_5@@UAEXXZ 12012310 f i RegularExpression.obj
 0001:00011310       ?removeLastElement@?$BaseRefVectorOf@VSchemaElementDecl@xercesc_2_5@@@xercesc_2_5@@UAEXXZ 12012310 f i RegularExpression.obj
 0001:00011310       ?removeLastElement@?$BaseRefVectorOf@VXSIDCDefinition@xercesc_2_5@@@xercesc_2_5@@UAEXXZ 12012310 f i RegularExpression.obj
 0001:00011310       ?removeLastElement@?$BaseRefVectorOf@VNodeImpl@xercesc_2_5@@@xercesc_2_5@@UAEXXZ 12012310 f i RegularExpression.obj
 0001:00011310       ?removeLastElement@?$BaseRefVectorOf@VDOMNodeIteratorImpl@xercesc_2_5@@@xercesc_2_5@@UAEXXZ 12012310 f i RegularExpression.obj
 0001:00011310       ?removeLastElement@?$BaseRefVectorOf@VPSVIAttribute@xercesc_2_5@@@xercesc_2_5@@UAEXXZ 12012310 f i RegularExpression.obj
 0001:00011310       ?removeLastElement@?$BaseRefVectorOf@VDOMDocumentImpl@xercesc_2_5@@@xercesc_2_5@@UAEXXZ 12012310 f i RegularExpression.obj
 0001:00011310       ?removeLastElement@?$BaseRefVectorOf@VXSFacet@xercesc_2_5@@@xercesc_2_5@@UAEXXZ 12012310 f i RegularExpression.obj
 0001:00011340       ??_E?$RefArrayVectorOf@G@xercesc_2_5@@UAEPAXI@Z 12012340 f i RegularExpression.obj
 0001:00011340       ??_G?$RefArrayVectorOf@G@xercesc_2_5@@UAEPAXI@Z 12012340 f i RegularExpression.obj
 0001:00011360       ??1?$RefArrayVectorOf@G@xercesc_2_5@@UAE@XZ 12012360 f i RegularExpression.obj
 0001:000113e0       ??1?$BaseRefVectorOf@G@xercesc_2_5@@UAE@XZ 120123e0 f i RegularExpression.obj
 0001:000113f0       ??_E?$RefVectorOf@VMatch@xercesc_2_5@@@xercesc_2_5@@UAEPAXI@Z 120123f0 f i RegularExpression.obj
 0001:000113f0       ??_G?$RefVectorOf@VMatch@xercesc_2_5@@@xercesc_2_5@@UAEPAXI@Z 120123f0 f i RegularExpression.obj
 0001:00011410       ??1?$RefVectorOf@VMatch@xercesc_2_5@@@xercesc_2_5@@UAE@XZ 12012410 f i RegularExpression.obj
 0001:00011490       ??1?$BaseRefVectorOf@VMatch@xercesc_2_5@@@xercesc_2_5@@UAE@XZ 12012490 f i RegularExpression.obj
 0001:000114a0       ??0?$BaseRefVectorOf@VMatch@xercesc_2_5@@@xercesc_2_5@@QAE@I_NQAVMemoryManager@1@@Z 120124a0 f i RegularExpression.obj
 0001:00011500       ??0RegxParser@xercesc_2_5@@QAE@QAVMemoryManager@1@@Z 12012500 f   RegxParser.obj
 0001:00011550       ??_ERegxParser@xercesc_2_5@@UAEPAXI@Z 12012550 f i RegxParser.obj
 0001:000115b0       ??1RegxParser@xercesc_2_5@@UAE@XZ 120125b0 f   RegxParser.obj
 0001:00011620       ?parse@RegxParser@xercesc_2_5@@QAEPAVToken@2@QBGH@Z 12012620 f   RegxParser.obj
 0001:000118b0       ?processNext@RegxParser@xercesc_2_5@@IAEXXZ 120128b0 f   RegxParser.obj
 0001:00011ee0       ?parseRegx@RegxParser@xercesc_2_5@@IAEPAVToken@2@_N@Z 12012ee0 f   RegxParser.obj
 0001:00011f50       ?parseTerm@RegxParser@xercesc_2_5@@AAEPAVToken@2@_N@Z 12012f50 f   RegxParser.obj
 0001:00012000       ?processCaret@RegxParser@xercesc_2_5@@MAEPAVToken@2@XZ 12013000 f   RegxParser.obj
 0001:00012020       ?processDollar@RegxParser@xercesc_2_5@@MAEPAVToken@2@XZ 12013020 f   RegxParser.obj
 0001:00012040       ?processLook@RegxParser@xercesc_2_5@@MAEPAVToken@2@G@Z 12013040 f   RegxParser.obj
 0001:00012100       ?processBacksolidus_A@RegxParser@xercesc_2_5@@MAEPAVToken@2@XZ 12013100 f   RegxParser.obj
 0001:00012120       ?processBacksolidus_Z@RegxParser@xercesc_2_5@@MAEPAVToken@2@XZ 12013120 f   RegxParser.obj
 0001:00012140       ?processBacksolidus_z@RegxParser@xercesc_2_5@@MAEPAVToken@2@XZ 12013140 f   RegxParser.obj
 0001:00012160       ?processBacksolidus_b@RegxParser@xercesc_2_5@@MAEPAVToken@2@XZ 12013160 f   RegxParser.obj
 0001:00012180       ?processBacksolidus_B@RegxParser@xercesc_2_5@@MAEPAVToken@2@XZ 12013180 f   RegxParser.obj
 0001:000121a0       ?processBacksolidus_lt@RegxParser@xercesc_2_5@@MAEPAVToken@2@XZ 120131a0 f   RegxParser.obj
 0001:000121c0       ?processBacksolidus_gt@RegxParser@xercesc_2_5@@MAEPAVToken@2@XZ 120131c0 f   RegxParser.obj
 0001:000121e0       ?processStar@RegxParser@xercesc_2_5@@MAEPAVToken@2@QAV32@@Z 120131e0 f   RegxParser.obj
 0001:00012220       ?processPlus@RegxParser@xercesc_2_5@@MAEPAVToken@2@QAV32@@Z 12013220 f   RegxParser.obj
 0001:00012260       ?processQuestion@RegxParser@xercesc_2_5@@MAEPAVToken@2@QAV32@@Z 12013260 f   RegxParser.obj
 0001:000122e0       ?processParen@RegxParser@xercesc_2_5@@MAEPAVToken@2@XZ 120132e0 f   RegxParser.obj
 0001:000123a0       ?processParen2@RegxParser@xercesc_2_5@@MAEPAVToken@2@XZ 120133a0 f   RegxParser.obj
 0001:00012450       ?processCondition@RegxParser@xercesc_2_5@@MAEPAVToken@2@XZ 12013450 f   RegxParser.obj
 0001:00012800       ?processModifiers@RegxParser@xercesc_2_5@@MAEPAVToken@2@XZ 12013800 f   RegxParser.obj
 0001:00012a60       ?processIndependent@RegxParser@xercesc_2_5@@MAEPAVToken@2@XZ 12013a60 f   RegxParser.obj
 0001:00012b10       ?processBacksolidus_c@RegxParser@xercesc_2_5@@MAEPAVToken@2@XZ 12013b10 f   RegxParser.obj
 0001:00012b80       ?processBacksolidus_i@RegxParser@xercesc_2_5@@MAEPAVToken@2@XZ 12013b80 f   RegxParser.obj
 0001:00012ba0       ?processBacksolidus_g@RegxParser@xercesc_2_5@@MAEPAVToken@2@XZ 12013ba0 f   RegxParser.obj
 0001:00012bc0       ?processBacksolidus_X@RegxParser@xercesc_2_5@@MAEPAVToken@2@XZ 12013bc0 f   RegxParser.obj
 0001:00012be0       ?processBackReference@RegxParser@xercesc_2_5@@MAEPAVToken@2@XZ 12013be0 f   RegxParser.obj
 0001:00012d50       ?parseFactor@RegxParser@xercesc_2_5@@AAEPAVToken@2@XZ 12013d50 f   RegxParser.obj
 0001:00013200       ?parseAtom@RegxParser@xercesc_2_5@@AAEPAVToken@2@XZ 12014200 f   RegxParser.obj
 0001:00013690       ?processBacksolidus_pP@RegxParser@xercesc_2_5@@IAEPAVRangeToken@2@H@Z 12014690 f   RegxParser.obj
 0001:00013810       ?processCInCharacterClass@RegxParser@xercesc_2_5@@MAEHQAVRangeToken@2@H@Z 12014810 f   RegxParser.obj
 0001:00013820       ?parseCharacterClass@RegxParser@xercesc_2_5@@MAEPAVRangeToken@2@_N@Z 12014820 f   RegxParser.obj
 0001:00013da0       ?parseSetOperations@RegxParser@xercesc_2_5@@MAEPAVRangeToken@2@XZ 12014da0 f   RegxParser.obj
 0001:00013eb0       ?getTokenForShorthand@RegxParser@xercesc_2_5@@MAEPAVToken@2@H@Z 12014eb0 f   RegxParser.obj
 0001:00013fe0       ?decodeEscaped@RegxParser@xercesc_2_5@@MAEHXZ 12014fe0 f   RegxParser.obj
 0001:00014490       ?checkQuestion@RegxParser@xercesc_2_5@@MAE_NH@Z 12015490 f   RegxParser.obj
 0001:000144b0       ?setElementAt@?$BaseRefVectorOf@VReferencePosition@RegxParser@xercesc_2_5@@@xercesc_2_5@@UAEXQAVReferencePosition@RegxParser@2@I@Z 120154b0 f i RegxParser.obj
 0001:00014510       ?removeAllElements@?$BaseRefVectorOf@VReferencePosition@RegxParser@xercesc_2_5@@@xercesc_2_5@@UAEXXZ 12015510 f i RegxParser.obj
 0001:00014550       ?removeElementAt@?$BaseRefVectorOf@VReferencePosition@RegxParser@xercesc_2_5@@@xercesc_2_5@@UAEXI@Z 12015550 f i RegxParser.obj
 0001:00014600       ?removeLastElement@?$BaseRefVectorOf@VReferencePosition@RegxParser@xercesc_2_5@@@xercesc_2_5@@UAEXXZ 12015600 f i RegxParser.obj
 0001:00014620       ?cleanup@?$BaseRefVectorOf@VReferencePosition@RegxParser@xercesc_2_5@@@xercesc_2_5@@UAEXXZ 12015620 f i RegxParser.obj
 0001:00014660       ??_E?$RefVectorOf@VReferencePosition@RegxParser@xercesc_2_5@@@xercesc_2_5@@UAEPAXI@Z 12015660 f i RegxParser.obj
 0001:00014660       ??_G?$RefVectorOf@VReferencePosition@RegxParser@xercesc_2_5@@@xercesc_2_5@@UAEPAXI@Z 12015660 f i RegxParser.obj
 0001:00014680       ??1?$RefVectorOf@VReferencePosition@RegxParser@xercesc_2_5@@@xercesc_2_5@@UAE@XZ 12015680 f i RegxParser.obj
 0001:00014700       ??1?$BaseRefVectorOf@VReferencePosition@RegxParser@xercesc_2_5@@@xercesc_2_5@@UAE@XZ 12015700 f i RegxParser.obj
 0001:00014710       ??0?$BaseRefVectorOf@VReferencePosition@RegxParser@xercesc_2_5@@@xercesc_2_5@@QAE@I_NQAVMemoryManager@1@@Z 12015710 f i RegxParser.obj
 0001:00014770       ?decomposeToSurrogates@RegxUtil@xercesc_2_5@@SAPAGHQAVMemoryManager@2@@Z 12015770 f   RegxUtil.obj
 0001:000147b0       ?stripExtendedComment@RegxUtil@xercesc_2_5@@SAPAGQBGQAVMemoryManager@2@@Z 120157b0 f   RegxUtil.obj
 0001:000148e0       ??0StringToken@xercesc_2_5@@QAE@GQBGHQAVMemoryManager@1@@Z 120158e0 f   StringToken.obj
 0001:00014990       ??_EStringToken@xercesc_2_5@@UAEPAXI@Z 12015990 f i StringToken.obj
 0001:000149f0       ??1StringToken@xercesc_2_5@@UAE@XZ 120159f0 f   StringToken.obj
 0001:00014a50       ??0Token@xercesc_2_5@@QAE@GQAVMemoryManager@1@@Z 12015a50 f   Token.obj
 0001:00014a70       ??_EToken@xercesc_2_5@@UAEPAXI@Z 12015a70 f i Token.obj
 0001:00014ad0       ??1Token@xercesc_2_5@@UAE@XZ 12015ad0 f   Token.obj
 0001:00014ae0       ?getMinLength@Token@xercesc_2_5@@QBEHXZ 12015ae0 f   Token.obj
 0001:00014c50       ?getMaxLength@Token@xercesc_2_5@@QBEHXZ 12015c50 f   Token.obj
 0001:00014df0       ?analyzeFirstCharacter@Token@xercesc_2_5@@QAEHQAVRangeToken@2@HQAVTokenFactory@2@@Z 12015df0 f   Token.obj
 0001:000150b0       ?findFixedString@Token@xercesc_2_5@@QAEPAV12@HAAH@Z 120160b0 f   Token.obj
 0001:00015240       ?isShorterThan@Token@xercesc_2_5@@AAE_NQAV12@@Z 12016240 f   Token.obj
 0001:00015300       ?reinitTokenFactoryMutex@TokenFactory@xercesc_2_5@@SAXXZ 12016300 f   TokenFactory.obj
 0001:00015330       ??0TokenFactory@xercesc_2_5@@QAE@QAVMemoryManager@1@@Z 12016330 f   TokenFactory.obj
 0001:00015400       ?createToken@TokenFactory@xercesc_2_5@@QAEPAVToken@2@G@Z 12016400 f   TokenFactory.obj
 0001:00015510       ?createLook@TokenFactory@xercesc_2_5@@QAEPAVParenToken@2@GQAVToken@2@@Z 12016510 f   TokenFactory.obj
 0001:00015600       ?createParenthesis@TokenFactory@xercesc_2_5@@QAEPAVParenToken@2@QAVToken@2@H@Z 12016600 f   TokenFactory.obj
 0001:00015700       ?createClosure@TokenFactory@xercesc_2_5@@QAEPAVClosureToken@2@QAVToken@2@_N@Z 12016700 f   TokenFactory.obj
 0001:00015820       ?createConcat@TokenFactory@xercesc_2_5@@QAEPAVConcatToken@2@QAVToken@2@0@Z 12016820 f   TokenFactory.obj
 0001:00015910       ?createUnion@TokenFactory@xercesc_2_5@@QAEPAVUnionToken@2@_N@Z 12016910 f   TokenFactory.obj
 0001:00015a30       ?createRange@TokenFactory@xercesc_2_5@@QAEPAVRangeToken@2@_N@Z 12016a30 f   TokenFactory.obj
 0001:00015b50       ?createChar@TokenFactory@xercesc_2_5@@QAEPAVCharToken@2@I_N@Z 12016b50 f   TokenFactory.obj
 0001:00015c70       ?createBackReference@TokenFactory@xercesc_2_5@@QAEPAVStringToken@2@H@Z 12016c70 f   TokenFactory.obj
 0001:00015d60       ?createString@TokenFactory@xercesc_2_5@@QAEPAVStringToken@2@QBG@Z 12016d60 f   TokenFactory.obj
 0001:00015e50       ?createModifierGroup@TokenFactory@xercesc_2_5@@QAEPAVModifierToken@2@QAVToken@2@HH@Z 12016e50 f   TokenFactory.obj
 0001:00015f50       ?createCondition@TokenFactory@xercesc_2_5@@QAEPAVConditionToken@2@HQAVToken@2@00@Z 12016f50 f   TokenFactory.obj
 0001:00016050       ?getRange@TokenFactory@xercesc_2_5@@QAEPAVRangeToken@2@QBG_N@Z 12017050 f   TokenFactory.obj
 0001:00016080       ?getLineBegin@TokenFactory@xercesc_2_5@@QAEPAVToken@2@XZ 12017080 f   TokenFactory.obj
 0001:000160a0       ?getLineBegin2@TokenFactory@xercesc_2_5@@QAEPAVToken@2@XZ 120170a0 f   TokenFactory.obj
 0001:000160c0       ?getLineEnd@TokenFactory@xercesc_2_5@@QAEPAVToken@2@XZ 120170c0 f   TokenFactory.obj
 0001:000160e0       ?getStringBegin@TokenFactory@xercesc_2_5@@QAEPAVToken@2@XZ 120170e0 f   TokenFactory.obj
 0001:00016100       ?getStringEnd@TokenFactory@xercesc_2_5@@QAEPAVToken@2@XZ 12017100 f   TokenFactory.obj
 0001:00016120       ?getStringEnd2@TokenFactory@xercesc_2_5@@QAEPAVToken@2@XZ 12017120 f   TokenFactory.obj
 0001:00016140       ?getWordEdge@TokenFactory@xercesc_2_5@@QAEPAVToken@2@XZ 12017140 f   TokenFactory.obj
 0001:00016160       ?getNotWordEdge@TokenFactory@xercesc_2_5@@QAEPAVToken@2@XZ 12017160 f   TokenFactory.obj
 0001:00016180       ?getWordBegin@TokenFactory@xercesc_2_5@@QAEPAVToken@2@XZ 12017180 f   TokenFactory.obj
 0001:000161a0       ?getWordEnd@TokenFactory@xercesc_2_5@@QAEPAVToken@2@XZ 120171a0 f   TokenFactory.obj
 0001:000161c0       ?getDot@TokenFactory@xercesc_2_5@@QAEPAVToken@2@XZ 120171c0 f   TokenFactory.obj
 0001:000161e0       ?getCombiningCharacterSequence@TokenFactory@xercesc_2_5@@QAEPAVToken@2@XZ 120171e0 f   TokenFactory.obj
 0001:00016250       ?getGraphemePattern@TokenFactory@xercesc_2_5@@QAEPAVToken@2@XZ 12017250 f   TokenFactory.obj
 0001:000164c0       ?initializeRegistry@TokenFactory@xercesc_2_5@@AAEXXZ 120174c0 f   TokenFactory.obj
 0001:00016750       ??_G?$RefVectorOf@VToken@xercesc_2_5@@@xercesc_2_5@@UAEPAXI@Z 12017750 f i TokenFactory.obj
 0001:00016750       ??_E?$RefVectorOf@VToken@xercesc_2_5@@@xercesc_2_5@@UAEPAXI@Z 12017750 f i TokenFactory.obj
 0001:00016770       ??1?$RefVectorOf@VToken@xercesc_2_5@@@xercesc_2_5@@UAE@XZ 12017770 f i TokenFactory.obj
 0001:000167f0       ??1?$BaseRefVectorOf@VToken@xercesc_2_5@@@xercesc_2_5@@UAE@XZ 120177f0 f i TokenFactory.obj
 0001:00016800       ??0UnicodeRangeFactory@xercesc_2_5@@QAE@XZ 12017800 f   UnicodeRangeFactory.obj
 0001:00016820       ??_EUnicodeRangeFactory@xercesc_2_5@@UAEPAXI@Z 12017820 f i UnicodeRangeFactory.obj
 0001:00016880       ??1UnicodeRangeFactory@xercesc_2_5@@UAE@XZ 12017880 f   UnicodeRangeFactory.obj
 0001:00016890       ?buildRanges@UnicodeRangeFactory@xercesc_2_5@@MAEXXZ 12017890 f   UnicodeRangeFactory.obj
 0001:00016ad0       ?initializeKeywordMap@UnicodeRangeFactory@xercesc_2_5@@UAEXXZ 12017ad0 f   UnicodeRangeFactory.obj
 0001:00016b70       ?getUniCategory@UnicodeRangeFactory@xercesc_2_5@@AAEGG@Z 12017b70 f   UnicodeRangeFactory.obj
 0001:00016c00       ??0UnionToken@xercesc_2_5@@QAE@GQAVMemoryManager@1@@Z 12017c00 f   UnionToken.obj
 0001:00016c30       ??_EUnionToken@xercesc_2_5@@UAEPAXI@Z 12017c30 f i UnionToken.obj
 0001:00016c90       ??1UnionToken@xercesc_2_5@@UAE@XZ 12017c90 f   UnionToken.obj
 0001:00016cf0       ?addChild@UnionToken@xercesc_2_5@@UAEXQAVToken@2@QAVTokenFactory@2@@Z 12017cf0 f   UnionToken.obj
 0001:00017080       ??0?$BaseRefVectorOf@VToken@xercesc_2_5@@@xercesc_2_5@@QAE@I_NQAVMemoryManager@1@@Z 12018080 f i UnionToken.obj
 0001:000170e0       ??0XMLRangeFactory@xercesc_2_5@@QAE@XZ 120180e0 f   XMLRangeFactory.obj
 0001:00017100       ??_EXMLRangeFactory@xercesc_2_5@@UAEPAXI@Z 12018100 f i XMLRangeFactory.obj
 0001:00017160       ??1XMLRangeFactory@xercesc_2_5@@UAE@XZ 12018160 f   XMLRangeFactory.obj
 0001:00017170       ?buildRanges@XMLRangeFactory@xercesc_2_5@@MAEXXZ 12018170 f   XMLRangeFactory.obj
 0001:00017850       ?initializeKeywordMap@XMLRangeFactory@xercesc_2_5@@UAEXXZ 12018850 f   XMLRangeFactory.obj
 0001:000178c0       ?getType@XMLUniCharacter@xercesc_2_5@@SAGG@Z 120188c0 f   XMLUniCharacter.obj
 0001:000178e0       ?isPad@Base64@xercesc_2_5@@CA_NABE@Z 120188e0 f i Base64.obj
 0001:00017900       ?set1stOctet@Base64@xercesc_2_5@@CAEABE0@Z 12018900 f i Base64.obj
 0001:00017920       ?set2ndOctet@Base64@xercesc_2_5@@CAEABE0@Z 12018920 f i Base64.obj
 0001:00017940       ?set3rdOctet@Base64@xercesc_2_5@@CAEABE0@Z 12018940 f i Base64.obj
 0001:00017960       ?split1stOctet@Base64@xercesc_2_5@@CAXABEAAE1@Z 12018960 f i Base64.obj
 0001:00017980       ?split2ndOctet@Base64@xercesc_2_5@@CAXABEAAE1@Z 12018980 f i Base64.obj
 0001:000179b0       ?split3rdOctet@Base64@xercesc_2_5@@CAXABEAAE1@Z 120189b0 f i Base64.obj
 0001:000179d0       ?isXMLLetter@XMLChar1_0@xercesc_2_5@@SA_NGG@Z 120189d0 f i Base64.obj
 0001:000179f0       ?isFirstNameChar@XMLChar1_0@xercesc_2_5@@SA_NGG@Z 120189f0 f i Base64.obj
 0001:00017a20       ?isNameChar@XMLChar1_0@xercesc_2_5@@SA_NGG@Z 12018a20 f i Base64.obj
 0001:00017a50       ?isPlainContentChar@XMLChar1_0@xercesc_2_5@@SA_NGG@Z 12018a50 f i Base64.obj
 0001:00017aa0       ?isSpecialStartTagChar@XMLChar1_0@xercesc_2_5@@SA_NGG@Z 12018aa0 f i Base64.obj
 0001:00017ad0       ?isXMLChar@XMLChar1_0@xercesc_2_5@@SA_NGG@Z 12018ad0 f i Base64.obj
 0001:00017b20       ?isWhitespace@XMLChar1_0@xercesc_2_5@@SA_NG@Z 12018b20 f i Base64.obj
 0001:00017b40       ?isWhitespace@XMLChar1_0@xercesc_2_5@@SA_NGG@Z 12018b40 f i Base64.obj
 0001:00017b70       ?isControlChar@XMLChar1_0@xercesc_2_5@@SA_NGG@Z 12018b70 f i Base64.obj
 0001:00017ba0       ?isNELRecognized@XMLChar1_0@xercesc_2_5@@SA_NXZ 12018ba0 f i Base64.obj
 0001:00017bb0       ?isXMLLetter@XMLChar1_1@xercesc_2_5@@SA_NGG@Z 12018bb0 f i Base64.obj
 0001:00017bd0       ?isFirstNameChar@XMLChar1_1@xercesc_2_5@@SA_NGG@Z 12018bd0 f i Base64.obj
 0001:00017c20       ?isNameChar@XMLChar1_1@xercesc_2_5@@SA_NGG@Z 12018c20 f i Base64.obj
 0001:00017c70       ?isPlainContentChar@XMLChar1_1@xercesc_2_5@@SA_NGG@Z 12018c70 f i Base64.obj
 0001:00017cc0       ?isSpecialStartTagChar@XMLChar1_1@xercesc_2_5@@SA_NGG@Z 12018cc0 f i Base64.obj
 0001:00017cf0       ?isXMLChar@XMLChar1_1@xercesc_2_5@@SA_NGG@Z 12018cf0 f i Base64.obj
 0001:00017d40       ?isWhitespace@XMLChar1_1@xercesc_2_5@@SA_NGG@Z 12018d40 f i Base64.obj
 0001:00017d70       ?isControlChar@XMLChar1_1@xercesc_2_5@@SA_NGG@Z 12018d70 f i Base64.obj
 0001:00017da0       ?isNameChar@XMLReader@xercesc_2_5@@QAE_NG@Z 12018da0 f i Base64.obj
 0001:00017dc0       ?isPlainContentChar@XMLReader@xercesc_2_5@@QAE_NG@Z 12018dc0 f i Base64.obj
 0001:00017de0       ?isFirstNameChar@XMLReader@xercesc_2_5@@QAE_NG@Z 12018de0 f i Base64.obj
 0001:00017e00       ?isSpecialStartTagChar@XMLReader@xercesc_2_5@@QAE_NG@Z 12018e00 f i Base64.obj
 0001:00017e20       ?isXMLChar@XMLReader@xercesc_2_5@@QAE_NG@Z 12018e20 f i Base64.obj
 0001:00017e40       ?isXMLLetter@XMLReader@xercesc_2_5@@QAE_NG@Z 12018e40 f i Base64.obj
 0001:00017e60       ?isWhitespace@XMLReader@xercesc_2_5@@QAE_NG@Z 12018e60 f i Base64.obj
 0001:00017e80       ?isControlChar@XMLReader@xercesc_2_5@@QAE_NG@Z 12018e80 f i Base64.obj
 0001:00017ea0       ?charsLeftInBuffer@XMLReader@xercesc_2_5@@QBEKXZ 12018ea0 f i Base64.obj
 0001:00017eb0       ?getColumnNumber@XMLReader@xercesc_2_5@@QBEJXZ 12018eb0 f i Base64.obj
 0001:00017ec0       ?getEncodingStr@XMLReader@xercesc_2_5@@QBEPBGXZ 12018ec0 f i Base64.obj
 0001:00017ed0       ?getLineNumber@XMLReader@xercesc_2_5@@QBEJXZ 12018ed0 f i Base64.obj
 0001:00017ee0       ?getNoMoreFlag@XMLReader@xercesc_2_5@@QBE_NXZ 12018ee0 f i Base64.obj
 0001:00017ef0       ?getPublicId@XMLReader@xercesc_2_5@@QBEPBGXZ 12018ef0 f i Base64.obj
 0001:00017f00       ?getReaderNum@XMLReader@xercesc_2_5@@QBEIXZ 12018f00 f i Base64.obj
 0001:00017f10       ?getRefFrom@XMLReader@xercesc_2_5@@QBE?AW4RefFrom@12@XZ 12018f10 f i Base64.obj
 0001:00017f20       ?getSource@XMLReader@xercesc_2_5@@QBE?AW4Sources@12@XZ 12018f20 f i Base64.obj
 0001:00017f30       ?getSystemId@XMLReader@xercesc_2_5@@QBEPBGXZ 12018f30 f i Base64.obj
 0001:00017f40       ?getThrowAtEnd@XMLReader@xercesc_2_5@@QBE_NXZ 12018f40 f i Base64.obj
 0001:00017f50       ?getType@XMLReader@xercesc_2_5@@QBE?AW4Types@12@XZ 12018f50 f i Base64.obj
 0001:00017f60       ?setReaderNum@XMLReader@xercesc_2_5@@QAEXI@Z 12018f60 f i Base64.obj
 0001:00017f70       ?setThrowAtEnd@XMLReader@xercesc_2_5@@QAEX_N@Z 12018f70 f i Base64.obj
 0001:00017f80       ?setXMLVersion@XMLReader@xercesc_2_5@@QAEXW4XMLVersion@12@@Z 12018f80 f i Base64.obj
 0001:00017fc0       ?movePlainContentChars@XMLReader@xercesc_2_5@@QAEXAAVXMLBuffer@2@@Z 12018fc0 f i Base64.obj
 0001:00018020       ?getNextCharIfNot@XMLReader@xercesc_2_5@@QAE_NGAAG@Z 12019020 f i Base64.obj
 0001:00018140       ?getNextChar@XMLReader@xercesc_2_5@@QAE_NAAG@Z 12019140 f i Base64.obj
 0001:00018230       ?peekNextChar@XMLReader@xercesc_2_5@@QAE_NAAG@Z 12019230 f i Base64.obj
 0001:000182a0       ?encode@Base64@xercesc_2_5@@SAPAEQBEIPAIQAVMemoryManager@2@@Z 120192a0 f   Base64.obj
 0001:00018520       ?getDataLength@Base64@xercesc_2_5@@SAHQBGQAVMemoryManager@2@@Z 12019520 f   Base64.obj
 0001:00018570       ?decode@Base64@xercesc_2_5@@SAPAEQBEPAIQAVMemoryManager@2@@Z 12019570 f   Base64.obj
 0001:000189e0       ?decode@Base64@xercesc_2_5@@SAPAGQBGPAIQAVMemoryManager@2@@Z 120199e0 f   Base64.obj
 0001:00018bb0       ?init@Base64@xercesc_2_5@@CAXXZ 12019bb0 f   Base64.obj
 0001:00018bf0       ?isData@Base64@xercesc_2_5@@CA_NABE@Z 12019bf0 f   Base64.obj
 0001:00018c10       ?reset@?$ArrayJanitor@G@xercesc_2_5@@QAEXPAG@Z 12019c10 f i Base64.obj
 0001:00018c10       ?reset@?$ArrayJanitor@E@xercesc_2_5@@QAEXPAE@Z 12019c10 f i Base64.obj
 0001:00018c70       ?getIsOpen@BinFileInputStream@xercesc_2_5@@QBE_NXZ 12019c70 f i BinFileInputStream.obj
 0001:00018c70       ?getIsOpen@BinFileOutputStream@xercesc_2_5@@QBE_NXZ 12019c70 f i BinFileInputStream.obj
 0001:00018c80       ??0BinFileInputStream@xercesc_2_5@@QAE@QBGQAVMemoryManager@1@@Z 12019c80 f   BinFileInputStream.obj
 0001:00018ce0       ??_EBinFileInputStream@xercesc_2_5@@UAEPAXI@Z 12019ce0 f i BinFileInputStream.obj
 0001:00018d40       ??0BinFileInputStream@xercesc_2_5@@QAE@QBDQAVMemoryManager@1@@Z 12019d40 f   BinFileInputStream.obj
 0001:00018de0       ??0BinFileInputStream@xercesc_2_5@@QAE@QAXQAVMemoryManager@1@@Z 12019de0 f   BinFileInputStream.obj
 0001:00018e10       ??1BinFileInputStream@xercesc_2_5@@UAE@XZ 12019e10 f   BinFileInputStream.obj
 0001:00018e70       ?curPos@BinFileInputStream@xercesc_2_5@@UBEIXZ 12019e70 f   BinFileInputStream.obj
 0001:00018e70       ?curPos@BinFileOutputStream@xercesc_2_5@@UBEIXZ 12019e70 f   BinFileInputStream.obj
 0001:00018e90       ?readBytes@BinFileInputStream@xercesc_2_5@@UAEIQAEI@Z 12019e90 f   BinFileInputStream.obj
 0001:00018eb0       ??1BinInputStream@xercesc_2_5@@UAE@XZ 12019eb0 f   BinInputStream.obj
 0001:00018ec0       ??_EBinInputStream@xercesc_2_5@@UAEPAXI@Z 12019ec0 f i BinInputStream.obj
 0001:00018f20       ??0BinInputStream@xercesc_2_5@@IAE@XZ 12019f20 f   BinInputStream.obj
 0001:00018f30       ?reset@BinMemInputStream@xercesc_2_5@@QAEXXZ 12019f30 f i BinMemInputStream.obj
 0001:00018f30       ?reset@PSVIAttributeList@xercesc_2_5@@QAEXXZ 12019f30 f i BinMemInputStream.obj
 0001:00018f40       ??0BinMemInputStream@xercesc_2_5@@QAE@QBEIW4BufOpts@01@QAVMemoryManager@1@@Z 12019f40 f   BinMemInputStream.obj
 0001:00018ff0       ??_EBinMemInputStream@xercesc_2_5@@UAEPAXI@Z 12019ff0 f i BinMemInputStream.obj
 0001:00019050       ??1BinMemInputStream@xercesc_2_5@@UAE@XZ 1201a050 f   BinMemInputStream.obj
 0001:000190c0       ?readBytes@BinMemInputStream@xercesc_2_5@@UAEIQAEI@Z 1201a0c0 f   BinMemInputStream.obj
 0001:00019110       ??0BitSet@xercesc_2_5@@QAE@IQAVMemoryManager@1@@Z 1201a110 f   BitSet.obj
 0001:00019140       ??0BitSet@xercesc_2_5@@QAE@ABV01@@Z 1201a140 f   BitSet.obj
 0001:00019190       ??1BitSet@xercesc_2_5@@QAE@XZ 1201a190 f   BitSet.obj
 0001:000191a0       ?equals@BitSet@xercesc_2_5@@QBE_NABV12@@Z 1201a1a0 f   BitSet.obj
 0001:000191e0       ?get@BitSet@xercesc_2_5@@QBE_NI@Z 1201a1e0 f   BitSet.obj
 0001:00019210       ?size@BitSet@xercesc_2_5@@QBEIXZ 1201a210 f   BitSet.obj
 0001:00019220       ?allAreCleared@BitSet@xercesc_2_5@@QBE_NXZ 1201a220 f   BitSet.obj
 0001:00019240       ?allAreSet@BitSet@xercesc_2_5@@QBE_NXZ 1201a240 f   BitSet.obj
 0001:00019260       ?clearAll@BitSet@xercesc_2_5@@QAEXXZ 1201a260 f   BitSet.obj
 0001:00019280       ?clear@BitSet@xercesc_2_5@@QAEXI@Z 1201a280 f   BitSet.obj
 0001:000192c0       ?set@BitSet@xercesc_2_5@@QAEXI@Z 1201a2c0 f   BitSet.obj
 0001:00019300       ?andWith@BitSet@xercesc_2_5@@QAEXABV12@@Z 1201a300 f   BitSet.obj
 0001:00019350       ?orWith@BitSet@xercesc_2_5@@QAEXABV12@@Z 1201a350 f   BitSet.obj
 0001:000193a0       ?xorWith@BitSet@xercesc_2_5@@QAEXABV12@@Z 1201a3a0 f   BitSet.obj
 0001:000193f0       ?hash@BitSet@xercesc_2_5@@QBEII@Z 1201a3f0 f   BitSet.obj
 0001:00019420       ?ensureCapacity@BitSet@xercesc_2_5@@AAEXI@Z 1201a420 f   BitSet.obj
 0001:000194a0       ??0DefaultPanicHandler@xercesc_2_5@@QAE@XZ 1201a4a0 f i DefaultPanicHandler.obj
 0001:000194b0       ??1PanicHandler@xercesc_2_5@@UAE@XZ 1201a4b0 f i DefaultPanicHandler.obj
 0001:000194b0       ??1DefaultPanicHandler@xercesc_2_5@@UAE@XZ 1201a4b0 f i DefaultPanicHandler.obj
 0001:000194c0       ??_EDefaultPanicHandler@xercesc_2_5@@UAEPAXI@Z 1201a4c0 f i DefaultPanicHandler.obj
 0001:00019520       ?panic@DefaultPanicHandler@xercesc_2_5@@UAEXW4PanicReasons@PanicHandler@2@@Z 1201a520 f   DefaultPanicHandler.obj
 0001:00019550       ??4EncodingValidator@xercesc_2_5@@QAEAAV01@ABV01@@Z 1201a550 f i EncodingValidator.obj
 0001:00019580       ??0EncodingValidator@xercesc_2_5@@AAE@XZ 1201a580 f   EncodingValidator.obj
 0001:000195a0       ??1EncodingValidator@xercesc_2_5@@AAE@XZ 1201a5a0 f   EncodingValidator.obj
 0001:00019620       ?isValidEncoding@EncodingValidator@xercesc_2_5@@QAE_NQBG@Z 1201a620 f   EncodingValidator.obj
 0001:000196b0       ?initializeRegistry@EncodingValidator@xercesc_2_5@@AAEXXZ 1201a6b0 f   EncodingValidator.obj
 0001:00019870       ?instance@EncodingValidator@xercesc_2_5@@SAPAV12@XZ 1201a870 f   EncodingValidator.obj
 0001:00019b20       ?reinitInstance@EncodingValidator@xercesc_2_5@@SAXXZ 1201ab20 f   EncodingValidator.obj
 0001:00019bd0       ?put@?$ValueHashTableOf@_N@xercesc_2_5@@QAEXPAXAB_N@Z 1201abd0 f i EncodingValidator.obj
 0001:00019cd0       ?initialize@?$ValueHashTableOf@G@xercesc_2_5@@AAEXI@Z 1201acd0 f i EncodingValidator.obj
 0001:00019cd0       ?initialize@?$ValueHashTableOf@_N@xercesc_2_5@@AAEXI@Z 1201acd0 f i EncodingValidator.obj
 0001:00019d40       ??0HashPtr@xercesc_2_5@@QAE@XZ 1201ad40 f   HashPtr.obj
 0001:00019d50       ??1HashXMLCh@xercesc_2_5@@UAE@XZ 1201ad50 f   HashPtr.obj
 0001:00019d50       ??1HashPtr@xercesc_2_5@@UAE@XZ 1201ad50 f   HashPtr.obj
 0001:00019d60       ?getHashVal@HashPtr@xercesc_2_5@@UAEIQBXIQAVMemoryManager@2@@Z 1201ad60 f   HashPtr.obj
 0001:00019d70       ?equals@HashPtr@xercesc_2_5@@UAE_NQBX0@Z 1201ad70 f   HashPtr.obj
 0001:00019d90       ??0HashXMLCh@xercesc_2_5@@QAE@XZ 1201ad90 f   HashXMLCh.obj
 0001:00019da0       ??_EHashXMLCh@xercesc_2_5@@UAEPAXI@Z 1201ada0 f i HashXMLCh.obj
 0001:00019da0       ??_EHashPtr@xercesc_2_5@@UAEPAXI@Z 1201ada0 f i HashXMLCh.obj
 0001:00019e00       ?getHashVal@HashXMLCh@xercesc_2_5@@UAEIQBXIQAVMemoryManager@2@@Z 1201ae00 f   HashXMLCh.obj
 0001:00019e20       ?equals@HashXMLCh@xercesc_2_5@@UAE_NQBX0@Z 1201ae20 f   HashXMLCh.obj
 0001:00019e80       ?swapBytes@BitOps@xercesc_2_5@@SAGG@Z 1201ae80 f i HeaderDummy.obj
 0001:00019ea0       ?swapBytes@BitOps@xercesc_2_5@@SAII@Z 1201aea0 f i HeaderDummy.obj
 0001:00019ed0       ??0EmptyStackException@xercesc_2_5@@QAE@QBDIW4Codes@XMLExcepts@1@PAVMemoryManager@1@@Z 1201aed0 f i HeaderDummy.obj
 0001:00019f40       ??0EmptyStackException@xercesc_2_5@@QAE@ABV01@@Z 1201af40 f i HeaderDummy.obj
 0001:00019f60       ??0EmptyStackException@xercesc_2_5@@QAE@QBDIW4Codes@XMLExcepts@1@QBG222PAVMemoryManager@1@@Z 1201af60 f i HeaderDummy.obj
 0001:00019fe0       ??0EmptyStackException@xercesc_2_5@@QAE@QBDIW4Codes@XMLExcepts@1@0000PAVMemoryManager@1@@Z 1201afe0 f i HeaderDummy.obj
 0001:0001a060       ??1EmptyStackException@xercesc_2_5@@UAE@XZ 1201b060 f i HeaderDummy.obj
 0001:0001a070       ?duplicate@EmptyStackException@xercesc_2_5@@UBEPAVXMLException@2@XZ 1201b070 f i HeaderDummy.obj
 0001:0001a0d0       ?getType@EmptyStackException@xercesc_2_5@@UBEPBGXZ 1201b0d0 f i HeaderDummy.obj
 0001:0001a0e0       ??_EEmptyStackException@xercesc_2_5@@UAEPAXI@Z 1201b0e0 f i HeaderDummy.obj
 0001:0001a140       ??0InvalidCastException@xercesc_2_5@@QAE@QBDIW4Codes@XMLExcepts@1@PAVMemoryManager@1@@Z 1201b140 f i HeaderDummy.obj
 0001:0001a1b0       ??0InvalidCastException@xercesc_2_5@@QAE@ABV01@@Z 1201b1b0 f i HeaderDummy.obj
 0001:0001a1d0       ??0InvalidCastException@xercesc_2_5@@QAE@QBDIW4Codes@XMLExcepts@1@QBG222PAVMemoryManager@1@@Z 1201b1d0 f i HeaderDummy.obj
 0001:0001a250       ??0InvalidCastException@xercesc_2_5@@QAE@QBDIW4Codes@XMLExcepts@1@0000PAVMemoryManager@1@@Z 1201b250 f i HeaderDummy.obj
 0001:0001a2d0       ??1InvalidCastException@xercesc_2_5@@UAE@XZ 1201b2d0 f i HeaderDummy.obj
 0001:0001a2e0       ?duplicate@InvalidCastException@xercesc_2_5@@UBEPAVXMLException@2@XZ 1201b2e0 f i HeaderDummy.obj
 0001:0001a340       ?getType@InvalidCastException@xercesc_2_5@@UBEPBGXZ 1201b340 f i HeaderDummy.obj
 0001:0001a350       ??_EInvalidCastException@xercesc_2_5@@UAEPAXI@Z 1201b350 f i HeaderDummy.obj
 0001:0001a3b0       ??0IOException@xercesc_2_5@@QAE@QBDIW4Codes@XMLExcepts@1@PAVMemoryManager@1@@Z 1201b3b0 f i HeaderDummy.obj
 0001:0001a420       ??0IOException@xercesc_2_5@@QAE@ABV01@@Z 1201b420 f i HeaderDummy.obj
 0001:0001a440       ??0IOException@xercesc_2_5@@QAE@QBDIW4Codes@XMLExcepts@1@QBG222PAVMemoryManager@1@@Z 1201b440 f i HeaderDummy.obj
 0001:0001a4c0       ??0IOException@xercesc_2_5@@QAE@QBDIW4Codes@XMLExcepts@1@0000PAVMemoryManager@1@@Z 1201b4c0 f i HeaderDummy.obj
 0001:0001a540       ??1IOException@xercesc_2_5@@UAE@XZ 1201b540 f i HeaderDummy.obj
 0001:0001a550       ?duplicate@IOException@xercesc_2_5@@UBEPAVXMLException@2@XZ 1201b550 f i HeaderDummy.obj
 0001:0001a5b0       ?getType@IOException@xercesc_2_5@@UBEPBGXZ 1201b5b0 f i HeaderDummy.obj
 0001:0001a5c0       ??_EIOException@xercesc_2_5@@UAEPAXI@Z 1201b5c0 f i HeaderDummy.obj
 0001:0001a620       ??0UnexpectedEOFException@xercesc_2_5@@QAE@QBDIW4Codes@XMLExcepts@1@PAVMemoryManager@1@@Z 1201b620 f i HeaderDummy.obj
 0001:0001a690       ??0UnexpectedEOFException@xercesc_2_5@@QAE@ABV01@@Z 1201b690 f i HeaderDummy.obj
 0001:0001a6b0       ??0UnexpectedEOFException@xercesc_2_5@@QAE@QBDIW4Codes@XMLExcepts@1@QBG222PAVMemoryManager@1@@Z 1201b6b0 f i HeaderDummy.obj
 0001:0001a730       ??0UnexpectedEOFException@xercesc_2_5@@QAE@QBDIW4Codes@XMLExcepts@1@0000PAVMemoryManager@1@@Z 1201b730 f i HeaderDummy.obj
 0001:0001a7b0       ??1UnexpectedEOFException@xercesc_2_5@@UAE@XZ 1201b7b0 f i HeaderDummy.obj
 0001:0001a7c0       ?duplicate@UnexpectedEOFException@xercesc_2_5@@UBEPAVXMLException@2@XZ 1201b7c0 f i HeaderDummy.obj
 0001:0001a820       ?getType@UnexpectedEOFException@xercesc_2_5@@UBEPBGXZ 1201b820 f i HeaderDummy.obj
 0001:0001a830       ??_EUnexpectedEOFException@xercesc_2_5@@UAEPAXI@Z 1201b830 f i HeaderDummy.obj
 0001:0001a890       ??0UnsupportedEncodingException@xercesc_2_5@@QAE@QBDIW4Codes@XMLExcepts@1@PAVMemoryManager@1@@Z 1201b890 f i HeaderDummy.obj
 0001:0001a900       ??0UnsupportedEncodingException@xercesc_2_5@@QAE@ABV01@@Z 1201b900 f i HeaderDummy.obj
 0001:0001a920       ??0UnsupportedEncodingException@xercesc_2_5@@QAE@QBDIW4Codes@XMLExcepts@1@QBG222PAVMemoryManager@1@@Z 1201b920 f i HeaderDummy.obj
 0001:0001a9a0       ??0UnsupportedEncodingException@xercesc_2_5@@QAE@QBDIW4Codes@XMLExcepts@1@0000PAVMemoryManager@1@@Z 1201b9a0 f i HeaderDummy.obj
 0001:0001aa20       ??1UnsupportedEncodingException@xercesc_2_5@@UAE@XZ 1201ba20 f i HeaderDummy.obj
 0001:0001aa30       ?duplicate@UnsupportedEncodingException@xercesc_2_5@@UBEPAVXMLException@2@XZ 1201ba30 f i HeaderDummy.obj
 0001:0001aa90       ?getType@UnsupportedEncodingException@xercesc_2_5@@UBEPBGXZ 1201ba90 f i HeaderDummy.obj
 0001:0001aaa0       ??_EUnsupportedEncodingException@xercesc_2_5@@UAEPAXI@Z 1201baa0 f i HeaderDummy.obj
 0001:0001ab00       ??0UTFDataFormatException@xercesc_2_5@@QAE@QBDIW4Codes@XMLExcepts@1@PAVMemoryManager@1@@Z 1201bb00 f i HeaderDummy.obj
 0001:0001ab70       ??0UTFDataFormatException@xercesc_2_5@@QAE@ABV01@@Z 1201bb70 f i HeaderDummy.obj
 0001:0001ab90       ??0UTFDataFormatException@xercesc_2_5@@QAE@QBDIW4Codes@XMLExcepts@1@QBG222PAVMemoryManager@1@@Z 1201bb90 f i HeaderDummy.obj
 0001:0001ac10       ??0UTFDataFormatException@xercesc_2_5@@QAE@QBDIW4Codes@XMLExcepts@1@0000PAVMemoryManager@1@@Z 1201bc10 f i HeaderDummy.obj
 0001:0001ac90       ??1UTFDataFormatException@xercesc_2_5@@UAE@XZ 1201bc90 f i HeaderDummy.obj
 0001:0001aca0       ?duplicate@UTFDataFormatException@xercesc_2_5@@UBEPAVXMLException@2@XZ 1201bca0 f i HeaderDummy.obj
 0001:0001ad00       ?getType@UTFDataFormatException@xercesc_2_5@@UBEPBGXZ 1201bd00 f i HeaderDummy.obj
 0001:0001ad10       ??_EUTFDataFormatException@xercesc_2_5@@UAEPAXI@Z 1201bd10 f i HeaderDummy.obj
 0001:0001ad70       ?getDataLength@HexBin@xercesc_2_5@@SAHQBG@Z 1201bd70 f   HexBin.obj
 0001:0001ae50       ?isArrayByteHex@HexBin@xercesc_2_5@@SA_NQBG@Z 1201be50 f   HexBin.obj
 0001:0001af10       ?isHex@HexBin@xercesc_2_5@@CA_NABG@Z 1201bf10 f   HexBin.obj
 0001:0001af30       ?init@HexBin@xercesc_2_5@@CAXXZ 1201bf30 f   HexBin.obj
 0001:0001af90       ??_FKVStringPair@xercesc_2_5@@QAEXXZ 1201bf90 f i KVStringPair.obj
 0001:0001afa0       ??0KVStringPair@xercesc_2_5@@QAE@QAVMemoryManager@1@@Z 1201bfa0 f   KVStringPair.obj
 0001:0001afc0       ??_EKVStringPair@xercesc_2_5@@UAEPAXI@Z 1201bfc0 f i KVStringPair.obj
 0001:0001b020       ??0KVStringPair@xercesc_2_5@@QAE@QBG0QAVMemoryManager@1@@Z 1201c020 f   KVStringPair.obj
 0001:0001b130       ??0KVStringPair@xercesc_2_5@@QAE@ABV01@@Z 1201c130 f   KVStringPair.obj
 0001:0001b250       ??1KVStringPair@xercesc_2_5@@UAE@XZ 1201c250 f   KVStringPair.obj
 0001:0001b2b0       ?setKey@KVStringPair@xercesc_2_5@@QAEXQBG@Z 1201c2b0 f   KVStringPair.obj
 0001:0001b320       ?setValue@KVStringPair@xercesc_2_5@@QAEXQBG@Z 1201c320 f   KVStringPair.obj
 0001:0001b390       ?set@KVStringPair@xercesc_2_5@@QAEXQBG0@Z 1201c390 f   KVStringPair.obj
 0001:0001b460       ?createObject@KVStringPair@xercesc_2_5@@SAPAVXSerializable@2@PAVMemoryManager@2@@Z 1201c460 f   KVStringPair.obj
 0001:0001b4a0       ?getProtoType@KVStringPair@xercesc_2_5@@UBEPAVXProtoType@2@XZ 1201c4a0 f   KVStringPair.obj
 0001:0001b4b0       ?serialize@KVStringPair@xercesc_2_5@@UAEXAAVXSerializeEngine@2@@Z 1201c4b0 f   KVStringPair.obj
 0001:0001b540       ??0XMLMutex@xercesc_2_5@@QAE@XZ 1201c540 f   Mutexes.obj
 0001:0001b560       ??1XMLMutex@xercesc_2_5@@QAE@XZ 1201c560 f   Mutexes.obj
 0001:0001b580       ?lock@XMLMutex@xercesc_2_5@@QAEXXZ 1201c580 f   Mutexes.obj
 0001:0001b590       ?unlock@XMLMutex@xercesc_2_5@@QAEXXZ 1201c590 f   Mutexes.obj
 0001:0001b5a0       ??0XMLMutexLock@xercesc_2_5@@QAE@QAVXMLMutex@1@@Z 1201c5a0 f   Mutexes.obj
 0001:0001b5c0       ??1XMLMutexLock@xercesc_2_5@@QAE@XZ 1201c5c0 f   Mutexes.obj
 0001:0001b5d0       ?getPanicReasonString@PanicHandler@xercesc_2_5@@SAPBDW4PanicReasons@12@@Z 1201c5d0 f   PanicHandler.obj
 0001:0001b630       ??0MemoryManagerImpl@xercesc_2_5@@QAE@XZ 1201c630 f i PlatformUtils.obj
 0001:0001b640       ??_EMemoryManagerArrayImpl@xercesc_2_5@@UAEPAXI@Z 1201c640 f i PlatformUtils.obj
 0001:0001b640       ??_EMemoryManagerImpl@xercesc_2_5@@UAEPAXI@Z 1201c640 f i PlatformUtils.obj
 0001:0001b6a0       ??0MemoryManagerArrayImpl@xercesc_2_5@@QAE@XZ 1201c6a0 f i PlatformUtils.obj
 0001:0001b6b0       ??1MemoryManager@xercesc_2_5@@UAE@XZ 1201c6b0 f i PlatformUtils.obj
 0001:0001b6b0       ??1MemoryManagerArrayImpl@xercesc_2_5@@UAE@XZ 1201c6b0 f i PlatformUtils.obj
 0001:0001b6b0       ??1MemoryManagerImpl@xercesc_2_5@@UAE@XZ 1201c6b0 f i PlatformUtils.obj
 0001:0001b6f0       ?Initialize@XMLPlatformUtils@xercesc_2_5@@SAXQBD0QAVPanicHandler@2@QAVMemoryManager@2@@Z 1201c6f0 f   PlatformUtils.obj
 0001:0001b8a0       ?Terminate@XMLPlatformUtils@xercesc_2_5@@SAXXZ 1201c8a0 f   PlatformUtils.obj
 0001:0001ba20       ?loadMsgSet@XMLPlatformUtils@xercesc_2_5@@SAPAVXMLMsgLoader@2@QBG@Z 1201ca20 f   PlatformUtils.obj
 0001:0001ba30       ?recognizeNEL@XMLPlatformUtils@xercesc_2_5@@SAX_NQAVMemoryManager@2@@Z 1201ca30 f   PlatformUtils.obj
 0001:0001ba90       ?isNELRecognized@XMLPlatformUtils@xercesc_2_5@@SA_NXZ 1201ca90 f   PlatformUtils.obj
 0001:0001baa0       ?strictIANAEncoding@XMLPlatformUtils@xercesc_2_5@@SAX_N@Z 1201caa0 f   PlatformUtils.obj
 0001:0001bac0       ?isStrictIANAEncoding@XMLPlatformUtils@xercesc_2_5@@SA_NXZ 1201cac0 f   PlatformUtils.obj
 0001:0001bae0       ??_FQName@xercesc_2_5@@QAEXXZ 1201cae0 f i QName.obj
 0001:0001baf0       ??0QName@xercesc_2_5@@QAE@QAVMemoryManager@1@@Z 1201caf0 f   QName.obj
 0001:0001bb20       ??_EQName@xercesc_2_5@@UAEPAXI@Z 1201cb20 f i QName.obj
 0001:0001bb80       ??0QName@xercesc_2_5@@QAE@QBG0IQAVMemoryManager@1@@Z 1201cb80 f   QName.obj
 0001:0001bd10       ??0QName@xercesc_2_5@@QAE@QBGIQAVMemoryManager@1@@Z 1201cd10 f   QName.obj
 0001:0001bdd0       ??1QName@xercesc_2_5@@UAE@XZ 1201cdd0 f   QName.obj
 0001:0001be40       ??0QName@xercesc_2_5@@QAE@ABV01@@Z 1201ce40 f   QName.obj
 0001:0001bf60       ?getRawName@QName@xercesc_2_5@@QAEPAGXZ 1201cf60 f   QName.obj
 0001:0001bf60       ?getRawName@QName@xercesc_2_5@@QBEPBGXZ 1201cf60 f   QName.obj
 0001:0001c020       ?setName@QName@xercesc_2_5@@QAEXQBG0I@Z 1201d020 f   QName.obj
 0001:0001c130       ?setName@QName@xercesc_2_5@@QAEXQBGI@Z 1201d130 f   QName.obj
 0001:0001c310       ?setPrefix@QName@xercesc_2_5@@QAEXPBG@Z 1201d310 f   QName.obj
 0001:0001c390       ?setNPrefix@QName@xercesc_2_5@@QAEXPBGI@Z 1201d390 f   QName.obj
 0001:0001c3f0       ?setLocalPart@QName@xercesc_2_5@@QAEXPBG@Z 1201d3f0 f   QName.obj
 0001:0001c470       ?setNLocalPart@QName@xercesc_2_5@@QAEXPBGI@Z 1201d470 f   QName.obj
 0001:0001c4d0       ?setValues@QName@xercesc_2_5@@QAEXABV12@@Z 1201d4d0 f   QName.obj
 0001:0001c5c0       ??8QName@xercesc_2_5@@QBE_NABV01@@Z 1201d5c0 f   QName.obj
 0001:0001c690       ?cleanUp@QName@xercesc_2_5@@QAEXXZ 1201d690 f   QName.obj
 0001:0001c6d0       ?createObject@QName@xercesc_2_5@@SAPAVXSerializable@2@PAVMemoryManager@2@@Z 1201d6d0 f   QName.obj
 0001:0001c710       ?getProtoType@QName@xercesc_2_5@@UBEPAVXProtoType@2@XZ 1201d710 f   QName.obj
 0001:0001c720       ?serialize@QName@xercesc_2_5@@UAEXAAVXSerializeEngine@2@@Z 1201d720 f   QName.obj
 0001:0001c7d0       ??0XMLStringPool@xercesc_2_5@@QAE@IQAVMemoryManager@1@@Z 1201d7d0 f   StringPool.obj
 0001:0001c940       ??_EXMLStringPool@xercesc_2_5@@UAEPAXI@Z 1201d940 f i StringPool.obj
 0001:0001c9a0       ??1XMLStringPool@xercesc_2_5@@UAE@XZ 1201d9a0 f   StringPool.obj
 0001:0001caa0       ?addOrFind@XMLStringPool@xercesc_2_5@@UAEIQBG@Z 1201daa0 f   StringPool.obj
 0001:0001cb40       ?exists@XMLStringPool@xercesc_2_5@@UBE_NQBG@Z 1201db40 f   StringPool.obj
 0001:0001cbc0       ?exists@XMLStringPool@xercesc_2_5@@UBE_NI@Z 1201dbc0 f   StringPool.obj
 0001:0001cbe0       ?flushAll@XMLStringPool@xercesc_2_5@@UAEXXZ 1201dbe0 f   StringPool.obj
 0001:0001cc70       ?getId@XMLStringPool@xercesc_2_5@@UBEIQBG@Z 1201dc70 f   StringPool.obj
 0001:0001cd00       ?getValueForId@XMLStringPool@xercesc_2_5@@UBEPBGI@Z 1201dd00 f   StringPool.obj
 0001:0001cd50       ?getStringCount@XMLStringPool@xercesc_2_5@@UBEIXZ 1201dd50 f   StringPool.obj
 0001:0001cd60       ?addNewEntry@XMLStringPool@xercesc_2_5@@AAEIQBG@Z 1201dd60 f   StringPool.obj
 0001:0001d090       ?createObject@XMLStringPool@xercesc_2_5@@SAPAVXSerializable@2@PAVMemoryManager@2@@Z 1201e090 f   StringPool.obj
 0001:0001d0f0       ?getProtoType@XMLStringPool@xercesc_2_5@@UBEPAVXProtoType@2@XZ 1201e0f0 f   StringPool.obj
 0001:0001d100       ?serialize@XMLStringPool@xercesc_2_5@@UAEXAAVXSerializeEngine@2@@Z 1201e100 f   StringPool.obj
 0001:0001d1a0       ??0XMLStringPool@xercesc_2_5@@QAE@QAVMemoryManager@1@@Z 1201e1a0 f   StringPool.obj
 0001:0001d2c0       ??0XMLSynchronizedStringPool@xercesc_2_5@@QAE@PBVXMLStringPool@1@IQAVMemoryManager@1@@Z 1201e2c0 f   SynchronizedStringPool.obj
 0001:0001d320       ??_EXMLSynchronizedStringPool@xercesc_2_5@@UAEPAXI@Z 1201e320 f i SynchronizedStringPool.obj
 0001:0001d380       ??1XMLSynchronizedStringPool@xercesc_2_5@@UAE@XZ 1201e380 f   SynchronizedStringPool.obj
 0001:0001d3e0       ?addOrFind@XMLSynchronizedStringPool@xercesc_2_5@@UAEIQBG@Z 1201e3e0 f   SynchronizedStringPool.obj
 0001:0001d460       ?exists@XMLSynchronizedStringPool@xercesc_2_5@@UBE_NQBG@Z 1201e460 f   SynchronizedStringPool.obj
 0001:0001d490       ?exists@XMLSynchronizedStringPool@xercesc_2_5@@UBE_NI@Z 1201e490 f   SynchronizedStringPool.obj
 0001:0001d4c0       ?flushAll@XMLSynchronizedStringPool@xercesc_2_5@@UAEXXZ 1201e4c0 f   SynchronizedStringPool.obj
 0001:0001d4d0       ?getId@XMLSynchronizedStringPool@xercesc_2_5@@UBEIQBG@Z 1201e4d0 f   SynchronizedStringPool.obj
 0001:0001d510       ?getValueForId@XMLSynchronizedStringPool@xercesc_2_5@@UBEPBGI@Z 1201e510 f   SynchronizedStringPool.obj
 0001:0001d550       ?getStringCount@XMLSynchronizedStringPool@xercesc_2_5@@UBEIXZ 1201e550 f   SynchronizedStringPool.obj
 0001:0001d570       ?reinitMappings@XMLTransService@xercesc_2_5@@CAXXZ 1201e570 f   TransService.obj
 0001:0001d600       ?reinitMappingsRecognizer@XMLTransService@xercesc_2_5@@CAXXZ 1201e600 f   TransService.obj
 0001:0001d620       ??0XMLTransService@xercesc_2_5@@IAE@XZ 1201e620 f   TransService.obj
 0001:0001d900       ??_EXMLTransService@xercesc_2_5@@UAEPAXI@Z 1201e900 f i TransService.obj
 0001:0001d960       ??1XMLTransService@xercesc_2_5@@UAE@XZ 1201e960 f   TransService.obj
 0001:0001d970       ?addEncoding@XMLTransService@xercesc_2_5@@SAXQBGQAVENameMap@2@@Z 1201e970 f   TransService.obj
 0001:0001d990       ?makeNewTranscoderFor@XMLTransService@xercesc_2_5@@QAEPAVXMLTranscoder@2@QBDAAW4Codes@12@IQAVMemoryManager@2@@Z 1201e990 f   TransService.obj
 0001:0001da20       ?makeNewTranscoderFor@XMLTransService@xercesc_2_5@@QAEPAVXMLTranscoder@2@QBGAAW4Codes@12@IQAVMemoryManager@2@@Z 1201ea20 f   TransService.obj
 0001:0001db90       ?makeNewTranscoderFor@XMLTransService@xercesc_2_5@@QAEPAVXMLTranscoder@2@W4Encodings@XMLRecognizer@2@AAW4Codes@12@IQAVMemoryManager@2@@Z 1201eb90 f   TransService.obj
 0001:0001dc60       ?initTransService@XMLTransService@xercesc_2_5@@MAEXXZ 1201ec60 f   TransService.obj
 0001:0001f4c0       ??0ENameMap@xercesc_2_5@@IAE@QBG@Z 120204c0 f i TransService.obj
 0001:0001f530       ??_EENameMap@xercesc_2_5@@UAEPAXI@Z 12020530 f i TransService.obj
 0001:0001f530       ??_GENameMap@xercesc_2_5@@UAEPAXI@Z 12020530 f i TransService.obj
 0001:0001f560       ?strictIANAEncoding@XMLTransService@xercesc_2_5@@AAEX_N@Z 12020560 f   TransService.obj
 0001:0001f570       ?isStrictIANAEncoding@XMLTransService@xercesc_2_5@@AAE_NXZ 12020570 f   TransService.obj
 0001:0001f580       ??1XMLTranscoder@xercesc_2_5@@UAE@XZ 12020580 f   TransService.obj
 0001:0001f5a0       ??_EXMLTranscoder@xercesc_2_5@@UAEPAXI@Z 120205a0 f i TransService.obj
 0001:0001f600       ??0XMLTranscoder@xercesc_2_5@@IAE@QBGIQAVMemoryManager@1@@Z 12020600 f   TransService.obj
 0001:0001f680       ??0XMLLCPTranscoder@xercesc_2_5@@IAE@XZ 12020680 f   TransService.obj
 0001:0001f690       ??_EXMLLCPTranscoder@xercesc_2_5@@UAEPAXI@Z 12020690 f i TransService.obj
 0001:0001f6f0       ??1XMLLCPTranscoder@xercesc_2_5@@UAE@XZ 120206f0 f   TransService.obj
 0001:0001f700       ?put@?$RefHashTableOf@VENameMap@xercesc_2_5@@@xercesc_2_5@@QAEXPAXQAVENameMap@2@@Z 12020700 f i TransService.obj
 0001:0001f920       ?makeNew@?$ENameMapFor@VXMLChTranscoder@xercesc_2_5@@@xercesc_2_5@@UBEPAVXMLTranscoder@2@IQAVMemoryManager@2@@Z 12020920 f i TransService.obj
 0001:0001f9a0       ?makeNew@?$ENameMapFor@VXMLASCIITranscoder@xercesc_2_5@@@xercesc_2_5@@UBEPAVXMLTranscoder@2@IQAVMemoryManager@2@@Z 120209a0 f i TransService.obj
 0001:0001fa20       ?makeNew@?$ENameMapFor@VXMLUTF8Transcoder@xercesc_2_5@@@xercesc_2_5@@UBEPAVXMLTranscoder@2@IQAVMemoryManager@2@@Z 12020a20 f i TransService.obj
 0001:0001faa0       ?makeNew@?$ENameMapFor@VXML88591Transcoder@xercesc_2_5@@@xercesc_2_5@@UBEPAVXMLTranscoder@2@IQAVMemoryManager@2@@Z 12020aa0 f i TransService.obj
 0001:0001fb20       ??0?$EEndianNameMapFor@VXMLUTF16Transcoder@xercesc_2_5@@@xercesc_2_5@@QAE@QBG_N@Z 12020b20 f i TransService.obj
 0001:0001fb90       ?makeNew@?$EEndianNameMapFor@VXMLUTF16Transcoder@xercesc_2_5@@@xercesc_2_5@@UBEPAVXMLTranscoder@2@IQAVMemoryManager@2@@Z 12020b90 f i TransService.obj
 0001:0001fc10       ??0?$EEndianNameMapFor@VXMLUCS4Transcoder@xercesc_2_5@@@xercesc_2_5@@QAE@QBG_N@Z 12020c10 f i TransService.obj
 0001:0001fc80       ?makeNew@?$EEndianNameMapFor@VXMLUCS4Transcoder@xercesc_2_5@@@xercesc_2_5@@UBEPAVXMLTranscoder@2@IQAVMemoryManager@2@@Z 12020c80 f i TransService.obj
 0001:0001fd00       ??0?$ENameMapFor@VXMLEBCDICTranscoder@xercesc_2_5@@@xercesc_2_5@@QAE@QBG@Z 12020d00 f i TransService.obj
 0001:0001fd70       ?makeNew@?$ENameMapFor@VXMLEBCDICTranscoder@xercesc_2_5@@@xercesc_2_5@@UBEPAVXMLTranscoder@2@IQAVMemoryManager@2@@Z 12020d70 f i TransService.obj
 0001:0001fdf0       ??0?$ENameMapFor@VXMLIBM1047Transcoder@xercesc_2_5@@@xercesc_2_5@@QAE@QBG@Z 12020df0 f i TransService.obj
 0001:0001fe60       ?makeNew@?$ENameMapFor@VXMLIBM1047Transcoder@xercesc_2_5@@@xercesc_2_5@@UBEPAVXMLTranscoder@2@IQAVMemoryManager@2@@Z 12020e60 f i TransService.obj
 0001:0001fee0       ??0?$ENameMapFor@VXMLIBM1140Transcoder@xercesc_2_5@@@xercesc_2_5@@QAE@QBG@Z 12020ee0 f i TransService.obj
 0001:0001ff50       ?makeNew@?$ENameMapFor@VXMLIBM1140Transcoder@xercesc_2_5@@@xercesc_2_5@@UBEPAVXMLTranscoder@2@IQAVMemoryManager@2@@Z 12020f50 f i TransService.obj
 0001:0001ffd0       ??0?$ENameMapFor@VXMLWin1252Transcoder@xercesc_2_5@@@xercesc_2_5@@QAE@QBG@Z 12020fd0 f i TransService.obj
 0001:00020040       ?makeNew@?$ENameMapFor@VXMLWin1252Transcoder@xercesc_2_5@@@xercesc_2_5@@UBEPAVXMLTranscoder@2@IQAVMemoryManager@2@@Z 12021040 f i TransService.obj
 0001:000200c0       ??_E?$RefVectorOf@VENameMap@xercesc_2_5@@@xercesc_2_5@@UAEPAXI@Z 120210c0 f i TransService.obj
 0001:000200c0       ??_G?$RefVectorOf@VENameMap@xercesc_2_5@@@xercesc_2_5@@UAEPAXI@Z 120210c0 f i TransService.obj
 0001:000200e0       ??1?$RefVectorOf@VENameMap@xercesc_2_5@@@xercesc_2_5@@UAE@XZ 120210e0 f i TransService.obj
 0001:00020160       ??1?$BaseRefVectorOf@VENameMap@xercesc_2_5@@@xercesc_2_5@@UAE@XZ 12021160 f i TransService.obj
 0001:00020170       ??_G?$ENameMapFor@VXMLUTF8Transcoder@xercesc_2_5@@@xercesc_2_5@@UAEPAXI@Z 12021170 f i TransService.obj
 0001:00020170       ??_G?$ENameMapFor@VXMLEBCDICTranscoder@xercesc_2_5@@@xercesc_2_5@@UAEPAXI@Z 12021170 f i TransService.obj
 0001:00020170       ??_G?$ENameMapFor@VXMLIBM1047Transcoder@xercesc_2_5@@@xercesc_2_5@@UAEPAXI@Z 12021170 f i TransService.obj
 0001:00020170       ??_G?$ENameMapFor@VXMLIBM1140Transcoder@xercesc_2_5@@@xercesc_2_5@@UAEPAXI@Z 12021170 f i TransService.obj
 0001:00020170       ??_E?$ENameMapFor@VXMLIBM1047Transcoder@xercesc_2_5@@@xercesc_2_5@@UAEPAXI@Z 12021170 f i TransService.obj
 0001:00020170       ??_E?$ENameMapFor@VXMLIBM1140Transcoder@xercesc_2_5@@@xercesc_2_5@@UAEPAXI@Z 12021170 f i TransService.obj
 0001:00020170       ??_G?$ENameMapFor@VXMLWin1252Transcoder@xercesc_2_5@@@xercesc_2_5@@UAEPAXI@Z 12021170 f i TransService.obj
 0001:00020170       ??_E?$EEndianNameMapFor@VXMLUTF16Transcoder@xercesc_2_5@@@xercesc_2_5@@UAEPAXI@Z 12021170 f i TransService.obj
 0001:00020170       ??_E?$ENameMapFor@VXMLChTranscoder@xercesc_2_5@@@xercesc_2_5@@UAEPAXI@Z 12021170 f i TransService.obj
 0001:00020170       ??_E?$EEndianNameMapFor@VXMLUCS4Transcoder@xercesc_2_5@@@xercesc_2_5@@UAEPAXI@Z 12021170 f i TransService.obj
 0001:00020170       ??_G?$EEndianNameMapFor@VXMLUTF16Transcoder@xercesc_2_5@@@xercesc_2_5@@UAEPAXI@Z 12021170 f i TransService.obj
 0001:00020170       ??_E?$ENameMapFor@VXMLWin1252Transcoder@xercesc_2_5@@@xercesc_2_5@@UAEPAXI@Z 12021170 f i TransService.obj
 0001:00020170       ??_G?$EEndianNameMapFor@VXMLUCS4Transcoder@xercesc_2_5@@@xercesc_2_5@@UAEPAXI@Z 12021170 f i TransService.obj
 0001:00020170       ??_E?$ENameMapFor@VXML88591Transcoder@xercesc_2_5@@@xercesc_2_5@@UAEPAXI@Z 12021170 f i TransService.obj
 0001:00020170       ??_E?$ENameMapFor@VXMLEBCDICTranscoder@xercesc_2_5@@@xercesc_2_5@@UAEPAXI@Z 12021170 f i TransService.obj
 0001:00020170       ??_G?$ENameMapFor@VXMLASCIITranscoder@xercesc_2_5@@@xercesc_2_5@@UAEPAXI@Z 12021170 f i TransService.obj
 0001:00020170       ??_G?$ENameMapFor@VXML88591Transcoder@xercesc_2_5@@@xercesc_2_5@@UAEPAXI@Z 12021170 f i TransService.obj
 0001:00020170       ??_G?$ENameMapFor@VXMLChTranscoder@xercesc_2_5@@@xercesc_2_5@@UAEPAXI@Z 12021170 f i TransService.obj
 0001:00020170       ??_E?$ENameMapFor@VXMLUTF8Transcoder@xercesc_2_5@@@xercesc_2_5@@UAEPAXI@Z 12021170 f i TransService.obj
 0001:00020170       ??_E?$ENameMapFor@VXMLASCIITranscoder@xercesc_2_5@@@xercesc_2_5@@UAEPAXI@Z 12021170 f i TransService.obj
 0001:00020190       ??1?$ENameMapFor@VXML88591Transcoder@xercesc_2_5@@@xercesc_2_5@@UAE@XZ 12021190 f i TransService.obj
 0001:00020190       ??1?$EEndianNameMapFor@VXMLUCS4Transcoder@xercesc_2_5@@@xercesc_2_5@@UAE@XZ 12021190 f i TransService.obj
 0001:00020190       ??1?$ENameMapFor@VXMLASCIITranscoder@xercesc_2_5@@@xercesc_2_5@@UAE@XZ 12021190 f i TransService.obj
 0001:00020190       ??1?$ENameMapFor@VXMLIBM1047Transcoder@xercesc_2_5@@@xercesc_2_5@@UAE@XZ 12021190 f i TransService.obj
 0001:00020190       ??1?$ENameMapFor@VXMLEBCDICTranscoder@xercesc_2_5@@@xercesc_2_5@@UAE@XZ 12021190 f i TransService.obj
 0001:00020190       ??1?$ENameMapFor@VXMLChTranscoder@xercesc_2_5@@@xercesc_2_5@@UAE@XZ 12021190 f i TransService.obj
 0001:00020190       ??1?$ENameMapFor@VXMLIBM1140Transcoder@xercesc_2_5@@@xercesc_2_5@@UAE@XZ 12021190 f i TransService.obj
 0001:00020190       ??1?$ENameMapFor@VXMLUTF8Transcoder@xercesc_2_5@@@xercesc_2_5@@UAE@XZ 12021190 f i TransService.obj
 0001:00020190       ??1?$EEndianNameMapFor@VXMLUTF16Transcoder@xercesc_2_5@@@xercesc_2_5@@UAE@XZ 12021190 f i TransService.obj
 0001:00020190       ??1?$ENameMapFor@VXMLWin1252Transcoder@xercesc_2_5@@@xercesc_2_5@@UAE@XZ 12021190 f i TransService.obj
 0001:000201b0       ??0?$RefHashTableBucketElem@VXSObject@xercesc_2_5@@@xercesc_2_5@@QAE@PAXQAVXSObject@1@PAU01@@Z 120211b0 f i TransService.obj
 0001:000201b0       ??0?$RefHashTableBucketElem@V?$RefHashTableOf@V?$KeyRefPair@XVDOMUserDataHandler@xercesc_2_5@@@xercesc_2_5@@@xercesc_2_5@@@xercesc_2_5@@QAE@PAXQAV?$RefHashTableOf@V?$KeyRefPair@XVDOMUserDataHandler@xercesc_2_5@@@xercesc_2_5@@@1@PAU01@@Z 120211b0 f i TransService.obj
 0001:000201b0       ??0?$RefHashTableBucketElem@VPoolElem@XMLStringPool@xercesc_2_5@@@xercesc_2_5@@QAE@PAXQAVPoolElem@XMLStringPool@1@PAU01@@Z 120211b0 f i TransService.obj
 0001:000201b0       ??0?$RefHashTableBucketElem@VDTDAttDef@xercesc_2_5@@@xercesc_2_5@@QAE@PAXQAVDTDAttDef@1@PAU01@@Z 120211b0 f i TransService.obj
 0001:000201b0       ??0?$RefHashTableBucketElem@VXMLInteger@xercesc_2_5@@@xercesc_2_5@@QAE@PAXQAVXMLInteger@1@PAU01@@Z 120211b0 f i TransService.obj
 0001:000201b0       ??0?$RefHashTableBucketElem@VXercesAttGroupInfo@xercesc_2_5@@@xercesc_2_5@@QAE@PAXQAVXercesAttGroupInfo@1@PAU01@@Z 120211b0 f i TransService.obj
 0001:000201b0       ??0?$RefHashTableBucketElem@V?$ValueVectorOf@PAVSchemaElementDecl@xercesc_2_5@@@xercesc_2_5@@@xercesc_2_5@@QAE@PAXQAV?$ValueVectorOf@PAVSchemaElementDecl@xercesc_2_5@@@1@PAU01@@Z 120211b0 f i TransService.obj
 0001:000201b0       ??0?$RefHashTableBucketElem@VDatatypeValidator@xercesc_2_5@@@xercesc_2_5@@QAE@PAXQAVDatatypeValidator@1@PAU01@@Z 120211b0 f i TransService.obj
 0001:000201b0       ??0?$RefHashTableBucketElem@VCPMapEntry@xercesc_2_5@@@xercesc_2_5@@QAE@PAXQAVCPMapEntry@1@PAU01@@Z 120211b0 f i TransService.obj
 0001:000201b0       ??0?$RefHashTableBucketElem@V?$KeyRefPair@XVDOMUserDataHandler@xercesc_2_5@@@xercesc_2_5@@@xercesc_2_5@@QAE@PAXQAV?$KeyRefPair@XVDOMUserDataHandler@xercesc_2_5@@@1@PAU01@@Z 120211b0 f i TransService.obj
 0001:000201b0       ??0?$RefHashTableBucketElem@VENameMap@xercesc_2_5@@@xercesc_2_5@@QAE@PAXQAVENameMap@1@PAU01@@Z 120211b0 f i TransService.obj
 0001:000201b0       ??0?$RefHashTableBucketElem@VValueStore@xercesc_2_5@@@xercesc_2_5@@QAE@PAXQAVValueStore@1@PAU01@@Z 120211b0 f i TransService.obj
 0001:000201b0       ??0?$RefHashTableBucketElem@X@xercesc_2_5@@QAE@PAXQAXPAU01@@Z 120211b0 f i TransService.obj
 0001:000201b0       ??0?$RefHashTableBucketElem@V?$ValueVectorOf@I@xercesc_2_5@@@xercesc_2_5@@QAE@PAXQAV?$ValueVectorOf@I@1@PAU01@@Z 120211b0 f i TransService.obj
 0001:000201b0       ??0?$RefHashTableBucketElem@VXMLRefInfo@xercesc_2_5@@@xercesc_2_5@@QAE@PAXQAVXMLRefInfo@1@PAU01@@Z 120211b0 f i TransService.obj
 0001:000201b0       ??0?$RefHashTableBucketElem@VXSerializedObjectId@xercesc_2_5@@@xercesc_2_5@@QAE@PAXQAVXSerializedObjectId@1@PAU01@@Z 120211b0 f i TransService.obj
 0001:000201b0       ??0?$RefHashTableBucketElem@VKVStringPair@xercesc_2_5@@@xercesc_2_5@@QAE@PAXQAVKVStringPair@1@PAU01@@Z 120211b0 f i TransService.obj
 0001:000201b0       ??0?$RefHashTableBucketElem@G@xercesc_2_5@@QAE@PAXQAGPAU01@@Z 120211b0 f i TransService.obj
 0001:000201b0       ??0?$RefHashTableBucketElem@VXMLCanRepGroup@xercesc_2_5@@@xercesc_2_5@@QAE@PAXQAVXMLCanRepGroup@1@PAU01@@Z 120211b0 f i TransService.obj
 0001:000201b0       ??0?$RefHashTableBucketElem@VXSNamespaceItem@xercesc_2_5@@@xercesc_2_5@@QAE@PAXQAVXSNamespaceItem@1@PAU01@@Z 120211b0 f i TransService.obj
 0001:000201d0       ?removeAll@?$RefHashTableOf@VXercesAttGroupInfo@xercesc_2_5@@@xercesc_2_5@@QAEXXZ 120211d0 f i TransService.obj
 0001:000201d0       ?removeAll@?$RefHashTableOf@VGrammar@xercesc_2_5@@@xercesc_2_5@@QAEXXZ 120211d0 f i TransService.obj
 0001:000201d0       ?removeAll@?$RefHashTableOf@VENameMap@xercesc_2_5@@@xercesc_2_5@@QAEXXZ 120211d0 f i TransService.obj
 0001:000201d0       ?removeAll@?$RefHashTableOf@VXercesGroupInfo@xercesc_2_5@@@xercesc_2_5@@QAEXXZ 120211d0 f i TransService.obj
 0001:000201d0       ?removeAll@?$RefHashTableOf@VXMLRefInfo@xercesc_2_5@@@xercesc_2_5@@QAEXXZ 120211d0 f i TransService.obj
 0001:000201d0       ?removeAll@?$RefHashTableOf@VDTDAttDef@xercesc_2_5@@@xercesc_2_5@@QAEXXZ 120211d0 f i TransService.obj
 0001:000201d0       ?removeAll@?$RefHashTableOf@VComplexTypeInfo@xercesc_2_5@@@xercesc_2_5@@QAEXXZ 120211d0 f i TransService.obj
 0001:000201d0       ?removeAll@?$RefHashTableOf@VKVStringPair@xercesc_2_5@@@xercesc_2_5@@QAEXXZ 120211d0 f i TransService.obj
 0001:000201d0       ?removeAll@?$RefHashTableOf@VXMLAttDef@xercesc_2_5@@@xercesc_2_5@@QAEXXZ 120211d0 f i TransService.obj
 0001:000201d0       ?removeAll@?$RefHashTableOf@VXSAnnotation@xercesc_2_5@@@xercesc_2_5@@QAEXXZ 120211d0 f i TransService.obj
 0001:00020240       ??2XMemory@xercesc_2_5@@SAPAXIPBDH@Z 12021240 f   XMemory.obj
 0001:00020240       ??2XMemory@xercesc_2_5@@SAPAXI@Z 12021240 f   XMemory.obj
 0001:00020260       ??2XMemory@xercesc_2_5@@SAPAXIPAVMemoryManager@1@@Z 12021260 f   XMemory.obj
 0001:00020280       ??3XMemory@xercesc_2_5@@SAXPAXPBDH@Z 12021280 f   XMemory.obj
 0001:00020280       ??3XMemory@xercesc_2_5@@SAXPAXPAVMemoryManager@1@@Z 12021280 f   XMemory.obj
 0001:00020280       ??3XMemory@xercesc_2_5@@SAXPAX@Z 12021280 f   XMemory.obj
 0001:000202a0       ??1XML256TableTranscoder@xercesc_2_5@@UAE@XZ 120212a0 f   XML256TableTranscoder.obj
 0001:000202b0       ??_EXML256TableTranscoder@xercesc_2_5@@UAEPAXI@Z 120212b0 f i XML256TableTranscoder.obj
 0001:00020310       ?transcodeFrom@XML256TableTranscoder@xercesc_2_5@@UAEIQBEIQAGIAAIQAE@Z 12021310 f   XML256TableTranscoder.obj
 0001:00020380       ?transcodeTo@XML256TableTranscoder@xercesc_2_5@@UAEIQBGIQAEIAAIW4UnRepOpts@XMLTranscoder@2@@Z 12021380 f   XML256TableTranscoder.obj
 0001:00020440       ?canTranscodeTo@XML256TableTranscoder@xercesc_2_5@@UBE_NI@Z 12021440 f   XML256TableTranscoder.obj
 0001:00020460       ??0XML256TableTranscoder@xercesc_2_5@@IAE@QBGI0QBUTransRec@XMLTransService@1@IQAVMemoryManager@1@@Z 12021460 f   XML256TableTranscoder.obj
 0001:000204a0       ?xlatOneTo@XML256TableTranscoder@xercesc_2_5@@IBEEG@Z 120214a0 f   XML256TableTranscoder.obj
 0001:00020500       ??0XML88591Transcoder@xercesc_2_5@@QAE@QBGIQAVMemoryManager@1@@Z 12021500 f   XML88591Transcoder.obj
 0001:00020530       ??_EXML88591Transcoder@xercesc_2_5@@UAEPAXI@Z 12021530 f i XML88591Transcoder.obj
 0001:00020590       ??1XML88591Transcoder@xercesc_2_5@@UAE@XZ 12021590 f   XML88591Transcoder.obj
 0001:000205a0       ?transcodeFrom@XML88591Transcoder@xercesc_2_5@@UAEIQBEIQAGIAAIQAE@Z 120215a0 f   XML88591Transcoder.obj
 0001:00020600       ?transcodeTo@XML88591Transcoder@xercesc_2_5@@UAEIQBGIQAEIAAIW4UnRepOpts@XMLTranscoder@2@@Z 12021600 f   XML88591Transcoder.obj
 0001:000206b0       ?canTranscodeTo@XML88591Transcoder@xercesc_2_5@@UBE_NI@Z 120216b0 f   XML88591Transcoder.obj
 0001:000206c0       ??_FXMLAbstractDoubleFloat@xercesc_2_5@@QAEXXZ 120216c0 f i XMLAbstractDoubleFloat.obj
 0001:000206d0       ?isSpecialValue@XMLAbstractDoubleFloat@xercesc_2_5@@ABE_NXZ 120216d0 f i XMLAbstractDoubleFloat.obj
 0001:000206e0       ??_FXMLBigDecimal@xercesc_2_5@@QAEXXZ 120216e0 f i XMLAbstractDoubleFloat.obj
 0001:000206f0       ?toString@XMLBigDecimal@xercesc_2_5@@UBEPAGXZ 120216f0 f i XMLAbstractDoubleFloat.obj
 0001:00020700       ??0NumberFormatException@xercesc_2_5@@QAE@QBDIW4Codes@XMLExcepts@1@PAVMemoryManager@1@@Z 12021700 f i XMLAbstractDoubleFloat.obj
 0001:00020770       ??0NumberFormatException@xercesc_2_5@@QAE@ABV01@@Z 12021770 f i XMLAbstractDoubleFloat.obj
 0001:00020790       ??0NumberFormatException@xercesc_2_5@@QAE@QBDIW4Codes@XMLExcepts@1@QBG222PAVMemoryManager@1@@Z 12021790 f i XMLAbstractDoubleFloat.obj
 0001:00020810       ??0NumberFormatException@xercesc_2_5@@QAE@QBDIW4Codes@XMLExcepts@1@0000PAVMemoryManager@1@@Z 12021810 f i XMLAbstractDoubleFloat.obj
 0001:00020890       ??1NumberFormatException@xercesc_2_5@@UAE@XZ 12021890 f i XMLAbstractDoubleFloat.obj
 0001:000208a0       ?duplicate@NumberFormatException@xercesc_2_5@@UBEPAVXMLException@2@XZ 120218a0 f i XMLAbstractDoubleFloat.obj
 0001:00020900       ?getType@NumberFormatException@xercesc_2_5@@UBEPBGXZ 12021900 f i XMLAbstractDoubleFloat.obj
 0001:00020910       ??_ENumberFormatException@xercesc_2_5@@UAEPAXI@Z 12021910 f i XMLAbstractDoubleFloat.obj
 0001:00020970       ??0XMLAbstractDoubleFloat@xercesc_2_5@@IAE@QAVMemoryManager@1@@Z 12021970 f   XMLAbstractDoubleFloat.obj
 0001:000209b0       ??_EXMLAbstractDoubleFloat@xercesc_2_5@@UAEPAXI@Z 120219b0 f i XMLAbstractDoubleFloat.obj
 0001:00020a10       ??1XMLAbstractDoubleFloat@xercesc_2_5@@UAE@XZ 12021a10 f   XMLAbstractDoubleFloat.obj
 0001:00020a80       ?init@XMLAbstractDoubleFloat@xercesc_2_5@@IAEXQBG@Z 12021a80 f   XMLAbstractDoubleFloat.obj
 0001:00020d10       ?toString@XMLAbstractDoubleFloat@xercesc_2_5@@UBEPAGXZ 12021d10 f   XMLAbstractDoubleFloat.obj
 0001:00020d20       ?getFormattedString@XMLAbstractDoubleFloat@xercesc_2_5@@UBEPBGXZ 12021d20 f   XMLAbstractDoubleFloat.obj
 0001:00020d50       ?formatString@XMLAbstractDoubleFloat@xercesc_2_5@@AAEXXZ 12021d50 f   XMLAbstractDoubleFloat.obj
 0001:00020e40       ?compareValues@XMLAbstractDoubleFloat@xercesc_2_5@@KAHQBV12@0QAVMemoryManager@2@@Z 12021e40 f   XMLAbstractDoubleFloat.obj
 0001:00020fe0       ?compareSpecial@XMLAbstractDoubleFloat@xercesc_2_5@@CAHQBV12@QAVMemoryManager@2@@Z 12021fe0 f   XMLAbstractDoubleFloat.obj
 0001:00021070       ?normalizeZero@XMLAbstractDoubleFloat@xercesc_2_5@@AAEXQAG@Z 12022070 f   XMLAbstractDoubleFloat.obj
 0001:000211a0       ?normalizeDecimalPoint@XMLAbstractDoubleFloat@xercesc_2_5@@QAEXQAD@Z 120221a0 f   XMLAbstractDoubleFloat.obj
 0001:000211d0       ?getCanonicalRepresentation@XMLAbstractDoubleFloat@xercesc_2_5@@SAPAGQBGQAVMemoryManager@2@@Z 120221d0 f   XMLAbstractDoubleFloat.obj
 0001:00021610       ?getProtoType@XMLAbstractDoubleFloat@xercesc_2_5@@UBEPAVXProtoType@2@XZ 12022610 f   XMLAbstractDoubleFloat.obj
 0001:00021620       ?serialize@XMLAbstractDoubleFloat@xercesc_2_5@@UAEXAAVXSerializeEngine@2@@Z 12022620 f   XMLAbstractDoubleFloat.obj
 0001:000216e0       ??0XMLASCIITranscoder@xercesc_2_5@@QAE@QBGIQAVMemoryManager@1@@Z 120226e0 f   XMLASCIITranscoder.obj
 0001:00021710       ??_EXMLASCIITranscoder@xercesc_2_5@@UAEPAXI@Z 12022710 f i XMLASCIITranscoder.obj
 0001:00021770       ??1XMLASCIITranscoder@xercesc_2_5@@UAE@XZ 12022770 f   XMLASCIITranscoder.obj
 0001:00021780       ?transcodeFrom@XMLASCIITranscoder@xercesc_2_5@@UAEIQBEIQAGIAAIQAE@Z 12022780 f   XMLASCIITranscoder.obj
 0001:00021840       ?transcodeTo@XMLASCIITranscoder@xercesc_2_5@@UAEIQBGIQAEIAAIW4UnRepOpts@XMLTranscoder@2@@Z 12022840 f   XMLASCIITranscoder.obj
 0001:000218f0       ?canTranscodeTo@XMLASCIITranscoder@xercesc_2_5@@UBE_NI@Z 120228f0 f   XMLASCIITranscoder.obj
 0001:00021900       ?getTotalDigit@XMLBigInteger@xercesc_2_5@@QBEHXZ 12022900 f i XMLBigDecimal.obj
 0001:00021930       ??8XMLBigInteger@xercesc_2_5@@QBE_NABV01@@Z 12022930 f i XMLBigDecimal.obj
 0001:00021950       ?toString@XMLBigInteger@xercesc_2_5@@QBEPAGXZ 12022950 f i XMLBigDecimal.obj
 0001:000219a0       ??0XMLBigDecimal@xercesc_2_5@@QAE@QBGQAVMemoryManager@1@@Z 120229a0 f   XMLBigDecimal.obj
 0001:00021af0       ??_EXMLBigDecimal@xercesc_2_5@@UAEPAXI@Z 12022af0 f i XMLBigDecimal.obj
 0001:00021b50       ??1XMLBigDecimal@xercesc_2_5@@UAE@XZ 12022b50 f   XMLBigDecimal.obj
 0001:00021bb0       ?cleanUp@XMLBigDecimal@xercesc_2_5@@AAEXXZ 12022bb0 f   XMLBigDecimal.obj
 0001:00021bd0       ?setDecimalValue@XMLBigDecimal@xercesc_2_5@@QAEXQBG@Z 12022bd0 f   XMLBigDecimal.obj
 0001:00021c80       ?getCanonicalRepresentation@XMLBigDecimal@xercesc_2_5@@SAPAGQBGQAVMemoryManager@2@@Z 12022c80 f   XMLBigDecimal.obj
 0001:00021e70       ?parseDecimal@XMLBigDecimal@xercesc_2_5@@SAXQBGQAGAAH22QAVMemoryManager@2@@Z 12022e70 f   XMLBigDecimal.obj
 0001:00022060       ?compareValues@XMLBigDecimal@xercesc_2_5@@SAHQBV12@0QAVMemoryManager@2@@Z 12023060 f   XMLBigDecimal.obj
 0001:000220b0       ?toCompare@XMLBigDecimal@xercesc_2_5@@QBEHABV12@@Z 120230b0 f   XMLBigDecimal.obj
 0001:00022150       ?createObject@XMLBigDecimal@xercesc_2_5@@SAPAVXSerializable@2@PAVMemoryManager@2@@Z 12023150 f   XMLBigDecimal.obj
 0001:000221e0       ?getProtoType@XMLBigDecimal@xercesc_2_5@@UBEPAVXProtoType@2@XZ 120231e0 f   XMLBigDecimal.obj
 0001:000221f0       ??0XMLBigDecimal@xercesc_2_5@@QAE@QAVMemoryManager@1@@Z 120231f0 f   XMLBigDecimal.obj
 0001:00022220       ?serialize@XMLBigDecimal@xercesc_2_5@@UAEXAAVXSerializeEngine@2@@Z 12023220 f   XMLBigDecimal.obj
 0001:000222f0       ?getCanonicalRepresentation@XMLBigInteger@xercesc_2_5@@SAPAGQBGQAVMemoryManager@2@@Z 120232f0 f   XMLBigInteger.obj
 0001:00022410       ?parseBigInteger@XMLBigInteger@xercesc_2_5@@SAXQBGQAGAAHQAVMemoryManager@2@@Z 12023410 f   XMLBigInteger.obj
 0001:000225b0       ??0XMLBigInteger@xercesc_2_5@@QAE@QBGQAVMemoryManager@1@@Z 120235b0 f   XMLBigInteger.obj
 0001:000227a0       ??1XMLBigInteger@xercesc_2_5@@QAE@XZ 120237a0 f   XMLBigInteger.obj
 0001:000227d0       ??0XMLBigInteger@xercesc_2_5@@QAE@ABV01@@Z 120237d0 f   XMLBigInteger.obj
 0001:00022890       ?compareValues@XMLBigInteger@xercesc_2_5@@SAHQBV12@0QAVMemoryManager@2@@Z 12023890 f   XMLBigInteger.obj
 0001:000229b0       ?multiply@XMLBigInteger@xercesc_2_5@@QAEXI@Z 120239b0 f   XMLBigInteger.obj
 0001:00022a70       ?divide@XMLBigInteger@xercesc_2_5@@QAEXI@Z 12023a70 f   XMLBigInteger.obj
 0001:00022b00       ?intValue@XMLBigInteger@xercesc_2_5@@QBEHXZ 12023b00 f   XMLBigInteger.obj
 0001:00022b30       ?isAllSpaces@XMLChar1_0@xercesc_2_5@@SA_NQBGI@Z 12023b30 f   XMLChar.obj
 0001:00022b60       ?containsWhiteSpace@XMLChar1_0@xercesc_2_5@@SA_NQBGI@Z 12023b60 f   XMLChar.obj
 0001:00022b90       ?isValidNCName@XMLChar1_0@xercesc_2_5@@SA_NQBGI@Z 12023b90 f   XMLChar.obj
 0001:00022bf0       ?isValidName@XMLChar1_0@xercesc_2_5@@SA_NQBGI@Z 12023bf0 f   XMLChar.obj
 0001:00022c30       ?isValidQName@XMLChar1_0@xercesc_2_5@@SA_NQBGI@Z 12023c30 f   XMLChar.obj
 0001:00022d10       ?isPublicIdChar@XMLChar1_0@xercesc_2_5@@SA_NGG@Z 12023d10 f   XMLChar.obj
 0001:00022d80       ?enableNELWS@XMLChar1_0@xercesc_2_5@@SAXXZ 12023d80 f   XMLChar.obj
 0001:00022da0       ?isAllSpaces@XMLChar1_1@xercesc_2_5@@SA_NQBGI@Z 12023da0 f   XMLChar.obj
 0001:00022dd0       ?containsWhiteSpace@XMLChar1_1@xercesc_2_5@@SA_NQBGI@Z 12023dd0 f   XMLChar.obj
 0001:00022e00       ?isValidNCName@XMLChar1_1@xercesc_2_5@@SA_NQBGI@Z 12023e00 f   XMLChar.obj
 0001:00022eb0       ?isValidName@XMLChar1_1@xercesc_2_5@@SA_NQBGI@Z 12023eb0 f   XMLChar.obj
 0001:00022f50       ?isValidQName@XMLChar1_1@xercesc_2_5@@SA_NQBGI@Z 12023f50 f   XMLChar.obj
 0001:00022fb0       ?isPublicIdChar@XMLChar1_1@xercesc_2_5@@SA_NGG@Z 12023fb0 f   XMLChar.obj
 0001:00023020       ??0XMLChTranscoder@xercesc_2_5@@QAE@QBGIQAVMemoryManager@1@@Z 12024020 f   XMLChTranscoder.obj
 0001:00023050       ??_EXMLChTranscoder@xercesc_2_5@@UAEPAXI@Z 12024050 f i XMLChTranscoder.obj
 0001:000230b0       ??1XMLChTranscoder@xercesc_2_5@@UAE@XZ 120240b0 f   XMLChTranscoder.obj
 0001:000230c0       ?transcodeFrom@XMLChTranscoder@xercesc_2_5@@UAEIQBEIQAGIAAIQAE@Z 120240c0 f   XMLChTranscoder.obj
 0001:00023120       ?transcodeTo@XMLChTranscoder@xercesc_2_5@@UAEIQBGIQAEIAAIW4UnRepOpts@XMLTranscoder@2@@Z 12024120 f   XMLChTranscoder.obj
 0001:00023160       ??0SchemaDateTimeException@xercesc_2_5@@QAE@QBDIW4Codes@XMLExcepts@1@PAVMemoryManager@1@@Z 12024160 f i XMLDateTime.obj
 0001:000231d0       ??0SchemaDateTimeException@xercesc_2_5@@QAE@ABV01@@Z 120241d0 f i XMLDateTime.obj
 0001:000231f0       ??0SchemaDateTimeException@xercesc_2_5@@QAE@QBDIW4Codes@XMLExcepts@1@QBG222PAVMemoryManager@1@@Z 120241f0 f i XMLDateTime.obj
 0001:00023270       ??0SchemaDateTimeException@xercesc_2_5@@QAE@QBDIW4Codes@XMLExcepts@1@0000PAVMemoryManager@1@@Z 12024270 f i XMLDateTime.obj
 0001:000232f0       ??1SchemaDateTimeException@xercesc_2_5@@UAE@XZ 120242f0 f i XMLDateTime.obj
 0001:00023300       ?duplicate@SchemaDateTimeException@xercesc_2_5@@UBEPAVXMLException@2@XZ 12024300 f i XMLDateTime.obj
 0001:00023360       ?getType@SchemaDateTimeException@xercesc_2_5@@UBEPBGXZ 12024360 f i XMLDateTime.obj
 0001:00023370       ??_ESchemaDateTimeException@xercesc_2_5@@UAEPAXI@Z 12024370 f i XMLDateTime.obj
 0001:000233d0       ??_FXMLDateTime@xercesc_2_5@@QAEXXZ 120243d0 f i XMLDateTime.obj
 0001:000233e0       ?setBuffer@XMLDateTime@xercesc_2_5@@QAEXQBG@Z 120243e0 f i XMLDateTime.obj
 0001:00023480       ?reset@XMLDateTime@xercesc_2_5@@AAEXXZ 12024480 f i XMLDateTime.obj
 0001:000234b0       ?copy@XMLDateTime@xercesc_2_5@@AAEXABV12@@Z 120244b0 f i XMLDateTime.obj
 0001:00023540       ?assertBuffer@XMLDateTime@xercesc_2_5@@ABEXXZ 12024540 f i XMLDateTime.obj
 0001:00023580       ?initParser@XMLDateTime@xercesc_2_5@@AAEXXZ 12024580 f i XMLDateTime.obj
 0001:000235d0       ?isNormalized@XMLDateTime@xercesc_2_5@@ABE_NXZ 120245d0 f i XMLDateTime.obj
 0001:000235e0       ?getRetVal@XMLDateTime@xercesc_2_5@@CAHHH@Z 120245e0 f i XMLDateTime.obj
 0001:00023610       ?compare@XMLDateTime@xercesc_2_5@@SAHQBV12@0_N@Z 12024610 f   XMLDateTime.obj
 0001:00023970       ?addDuration@XMLDateTime@xercesc_2_5@@CAXPAV12@QBV12@H@Z 12024970 f   XMLDateTime.obj
 0001:00023bc0       ?compareResult@XMLDateTime@xercesc_2_5@@CAHHH_N@Z 12024bc0 f   XMLDateTime.obj
 0001:00023c00       ?compare@XMLDateTime@xercesc_2_5@@SAHQBV12@0@Z 12024c00 f   XMLDateTime.obj
 0001:00023ca0       ?compareResult@XMLDateTime@xercesc_2_5@@CAHQBV12@0_NH@Z 12024ca0 f   XMLDateTime.obj
 0001:00023e00       ?compareOrder@XMLDateTime@xercesc_2_5@@SAHQBV12@0@Z 12024e00 f   XMLDateTime.obj
 0001:00024050       ??1XMLDateTime@xercesc_2_5@@UAE@XZ 12025050 f   XMLDateTime.obj
 0001:000240b0       ??_EXMLDateTime@xercesc_2_5@@UAEPAXI@Z 120250b0 f i XMLDateTime.obj
 0001:00024110       ??0XMLDateTime@xercesc_2_5@@QAE@QAVMemoryManager@1@@Z 12025110 f   XMLDateTime.obj
 0001:00024160       ??0XMLDateTime@xercesc_2_5@@QAE@QBGQAVMemoryManager@1@@Z 12025160 f   XMLDateTime.obj
 0001:00024250       ??0XMLDateTime@xercesc_2_5@@QAE@ABV01@@Z 12025250 f   XMLDateTime.obj
 0001:00024320       ??4XMLDateTime@xercesc_2_5@@QAEAAV01@ABV01@@Z 12025320 f   XMLDateTime.obj
 0001:000243c0       ?toString@XMLDateTime@xercesc_2_5@@UBEPAGXZ 120253c0 f   XMLDateTime.obj
 0001:00024410       ?getRawData@XMLDateTime@xercesc_2_5@@UBEPAGXZ 12025410 f   XMLDateTime.obj
 0001:00024450       ?getFormattedString@XMLDateTime@xercesc_2_5@@UBEPBGXZ 12025450 f   XMLDateTime.obj
 0001:00024460       ?parseDateTime@XMLDateTime@xercesc_2_5@@QAEXXZ 12025460 f   XMLDateTime.obj
 0001:00024510       ?parseDate@XMLDateTime@xercesc_2_5@@QAEXXZ 12025510 f   XMLDateTime.obj
 0001:000245f0       ?parseTime@XMLDateTime@xercesc_2_5@@QAEXXZ 120255f0 f   XMLDateTime.obj
 0001:00024670       ?parseDay@XMLDateTime@xercesc_2_5@@QAEXXZ 12025670 f   XMLDateTime.obj
 0001:00024810       ?parseMonth@XMLDateTime@xercesc_2_5@@QAEXXZ 12025810 f   XMLDateTime.obj
 0001:000249c0       ?parseYear@XMLDateTime@xercesc_2_5@@QAEXXZ 120259c0 f   XMLDateTime.obj
 0001:00024ab0       ?parseMonthDay@XMLDateTime@xercesc_2_5@@QAEXXZ 12025ab0 f   XMLDateTime.obj
 0001:00024ca0       ?parseYearMonth@XMLDateTime@xercesc_2_5@@QAEXXZ 12025ca0 f   XMLDateTime.obj
 0001:00024d90       ?parseDuration@XMLDateTime@xercesc_2_5@@QAEXXZ 12025d90 f   XMLDateTime.obj
 0001:000254a0       ?getDate@XMLDateTime@xercesc_2_5@@AAEXXZ 120264a0 f   XMLDateTime.obj
 0001:000255a0       ?getTime@XMLDateTime@xercesc_2_5@@AAEXXZ 120265a0 f   XMLDateTime.obj
 0001:00025920       ?getYearMonth@XMLDateTime@xercesc_2_5@@AAEXXZ 12026920 f   XMLDateTime.obj
 0001:00025a80       ?parseTimeZone@XMLDateTime@xercesc_2_5@@AAEXXZ 12026a80 f   XMLDateTime.obj
 0001:00025b10       ?getTimeZone@XMLDateTime@xercesc_2_5@@AAEXH@Z 12026b10 f   XMLDateTime.obj
 0001:00025ca0       ?normalize@XMLDateTime@xercesc_2_5@@AAEXXZ 12026ca0 f   XMLDateTime.obj
 0001:00025e80       ?validateDateTime@XMLDateTime@xercesc_2_5@@ABEXXZ 12026e80 f   XMLDateTime.obj
 0001:00026150       ?indexOf@XMLDateTime@xercesc_2_5@@ABEHHHG@Z 12027150 f   XMLDateTime.obj
 0001:00026180       ?findUTCSign@XMLDateTime@xercesc_2_5@@AAEHH@Z 12027180 f   XMLDateTime.obj
 0001:000261d0       ?parseInt@XMLDateTime@xercesc_2_5@@ABEHHH@Z 120271d0 f   XMLDateTime.obj
 0001:00026250       ?parseIntYear@XMLDateTime@xercesc_2_5@@ABEHH@Z 12027250 f   XMLDateTime.obj
 0001:00026360       ?getDateTimeCanonicalRepresentation@XMLDateTime@xercesc_2_5@@QBEPAGQAVMemoryManager@2@@Z 12027360 f   XMLDateTime.obj
 0001:00026730       ?getTimeCanonicalRepresentation@XMLDateTime@xercesc_2_5@@QBEPAGQAVMemoryManager@2@@Z 12027730 f   XMLDateTime.obj
 0001:000269d0       ?fillString@XMLDateTime@xercesc_2_5@@ABEXAAPAGW4valueIndex@12@H@Z 120279d0 f   XMLDateTime.obj
 0001:00026a70       ?fillYearString@XMLDateTime@xercesc_2_5@@ABEHAAPAGW4valueIndex@12@@Z 12027a70 f   XMLDateTime.obj
 0001:00026b40       ?searchMiliSeconds@XMLDateTime@xercesc_2_5@@ABEXAAPAG0@Z 12027b40 f   XMLDateTime.obj
 0001:00026bc0       ?createObject@XMLDateTime@xercesc_2_5@@SAPAVXSerializable@2@PAVMemoryManager@2@@Z 12027bc0 f   XMLDateTime.obj
 0001:00026c60       ?getProtoType@XMLDateTime@xercesc_2_5@@UBEPAVXProtoType@2@XZ 12027c60 f   XMLDateTime.obj
 0001:00026c70       ?serialize@XMLDateTime@xercesc_2_5@@UAEXAAVXSerializeEngine@2@@Z 12027c70 f   XMLDateTime.obj
 0001:00026d50       ??_FXMLDouble@xercesc_2_5@@QAEXXZ 12027d50 f i XMLDouble.obj
 0001:00026d60       ??0XMLDouble@xercesc_2_5@@QAE@QBGQAVMemoryManager@1@@Z 12027d60 f   XMLDouble.obj
 0001:00026dc0       ??_EXMLDouble@xercesc_2_5@@UAEPAXI@Z 12027dc0 f i XMLDouble.obj
 0001:00026e20       ??1XMLDouble@xercesc_2_5@@UAE@XZ 12027e20 f   XMLDouble.obj
 0001:00026e30       ?checkBoundary@XMLDouble@xercesc_2_5@@MAEXQBG@Z 12027e30 f   XMLDouble.obj
 0001:00026fb0       ?createObject@XMLDouble@xercesc_2_5@@SAPAVXSerializable@2@PAVMemoryManager@2@@Z 12027fb0 f   XMLDouble.obj
 0001:00027010       ?getProtoType@XMLDouble@xercesc_2_5@@UBEPAVXProtoType@2@XZ 12028010 f   XMLDouble.obj
 0001:00027020       ??0XMLDouble@xercesc_2_5@@QAE@QAVMemoryManager@1@@Z 12028020 f   XMLDouble.obj
 0001:00027040       ?xlatThisOne@XMLEBCDICTranscoder@xercesc_2_5@@SAGE@Z 12028040 f   XMLEBCDICTranscoder.obj
 0001:00027060       ??0XMLEBCDICTranscoder@xercesc_2_5@@QAE@QBGIQAVMemoryManager@1@@Z 12028060 f   XMLEBCDICTranscoder.obj
 0001:000270a0       ??_EXMLEBCDICTranscoder@xercesc_2_5@@UAEPAXI@Z 120280a0 f i XMLEBCDICTranscoder.obj
 0001:00027100       ??1XMLEBCDICTranscoder@xercesc_2_5@@UAE@XZ 12028100 f   XMLEBCDICTranscoder.obj
 0001:00027110       ?registerCleanup@XMLRegisterCleanup@xercesc_2_5@@QAEXP6AXXZ@Z 12028110 f i XMLException.obj
 0001:000271a0       ??1XMLException@xercesc_2_5@@UAE@XZ 120281a0 f   XMLException.obj
 0001:000271d0       ??_EXMLException@xercesc_2_5@@UAEPAXI@Z 120281d0 f i XMLException.obj
 0001:00027240       ?setPosition@XMLException@xercesc_2_5@@QAEXQBDI@Z 12028240 f   XMLException.obj
 0001:00027270       ??0XMLException@xercesc_2_5@@QAE@XZ 12028270 f   XMLException.obj
 0001:00027290       ??0XMLException@xercesc_2_5@@QAE@QBDIQAVMemoryManager@1@@Z 12028290 f   XMLException.obj
 0001:000272e0       ??0XMLException@xercesc_2_5@@QAE@ABV01@@Z 120282e0 f   XMLException.obj
 0001:00027380       ??4XMLException@xercesc_2_5@@QAEAAV01@ABV01@@Z 12028380 f   XMLException.obj
 0001:00027430       ?loadExceptText@XMLException@xercesc_2_5@@IAEXW4Codes@XMLExcepts@2@@Z 12028430 f   XMLException.obj
 0001:000276c0       ?loadExceptText@XMLException@xercesc_2_5@@IAEXW4Codes@XMLExcepts@2@QBG111@Z 120286c0 f   XMLException.obj
 0001:000277d0       ?loadExceptText@XMLException@xercesc_2_5@@IAEXW4Codes@XMLExcepts@2@QBD111@Z 120287d0 f   XMLException.obj
 0001:000278e0       ?reinitMsgMutex@XMLException@xercesc_2_5@@SAXXZ 120288e0 f   XMLException.obj
 0001:00027910       ?reinitMsgLoader@XMLException@xercesc_2_5@@SAXXZ 12028910 f   XMLException.obj
 0001:00027930       ??_FXMLFloat@xercesc_2_5@@QAEXXZ 12028930 f i XMLFloat.obj
 0001:00027940       ?compareValues@XMLFloat@xercesc_2_5@@SAHQBV12@0@Z 12028940 f i XMLFloat.obj
 0001:00027940       ?compareValues@XMLDouble@xercesc_2_5@@SAHQBV12@0@Z 12028940 f i XMLFloat.obj
 0001:00027960       ??0XMLFloat@xercesc_2_5@@QAE@QBGQAVMemoryManager@1@@Z 12028960 f   XMLFloat.obj
 0001:000279c0       ??_EXMLFloat@xercesc_2_5@@UAEPAXI@Z 120289c0 f i XMLFloat.obj
 0001:00027a20       ??1XMLFloat@xercesc_2_5@@UAE@XZ 12028a20 f   XMLFloat.obj
 0001:00027a30       ?checkBoundary@XMLFloat@xercesc_2_5@@MAEXQBG@Z 12028a30 f   XMLFloat.obj
 0001:00027c50       ?createObject@XMLFloat@xercesc_2_5@@SAPAVXSerializable@2@PAVMemoryManager@2@@Z 12028c50 f   XMLFloat.obj
 0001:00027cb0       ?getProtoType@XMLFloat@xercesc_2_5@@UBEPAVXProtoType@2@XZ 12028cb0 f   XMLFloat.obj
 0001:00027cc0       ??0XMLFloat@xercesc_2_5@@QAE@QAVMemoryManager@1@@Z 12028cc0 f   XMLFloat.obj
 0001:00027ce0       ?serialize@XMLFloat@xercesc_2_5@@UAEXAAVXSerializeEngine@2@@Z 12028ce0 f   XMLFloat.obj
 0001:00027ce0       ?serialize@XMLDouble@xercesc_2_5@@UAEXAAVXSerializeEngine@2@@Z 12028ce0 f   XMLFloat.obj
 0001:00027cf0       ?xlatThisOne@XMLIBM1047Transcoder@xercesc_2_5@@SAGE@Z 12028cf0 f   XMLIBM1047Transcoder.obj
 0001:00027d10       ??0XMLIBM1047Transcoder@xercesc_2_5@@QAE@QBGIQAVMemoryManager@1@@Z 12028d10 f   XMLIBM1047Transcoder.obj
 0001:00027d50       ??_EXMLIBM1047Transcoder@xercesc_2_5@@UAEPAXI@Z 12028d50 f i XMLIBM1047Transcoder.obj
 0001:00027db0       ??1XMLIBM1047Transcoder@xercesc_2_5@@UAE@XZ 12028db0 f   XMLIBM1047Transcoder.obj
 0001:00027dc0       ?xlatThisOne@XMLIBM1140Transcoder@xercesc_2_5@@SAGE@Z 12028dc0 f   XMLIBM1140Transcoder.obj
 0001:00027de0       ??0XMLIBM1140Transcoder@xercesc_2_5@@QAE@QBGIQAVMemoryManager@1@@Z 12028de0 f   XMLIBM1140Transcoder.obj
 0001:00027e20       ??_EXMLIBM1140Transcoder@xercesc_2_5@@UAEPAXI@Z 12028e20 f i XMLIBM1140Transcoder.obj
 0001:00027e80       ??1XMLIBM1140Transcoder@xercesc_2_5@@UAE@XZ 12028e80 f   XMLIBM1140Transcoder.obj
 0001:00027e90       ?setLocale@XMLMsgLoader@xercesc_2_5@@SAXQBD@Z 12028e90 f   XMLMsgLoader.obj
 0001:00027ef0       ?getLocale@XMLMsgLoader@xercesc_2_5@@SAPBDXZ 12028ef0 f   XMLMsgLoader.obj
 0001:00027f00       ?setNLSHome@XMLMsgLoader@xercesc_2_5@@SAXQBD@Z 12028f00 f   XMLMsgLoader.obj
 0001:00027f40       ?getNLSHome@XMLMsgLoader@xercesc_2_5@@SAPBDXZ 12028f40 f   XMLMsgLoader.obj
 0001:00027f50       ?getLanguageName@XMLMsgLoader@xercesc_2_5@@UBEPBGXZ 12028f50 f   XMLMsgLoader.obj
 0001:00027f60       ??0XMLNumber@xercesc_2_5@@IAE@XZ 12028f60 f   XMLNumber.obj
 0001:00027f70       ??_EXMLNumber@xercesc_2_5@@UAEPAXI@Z 12028f70 f i XMLNumber.obj
 0001:00027fd0       ??1XMLGrammarDescription@xercesc_2_5@@UAE@XZ 12028fd0 f   XMLNumber.obj
 0001:00027fd0       ??1XMLNumber@xercesc_2_5@@UAE@XZ 12028fd0 f   XMLNumber.obj
 0001:00027fe0       ?getProtoType@XMLNumber@xercesc_2_5@@UBEPAVXProtoType@2@XZ 12028fe0 f   XMLNumber.obj
 0001:00027ff0       ?loadNumber@XMLNumber@xercesc_2_5@@SAPAV12@W4NumberType@12@AAVXSerializeEngine@2@@Z 12028ff0 f   XMLNumber.obj
 0001:00028060       ?binToText@XMLString@xercesc_2_5@@SAXKQADIIQAVMemoryManager@2@@Z 12029060 f   XMLString.obj
 0001:000281b0       ?binToText@XMLString@xercesc_2_5@@SAXIQADIIQAVMemoryManager@2@@Z 120291b0 f   XMLString.obj
 0001:000281e0       ?binToText@XMLString@xercesc_2_5@@SAXHQADIIQAVMemoryManager@2@@Z 120291e0 f   XMLString.obj
 0001:000281e0       ?binToText@XMLString@xercesc_2_5@@SAXJQADIIQAVMemoryManager@2@@Z 120291e0 f   XMLString.obj
 0001:00028220       ?catString@XMLString@xercesc_2_5@@SAXQADQBD@Z 12029220 f   XMLString.obj
 0001:00028250       ?compareIString@XMLString@xercesc_2_5@@SAHQBD0@Z 12029250 f   XMLString.obj
 0001:00028270       ?compareNString@XMLString@xercesc_2_5@@SAHQBD0I@Z 12029270 f   XMLString.obj
 0001:00028290       ?compareNIString@XMLString@xercesc_2_5@@SAHQBD0I@Z 12029290 f   XMLString.obj
 0001:000282b0       ?compareString@XMLString@xercesc_2_5@@SAHQBD0@Z 120292b0 f   XMLString.obj
 0001:000282f0       ?copyString@XMLString@xercesc_2_5@@SAXQADQBD@Z 120292f0 f   XMLString.obj
 0001:00028320       ?cut@XMLString@xercesc_2_5@@SAXQAGI@Z 12029320 f   XMLString.obj
 0001:00028350       ?hash@XMLString@xercesc_2_5@@SAIQBDIQAVMemoryManager@2@@Z 12029350 f   XMLString.obj
 0001:000283c0       ?indexOf@XMLString@xercesc_2_5@@SAHQBDD@Z 120293c0 f   XMLString.obj
 0001:000283f0       ?indexOf@XMLString@xercesc_2_5@@SAHQBDDIQAVMemoryManager@2@@Z 120293f0 f   XMLString.obj
 0001:00028460       ?lastIndexOf@XMLString@xercesc_2_5@@SAHQBDD@Z 12029460 f   XMLString.obj
 0001:00028490       ?lastIndexOf@XMLString@xercesc_2_5@@SAHQBDDIQAVMemoryManager@2@@Z 12029490 f   XMLString.obj
 0001:000284f0       ?replaceTokens@XMLString@xercesc_2_5@@SAIQAGIQBG111QAVMemoryManager@2@@Z 120294f0 f   XMLString.obj
 0001:00028660       ?replicate@XMLString@xercesc_2_5@@SAPAGQBG@Z 12029660 f   XMLString.obj
 0001:000286b0       ?replicate@XMLString@xercesc_2_5@@SAPADQBD@Z 120296b0 f   XMLString.obj
 0001:000286f0       ?replicate@XMLString@xercesc_2_5@@SAPADQBDQAVMemoryManager@2@@Z 120296f0 f   XMLString.obj
 0001:00028730       ?startsWith@XMLString@xercesc_2_5@@SA_NQBD0@Z 12029730 f   XMLString.obj
 0001:00028760       ?startsWithI@XMLString@xercesc_2_5@@SA_NQBD0@Z 12029760 f   XMLString.obj
 0001:00028790       ?stringLen@XMLString@xercesc_2_5@@SAIQBD@Z 12029790 f   XMLString.obj
 0001:000287b0       ?transcode@XMLString@xercesc_2_5@@SAPADQBG@Z 120297b0 f   XMLString.obj
 0001:000287d0       ?transcode@XMLString@xercesc_2_5@@SAPADQBGQAVMemoryManager@2@@Z 120297d0 f   XMLString.obj
 0001:000287f0       ?transcode@XMLString@xercesc_2_5@@SA_NQBGQADIQAVMemoryManager@2@@Z 120297f0 f   XMLString.obj
 0001:00028820       ?transcode@XMLString@xercesc_2_5@@SAPAGQBD@Z 12029820 f   XMLString.obj
 0001:00028840       ?transcode@XMLString@xercesc_2_5@@SAPAGQBDQAVMemoryManager@2@@Z 12029840 f   XMLString.obj
 0001:00028860       ?transcode@XMLString@xercesc_2_5@@SA_NQBDQAGIQAVMemoryManager@2@@Z 12029860 f   XMLString.obj
 0001:00028890       ?trim@XMLString@xercesc_2_5@@SAXQAD@Z 12029890 f   XMLString.obj
 0001:00028910       ?subString@XMLString@xercesc_2_5@@SAXQADQBDHHQAVMemoryManager@2@@Z 12029910 f   XMLString.obj
 0001:000289d0       ?isValidNCName@XMLString@xercesc_2_5@@SA_NQBG@Z 120299d0 f   XMLString.obj
 0001:00028a10       ?isValidName@XMLString@xercesc_2_5@@SA_NQBG@Z 12029a10 f   XMLString.obj
 0001:00028a50       ?isValidEncName@XMLString@xercesc_2_5@@SA_NQBG@Z 12029a50 f   XMLString.obj
 0001:00028af0       ?isValidQName@XMLString@xercesc_2_5@@SA_NQBG@Z 12029af0 f   XMLString.obj
 0001:00028b30       ?isAlpha@XMLString@xercesc_2_5@@SA_NG@Z 12029b30 f   XMLString.obj
 0001:00028b60       ?isDigit@XMLString@xercesc_2_5@@SA_NG@Z 12029b60 f   XMLString.obj
 0001:00028b80       ?isAlphaNum@XMLString@xercesc_2_5@@SA_NG@Z 12029b80 f   XMLString.obj
 0001:00028bc0       ?isHex@XMLString@xercesc_2_5@@SA_NG@Z 12029bc0 f   XMLString.obj
 0001:00028c00       ?isAllWhiteSpace@XMLString@xercesc_2_5@@SA_NQBG@Z 12029c00 f   XMLString.obj
 0001:00028c40       ?binToText@XMLString@xercesc_2_5@@SAXKQAGIIQAVMemoryManager@2@@Z 12029c40 f   XMLString.obj
 0001:00028dc0       ?binToText@XMLString@xercesc_2_5@@SAXIQAGIIQAVMemoryManager@2@@Z 12029dc0 f   XMLString.obj
 0001:00028df0       ?binToText@XMLString@xercesc_2_5@@SAXJQAGIIQAVMemoryManager@2@@Z 12029df0 f   XMLString.obj
 0001:00028df0       ?binToText@XMLString@xercesc_2_5@@SAXHQAGIIQAVMemoryManager@2@@Z 12029df0 f   XMLString.obj
 0001:00028e30       ?catString@XMLString@xercesc_2_5@@SAXQAGQBG@Z 12029e30 f   XMLString.obj
 0001:00028e90       ?compareIString@XMLString@xercesc_2_5@@SAHQBG0@Z 12029e90 f   XMLString.obj
 0001:00028eb0       ?compareNString@XMLString@xercesc_2_5@@SAHQBG0I@Z 12029eb0 f   XMLString.obj
 0001:00028ef0       ?compareNIString@XMLString@xercesc_2_5@@SAHQBG0I@Z 12029ef0 f   XMLString.obj
 0001:00028f10       ?compareString@XMLString@xercesc_2_5@@SAHQBG0@Z 12029f10 f   XMLString.obj
 0001:00028f90       ?regionMatches@XMLString@xercesc_2_5@@SA_NQBGH0HI@Z 12029f90 f   XMLString.obj
 0001:00029050       ?regionIMatches@XMLString@xercesc_2_5@@SA_NQBGH0HI@Z 1202a050 f   XMLString.obj
 0001:000290f0       ?copyString@XMLString@xercesc_2_5@@SAXQAGQBG@Z 1202a0f0 f   XMLString.obj
 0001:00029130       ?copyNString@XMLString@xercesc_2_5@@SA_NQAGQBGI@Z 1202a130 f   XMLString.obj
 0001:00029170       ?hash@XMLString@xercesc_2_5@@SAIQBGIQAVMemoryManager@2@@Z 1202a170 f   XMLString.obj
 0001:000291f0       ?findAny@XMLString@xercesc_2_5@@SAPBGQBG0@Z 1202a1f0 f   XMLString.obj
 0001:000291f0       ?findAny@XMLString@xercesc_2_5@@SAPAGQAGQBG@Z 1202a1f0 f   XMLString.obj
 0001:00029240       ?patternMatch@XMLString@xercesc_2_5@@SAHQBG0@Z 1202a240 f   XMLString.obj
 0001:000292c0       ?hashN@XMLString@xercesc_2_5@@SAIQBGIIQAVMemoryManager@2@@Z 1202a2c0 f   XMLString.obj
 0001:00029330       ?indexOf@XMLString@xercesc_2_5@@SAHQBGG@Z 1202a330 f   XMLString.obj
 0001:00029370       ?indexOf@XMLString@xercesc_2_5@@SAHQBGGIQAVMemoryManager@2@@Z 1202a370 f   XMLString.obj
 0001:00029400       ?lastIndexOf@XMLString@xercesc_2_5@@SAHGQBGI@Z 1202a400 f   XMLString.obj
 0001:00029430       ?lastIndexOf@XMLString@xercesc_2_5@@SAHQBGGIQAVMemoryManager@2@@Z 1202a430 f   XMLString.obj
 0001:000294b0       ?makeUName@XMLString@xercesc_2_5@@SAPAGQBG0@Z 1202a4b0 f   XMLString.obj
 0001:000296a0       ?textToBin@XMLString@xercesc_2_5@@SA_NQBGAAIQAVMemoryManager@2@@Z 1202a6a0 f   XMLString.obj
 0001:000298f0       ?parseInt@XMLString@xercesc_2_5@@SAHQBGQAVMemoryManager@2@@Z 1202a8f0 f   XMLString.obj
 0001:00029b60       ?trim@XMLString@xercesc_2_5@@SAXQAG@Z 1202ab60 f   XMLString.obj
 0001:00029c30       ?upperCase@XMLString@xercesc_2_5@@SAXQAG@Z 1202ac30 f   XMLString.obj
 0001:00029c50       ?lowerCase@XMLString@xercesc_2_5@@SAXQAG@Z 1202ac50 f   XMLString.obj
 0001:00029c70       ?subString@XMLString@xercesc_2_5@@SAXQAGQBGHHQAVMemoryManager@2@@Z 1202ac70 f   XMLString.obj
 0001:00029d50       ?tokenizeString@XMLString@xercesc_2_5@@SAPAV?$BaseRefVectorOf@G@2@QBGQAVMemoryManager@2@@Z 1202ad50 f   XMLString.obj
 0001:00029fe0       ?isInList@XMLString@xercesc_2_5@@SA_NQBG0@Z 1202afe0 f   XMLString.obj
 0001:0002a090       ?isWSReplaced@XMLString@xercesc_2_5@@SA_NQBG@Z 1202b090 f   XMLString.obj
 0001:0002a0d0       ?replaceWS@XMLString@xercesc_2_5@@SAXQAGQAVMemoryManager@2@@Z 1202b0d0 f   XMLString.obj
 0001:0002a180       ?isWSCollapsed@XMLString@xercesc_2_5@@SA_NQBG@Z 1202b180 f   XMLString.obj
 0001:0002a210       ?collapseWS@XMLString@xercesc_2_5@@SAXQAGQAVMemoryManager@2@@Z 1202b210 f   XMLString.obj
 0001:0002a3a0       ?removeWS@XMLString@xercesc_2_5@@SAXQAGQAVMemoryManager@2@@Z 1202b3a0 f   XMLString.obj
 0001:0002a460       ?fixURI@XMLString@xercesc_2_5@@SAXQBGQAG@Z 1202b460 f   XMLString.obj
 0001:0002a5e0       ?release@XMLString@xercesc_2_5@@SAXPAPAD@Z 1202b5e0 f   XMLString.obj
 0001:0002a5e0       ?release@XMLString@xercesc_2_5@@SAXPAPAG@Z 1202b5e0 f   XMLString.obj
 0001:0002a5e0       ?release@XMLString@xercesc_2_5@@SAXPAPAE@Z 1202b5e0 f   XMLString.obj
 0001:0002a600       ?initString@XMLString@xercesc_2_5@@CAXQAVXMLLCPTranscoder@2@QAVMemoryManager@2@@Z 1202b600 f   XMLString.obj
 0001:0002a620       ?termString@XMLString@xercesc_2_5@@CAXXZ 1202b620 f   XMLString.obj
 0001:0002a650       ?cleanUp@XMLStringTokenizer@xercesc_2_5@@AAEXXZ 1202b650 f i XMLStringTokenizer.obj
 0001:0002a680       ?isDelimeter@XMLStringTokenizer@xercesc_2_5@@AAE_NG@Z 1202b680 f i XMLStringTokenizer.obj
 0001:0002a6a0       ?countTokens@XMLStringTokenizer@xercesc_2_5@@QAEHXZ 1202b6a0 f i XMLStringTokenizer.obj
 0001:0002a6f0       ??0XMLStringTokenizer@xercesc_2_5@@QAE@QBGQAVMemoryManager@1@@Z 1202b6f0 f   XMLStringTokenizer.obj
 0001:0002a8d0       ??0XMLStringTokenizer@xercesc_2_5@@QAE@QBG0QAVMemoryManager@1@@Z 1202b8d0 f   XMLStringTokenizer.obj
 0001:0002aa90       ??1XMLStringTokenizer@xercesc_2_5@@QAE@XZ 1202ba90 f   XMLStringTokenizer.obj
 0001:0002aac0       ?nextToken@XMLStringTokenizer@xercesc_2_5@@QAEPAGXZ 1202bac0 f   XMLStringTokenizer.obj
 0001:0002abe0       ?hasMoreTokens@XMLStringTokenizer@xercesc_2_5@@QAE_NXZ 1202bbe0 f   XMLStringTokenizer.obj
 0001:0002ac40       ??0XMLUCS4Transcoder@xercesc_2_5@@QAE@QBGI_NQAVMemoryManager@1@@Z 1202bc40 f   XMLUCSTranscoder.obj
 0001:0002ac70       ??_EXMLUCS4Transcoder@xercesc_2_5@@UAEPAXI@Z 1202bc70 f i XMLUCSTranscoder.obj
 0001:0002acd0       ??1XMLUCS4Transcoder@xercesc_2_5@@UAE@XZ 1202bcd0 f   XMLUCSTranscoder.obj
 0001:0002ace0       ?transcodeFrom@XMLUCS4Transcoder@xercesc_2_5@@UAEIQBEIQAGIAAIQAE@Z 1202bce0 f   XMLUCSTranscoder.obj
 0001:0002add0       ?transcodeTo@XMLUCS4Transcoder@xercesc_2_5@@UAEIQBGIQAEIAAIW4UnRepOpts@XMLTranscoder@2@@Z 1202bdd0 f   XMLUCSTranscoder.obj
 0001:0002af10       ??_FXMLUri@xercesc_2_5@@QAEXXZ 1202bf10 f i XMLUri.obj
 0001:0002af20       ?getUriText@XMLUri@xercesc_2_5@@QBEPBGXZ 1202bf20 f i XMLUri.obj
 0001:0002af40       ?isReservedOrUnreservedCharacter@XMLUri@xercesc_2_5@@CA_NG@Z 1202bf40 f i XMLUri.obj
 0001:0002af70       ?isReservedCharacter@XMLUri@xercesc_2_5@@CA_NG@Z 1202bf70 f i XMLUri.obj
 0001:0002af90       ?isPathCharacter@XMLUri@xercesc_2_5@@CA_NG@Z 1202bf90 f i XMLUri.obj
 0001:0002afb0       ?isUnreservedCharacter@XMLUri@xercesc_2_5@@CA_NG@Z 1202bfb0 f i XMLUri.obj
 0001:0002afe0       ??0XMLUri@xercesc_2_5@@QAE@QBGQAVMemoryManager@1@@Z 1202bfe0 f   XMLUri.obj
 0001:0002b080       ??_EXMLUri@xercesc_2_5@@UAEPAXI@Z 1202c080 f i XMLUri.obj
 0001:0002b0e0       ??0XMLUri@xercesc_2_5@@QAE@QBV01@QBGQAVMemoryManager@1@@Z 1202c0e0 f   XMLUri.obj
 0001:0002b180       ??0XMLUri@xercesc_2_5@@QAE@ABV01@@Z 1202c180 f   XMLUri.obj
 0001:0002b220       ??4XMLUri@xercesc_2_5@@QAEAAV01@ABV01@@Z 1202c220 f   XMLUri.obj
 0001:0002b290       ??1XMLUri@xercesc_2_5@@UAE@XZ 1202c290 f   XMLUri.obj
 0001:0002b2e0       ?cleanUp@XMLUri@xercesc_2_5@@AAEXXZ 1202c2e0 f   XMLUri.obj
 0001:0002b370       ?initialize@XMLUri@xercesc_2_5@@AAEXABV12@@Z 1202c370 f   XMLUri.obj
 0001:0002b590       ?initialize@XMLUri@xercesc_2_5@@AAEXQBV12@QBG@Z 1202c590 f   XMLUri.obj
 0001:0002c460       ?initializeAuthority@XMLUri@xercesc_2_5@@AAEXQBG@Z 1202d460 f   XMLUri.obj
 0001:0002c880       ?initializeScheme@XMLUri@xercesc_2_5@@AAEXQBG@Z 1202d880 f   XMLUri.obj
 0001:0002c9c0       ?initializePath@XMLUri@xercesc_2_5@@AAEXQBG@Z 1202d9c0 f   XMLUri.obj
 0001:0002d030       ?setScheme@XMLUri@xercesc_2_5@@QAEXQBG@Z 1202e030 f   XMLUri.obj
 0001:0002d160       ?setUserInfo@XMLUri@xercesc_2_5@@QAEXQBG@Z 1202e160 f   XMLUri.obj
 0001:0002d290       ?setHost@XMLUri@xercesc_2_5@@QAEXQBG@Z 1202e290 f   XMLUri.obj
 0001:0002d390       ?setPort@XMLUri@xercesc_2_5@@QAEXH@Z 1202e390 f   XMLUri.obj
 0001:0002d460       ?setRegBasedAuthority@XMLUri@xercesc_2_5@@QAEXQBG@Z 1202e460 f   XMLUri.obj
 0001:0002d5c0       ?setPath@XMLUri@xercesc_2_5@@QAEXQBG@Z 1202e5c0 f   XMLUri.obj
 0001:0002d610       ?setFragment@XMLUri@xercesc_2_5@@QAEXQBG@Z 1202e610 f   XMLUri.obj
 0001:0002d7c0       ?setQueryString@XMLUri@xercesc_2_5@@QAEXQBG@Z 1202e7c0 f   XMLUri.obj
 0001:0002d970       ?isConformantSchemeName@XMLUri@xercesc_2_5@@CA_NQBG@Z 1202e970 f   XMLUri.obj
 0001:0002d9e0       ?isConformantUserInfo@XMLUri@xercesc_2_5@@CAXQBGQAVMemoryManager@2@@Z 1202e9e0 f   XMLUri.obj
 0001:0002db20       ?isValidServerBasedAuthority@XMLUri@xercesc_2_5@@CA_NQBGHH0H@Z 1202eb20 f   XMLUri.obj
 0001:0002dc20       ?isValidServerBasedAuthority@XMLUri@xercesc_2_5@@CA_NQBGH0QAVMemoryManager@2@@Z 1202ec20 f   XMLUri.obj
 0001:0002dcf0       ?isValidRegistryBasedAuthority@XMLUri@xercesc_2_5@@CA_NQBGH@Z 1202ecf0 f   XMLUri.obj
 0001:0002ddc0       ?isValidRegistryBasedAuthority@XMLUri@xercesc_2_5@@CA_NQBG@Z 1202edc0 f   XMLUri.obj
 0001:0002de50       ?isURIString@XMLUri@xercesc_2_5@@SA_NQBG@Z 1202ee50 f   XMLUri.obj
 0001:0002ded0       ?isWellFormedAddress@XMLUri@xercesc_2_5@@CA_NQBGQAVMemoryManager@2@@Z 1202eed0 f   XMLUri.obj
 0001:0002e090       ?isWellFormedIPv4Address@XMLUri@xercesc_2_5@@CA_NQBGH@Z 1202f090 f   XMLUri.obj
 0001:0002e130       ?isWellFormedIPv6Reference@XMLUri@xercesc_2_5@@CA_NQBGH@Z 1202f130 f   XMLUri.obj
 0001:0002e220       ?scanHexSequence@XMLUri@xercesc_2_5@@CAHQBGHHAAH@Z 1202f220 f   XMLUri.obj
 0001:0002e300       ?isGenericURI@XMLUri@xercesc_2_5@@AAE_NXZ 1202f300 f   XMLUri.obj
 0001:0002e310       ?buildFullText@XMLUri@xercesc_2_5@@AAEXXZ 1202f310 f   XMLUri.obj
 0001:0002e6d0       ?isValidURI@XMLUri@xercesc_2_5@@SA_NQBV12@QBG@Z 1202f6d0 f   XMLUri.obj
 0001:0002e950       ?isValidURI@XMLUri@xercesc_2_5@@SA_N_NQBG@Z 1202f950 f   XMLUri.obj
 0001:0002ebd0       ?isWellFormedAddress@XMLUri@xercesc_2_5@@CA_NQBGH@Z 1202fbd0 f   XMLUri.obj
 0001:0002ed00       ?processScheme@XMLUri@xercesc_2_5@@CA_NQBGAAH@Z 1202fd00 f   XMLUri.obj
 0001:0002ed90       ?isConformantSchemeName@XMLUri@xercesc_2_5@@CA_NQBGH@Z 1202fd90 f   XMLUri.obj
 0001:0002ee00       ?processAuthority@XMLUri@xercesc_2_5@@CA_NQBGH@Z 1202fe00 f   XMLUri.obj
 0001:0002f000       ?processPath@XMLUri@xercesc_2_5@@CA_NQBGH_N@Z 12030000 f   XMLUri.obj
 0001:0002f200       ?createObject@XMLUri@xercesc_2_5@@SAPAVXSerializable@2@PAVMemoryManager@2@@Z 12030200 f   XMLUri.obj
 0001:0002f250       ?getProtoType@XMLUri@xercesc_2_5@@UBEPAVXProtoType@2@XZ 12030250 f   XMLUri.obj
 0001:0002f260       ?serialize@XMLUri@xercesc_2_5@@UAEXAAVXSerializeEngine@2@@Z 12030260 f   XMLUri.obj
 0001:0002f3c0       ??0XMLUri@xercesc_2_5@@QAE@QAVMemoryManager@1@@Z 120303c0 f   XMLUri.obj
 0001:0002f400       ?lookupByName@XMLURL@xercesc_2_5@@SA?AW4Protocols@12@QBG@Z 12030400 f   XMLURL.obj
 0001:0002f450       ??0XMLURL@xercesc_2_5@@QAE@QAVMemoryManager@1@@Z 12030450 f   XMLURL.obj
 0001:0002f490       ??_EXMLURL@xercesc_2_5@@UAEPAXI@Z 12030490 f i XMLURL.obj
 0001:0002f4f0       ??0XMLURL@xercesc_2_5@@QAE@QBG0QAVMemoryManager@1@@Z 120304f0 f   XMLURL.obj
 0001:0002f630       ??0XMLURL@xercesc_2_5@@QAE@QBGQBDQAVMemoryManager@1@@Z 12030630 f   XMLURL.obj
 0001:0002f7b0       ??0XMLURL@xercesc_2_5@@QAE@ABV01@QBG@Z 120307b0 f   XMLURL.obj
 0001:0002f870       ??0XMLURL@xercesc_2_5@@QAE@ABV01@QBD@Z 12030870 f   XMLURL.obj
 0001:0002f970       ??0XMLURL@xercesc_2_5@@QAE@QBGQAVMemoryManager@1@@Z 12030970 f   XMLURL.obj
 0001:0002fa10       ??0XMLURL@xercesc_2_5@@QAE@QBDQAVMemoryManager@1@@Z 12030a10 f   XMLURL.obj
 0001:0002faf0       ??0XMLURL@xercesc_2_5@@QAE@ABV01@@Z 12030af0 f   XMLURL.obj
 0001:0002fd90       ??1XMLURL@xercesc_2_5@@UAE@XZ 12030d90 f   XMLURL.obj
 0001:0002fda0       ??4XMLURL@xercesc_2_5@@QAEAAV01@ABV01@@Z 12030da0 f   XMLURL.obj
 0001:0002ffe0       ??8XMLURL@xercesc_2_5@@QBE_NABV01@@Z 12030fe0 f   XMLURL.obj
 0001:00030060       ?getPortNum@XMLURL@xercesc_2_5@@QBEIXZ 12031060 f   XMLURL.obj
 0001:00030080       ?getProtocolName@XMLURL@xercesc_2_5@@QBEPBGXZ 12031080 f   XMLURL.obj
 0001:000300d0       ?setURL@XMLURL@xercesc_2_5@@QAEXQBG@Z 120310d0 f   XMLURL.obj
 0001:000300f0       ?setURL@XMLURL@xercesc_2_5@@QAEXQBG0@Z 120310f0 f   XMLURL.obj
 0001:000301f0       ?setURL@XMLURL@xercesc_2_5@@QAE_NQBG0AAV12@@Z 120311f0 f   XMLURL.obj
 0001:00030320       ?setURL@XMLURL@xercesc_2_5@@QAEXABV12@QBG@Z 12031320 f   XMLURL.obj
 0001:00030360       ?isRelative@XMLURL@xercesc_2_5@@QBE_NXZ 12031360 f   XMLURL.obj
 0001:00030380       ?hasInvalidChar@XMLURL@xercesc_2_5@@QBE_NXZ 12031380 f   XMLURL.obj
 0001:00030390       ?makeNewStream@XMLURL@xercesc_2_5@@QBEPAVBinInputStream@2@XZ 12031390 f   XMLURL.obj
 0001:00030760       ?makeRelativeTo@XMLURL@xercesc_2_5@@QAEXQBG@Z 12031760 f   XMLURL.obj
 0001:000307f0       ?makeRelativeTo@XMLURL@xercesc_2_5@@QAEXABV12@@Z 120317f0 f   XMLURL.obj
 0001:00030820       ?buildFullText@XMLURL@xercesc_2_5@@AAEXXZ 12031820 f   XMLURL.obj
 0001:00030be0       ?cleanup@XMLURL@xercesc_2_5@@AAEXXZ 12031be0 f   XMLURL.obj
 0001:00030c60       ?conglomerateWithBase@XMLURL@xercesc_2_5@@AAE_NABV12@_N@Z 12031c60 f   XMLURL.obj
 0001:000310a0       ?parse@XMLURL@xercesc_2_5@@AAEXQBG@Z 120320a0 f   XMLURL.obj
 0001:000318b0       ?parse@XMLURL@xercesc_2_5@@SA_NQBGAAV12@@Z 120328b0 f   XMLURL.obj
 0001:00031fc0       ??0XMLUTF16Transcoder@xercesc_2_5@@QAE@QBGI_NQAVMemoryManager@1@@Z 12032fc0 f   XMLUTF16Transcoder.obj
 0001:00031ff0       ??_EXMLUTF16Transcoder@xercesc_2_5@@UAEPAXI@Z 12032ff0 f i XMLUTF16Transcoder.obj
 0001:00032050       ??1XMLUTF16Transcoder@xercesc_2_5@@UAE@XZ 12033050 f   XMLUTF16Transcoder.obj
 0001:00032060       ?transcodeFrom@XMLUTF16Transcoder@xercesc_2_5@@UAEIQBEIQAGIAAIQAE@Z 12033060 f   XMLUTF16Transcoder.obj
 0001:000320e0       ?transcodeTo@XMLUTF16Transcoder@xercesc_2_5@@UAEIQBGIQAEIAAIW4UnRepOpts@XMLTranscoder@2@@Z 120330e0 f   XMLUTF16Transcoder.obj
 0001:00032160       ?canTranscodeTo@XMLUCS4Transcoder@xercesc_2_5@@UBE_NI@Z 12033160 f   XMLUTF16Transcoder.obj
 0001:00032160       ?canTranscodeTo@XMLChTranscoder@xercesc_2_5@@UBE_NI@Z 12033160 f   XMLUTF16Transcoder.obj
 0001:00032160       ?canTranscodeTo@XMLUTF16Transcoder@xercesc_2_5@@UBE_NI@Z 12033160 f   XMLUTF16Transcoder.obj
 0001:00032170       ??0XMLUTF8Transcoder@xercesc_2_5@@QAE@QBGIQAVMemoryManager@1@@Z 12033170 f   XMLUTF8Transcoder.obj
 0001:000321a0       ??_EXMLUTF8Transcoder@xercesc_2_5@@UAEPAXI@Z 120331a0 f i XMLUTF8Transcoder.obj
 0001:00032200       ??1XMLUTF8Transcoder@xercesc_2_5@@UAE@XZ 12033200 f   XMLUTF8Transcoder.obj
 0001:00032210       ?transcodeFrom@XMLUTF8Transcoder@xercesc_2_5@@UAEIQBEIQAGIAAIQAE@Z 12033210 f   XMLUTF8Transcoder.obj
 0001:00032520       ?transcodeTo@XMLUTF8Transcoder@xercesc_2_5@@UAEIQBGIQAEIAAIW4UnRepOpts@XMLTranscoder@2@@Z 12033520 f   XMLUTF8Transcoder.obj
 0001:00032710       ?canTranscodeTo@XMLUTF8Transcoder@xercesc_2_5@@UBE_NI@Z 12033710 f   XMLUTF8Transcoder.obj
 0001:00032730       ??0XMLWin1252Transcoder@xercesc_2_5@@QAE@QBGIQAVMemoryManager@1@@Z 12033730 f   XMLWin1252Transcoder.obj
 0001:00032770       ??_EXMLWin1252Transcoder@xercesc_2_5@@UAEPAXI@Z 12033770 f i XMLWin1252Transcoder.obj
 0001:000327d0       ??1XMLWin1252Transcoder@xercesc_2_5@@UAE@XZ 120337d0 f   XMLWin1252Transcoder.obj
 0001:000327e0       ??_FPSVIItem@xercesc_2_5@@QAEXXZ 120337e0 f i PSVIAttribute.obj
 0001:000327f0       ??1PSVIItem@xercesc_2_5@@UAE@XZ 120337f0 f i PSVIAttribute.obj
 0001:00032800       ??_EPSVIItem@xercesc_2_5@@UAEPAXI@Z 12033800 f i PSVIAttribute.obj
 0001:00032860       ?getIsSchemaSpecified@PSVIItem@xercesc_2_5@@QBE_NXZ 12033860 f i PSVIAttribute.obj
 0001:00032870       ?getFinal@XSTypeDefinition@xercesc_2_5@@QBEFXZ 12033870 f i PSVIAttribute.obj
 0001:00032880       ?getPrimitiveType@XSSimpleTypeDefinition@xercesc_2_5@@QAEPAV12@XZ 12033880 f i PSVIAttribute.obj
 0001:00032890       ?getItemType@XSSimpleTypeDefinition@xercesc_2_5@@QAEPAV12@XZ 12033890 f i PSVIAttribute.obj
 0001:000328a0       ?getDocumentHandler@SAXParser@xercesc_2_5@@QAEPAVDocumentHandler@2@XZ 120338a0 f i PSVIAttribute.obj
 0001:000328a0       ?getTypeUri@DatatypeValidator@xercesc_2_5@@QBEPBGXZ 120338a0 f i PSVIAttribute.obj
 0001:000328a0       ?getSchemaInformation@PSVIElement@xercesc_2_5@@QAEPAVXSModel@2@XZ 120338a0 f i PSVIAttribute.obj
 0001:000328a0       ?getDocumentHandler@SAXParser@xercesc_2_5@@QBEPBVDocumentHandler@2@XZ 120338a0 f i PSVIAttribute.obj
 0001:000328a0       ?getDefaultValue@SchemaElementDecl@xercesc_2_5@@QBEPAGXZ 120338a0 f i PSVIAttribute.obj
 0001:000328a0       ?getDatatypeValidator@ComplexTypeInfo@xercesc_2_5@@QBEPAVDatatypeValidator@2@XZ 120338a0 f i PSVIAttribute.obj
 0001:000328a0       ?getLexicalPattern@XSSimpleTypeDefinition@xercesc_2_5@@QAEPAV?$RefArrayVectorOf@G@2@XZ 120338a0 f i PSVIAttribute.obj
 0001:000328b0       ??1ValidationContext@xercesc_2_5@@UAE@XZ 120338b0 f i PSVIAttribute.obj
 0001:000328c0       ??0ValidationContext@xercesc_2_5@@IAE@QAVMemoryManager@1@@Z 120338c0 f i PSVIAttribute.obj
 0001:000328e0       ??_FValidationContext@xercesc_2_5@@QAEXXZ 120338e0 f i PSVIAttribute.obj
 0001:000328f0       ??_EValidationContext@xercesc_2_5@@UAEPAXI@Z 120338f0 f i PSVIAttribute.obj
 0001:00032950       ?getWSFacet@DatatypeValidator@xercesc_2_5@@QBEFXZ 12033950 f i PSVIAttribute.obj
 0001:00032960       ?getFinite@DatatypeValidator@xercesc_2_5@@QBE_NXZ 12033960 f i PSVIAttribute.obj
 0001:00032970       ?getBounded@DatatypeValidator@xercesc_2_5@@QBE_NXZ 12033970 f i PSVIAttribute.obj
 0001:00032980       ?getNumeric@DatatypeValidator@xercesc_2_5@@QBE_NXZ 12033980 f i PSVIAttribute.obj
 0001:00032990       ?setWhiteSpace@DatatypeValidator@xercesc_2_5@@IAEXF@Z 12033990 f i PSVIAttribute.obj
 0001:000329a0       ?setFacetsDefined@DatatypeValidator@xercesc_2_5@@IAEXH@Z 120339a0 f i PSVIAttribute.obj
 0001:000329b0       ?setFixed@DatatypeValidator@xercesc_2_5@@IAEXH@Z 120339b0 f i PSVIAttribute.obj
 0001:000329c0       ?setPattern@DatatypeValidator@xercesc_2_5@@IAEXPBG@Z 120339c0 f i PSVIAttribute.obj
 0001:00032a30       ?setAnonymous@DatatypeValidator@xercesc_2_5@@QAEXXZ 12033a30 f i PSVIAttribute.obj
 0001:00032a40       ?setFinite@DatatypeValidator@xercesc_2_5@@IAEX_N@Z 12033a40 f i PSVIAttribute.obj
 0001:00032a50       ?setBounded@DatatypeValidator@xercesc_2_5@@IAEX_N@Z 12033a50 f i PSVIAttribute.obj
 0001:00032a60       ?setNumeric@DatatypeValidator@xercesc_2_5@@IAEX_N@Z 12033a60 f i PSVIAttribute.obj
 0001:00032a70       ?compare@DatatypeValidator@xercesc_2_5@@UAEHQBG0QAVMemoryManager@2@@Z 12033a70 f i PSVIAttribute.obj
 0001:00032a90       ?isSubstitutableBy@DatatypeValidator@xercesc_2_5@@UAE_NQBV12@@Z 12033a90 f i PSVIAttribute.obj
 0001:00032ab0       ??_FPSVIAttribute@xercesc_2_5@@QAEXXZ 12033ab0 f i PSVIAttribute.obj
 0001:00032ac0       ??1PSVIAttribute@xercesc_2_5@@UAE@XZ 12033ac0 f i PSVIAttribute.obj
 0001:00032b10       ??_EPSVIAttribute@xercesc_2_5@@UAEPAXI@Z 12033b10 f i PSVIAttribute.obj
 0001:00032b70       ??0PSVIAttribute@xercesc_2_5@@QAE@QAVMemoryManager@1@@Z 12033b70 f   PSVIAttribute.obj
 0001:00032ba0       ?reset@PSVIAttribute@xercesc_2_5@@QAEXQBGW4VALIDITY_STATE@PSVIItem@2@W4ASSESSMENT_TYPE@42@PAVXSSimpleTypeDefinition@2@30_NPAVXSAttributeDeclaration@2@PAVDatatypeValidator@2@@Z 12033ba0 f   PSVIAttribute.obj
 0001:00032c00       ?setValue@PSVIAttribute@xercesc_2_5@@QAEXQBG@Z 12033c00 f   PSVIAttribute.obj
 0001:00032c30       ??_FPSVIAttributeList@xercesc_2_5@@QAEXXZ 12033c30 f i PSVIAttributeList.obj
 0001:00032c40       ??1PSVIAttributeList@xercesc_2_5@@QAE@XZ 12033c40 f i PSVIAttributeList.obj
 0001:00032c70       ?getPSVIAttributeToFill@PSVIAttributeList@xercesc_2_5@@QAEPAVPSVIAttribute@2@PBG0@Z 12033c70 f i PSVIAttributeList.obj
 0001:00032ef0       ??0PSVIAttributeList@xercesc_2_5@@QAE@QAVMemoryManager@1@@Z 12033ef0 f   PSVIAttributeList.obj
 0001:00033060       ?getAttributePSVIAtIndex@PSVIAttributeList@xercesc_2_5@@QAEPAVPSVIAttribute@2@I@Z 12034060 f   PSVIAttributeList.obj
 0001:000330c0       ?getAttributeNameAtIndex@PSVIAttributeList@xercesc_2_5@@QAEPBGI@Z 120340c0 f   PSVIAttributeList.obj
 0001:00033120       ?getAttributeNamespaceAtIndex@PSVIAttributeList@xercesc_2_5@@QAEPBGI@Z 12034120 f   PSVIAttributeList.obj
 0001:00033180       ?getAttributePSVIByName@PSVIAttributeList@xercesc_2_5@@QAEPAVPSVIAttribute@2@PBG0@Z 12034180 f   PSVIAttributeList.obj
 0001:00033300       ??_E?$RefVectorOf@VPSVIAttribute@xercesc_2_5@@@xercesc_2_5@@UAEPAXI@Z 12034300 f i PSVIAttributeList.obj
 0001:00033300       ??_G?$RefVectorOf@VPSVIAttribute@xercesc_2_5@@@xercesc_2_5@@UAEPAXI@Z 12034300 f i PSVIAttributeList.obj
 0001:00033320       ??1?$RefVectorOf@VPSVIAttribute@xercesc_2_5@@@xercesc_2_5@@UAE@XZ 12034320 f i PSVIAttributeList.obj
 0001:000333a0       ??1?$BaseRefVectorOf@VPSVIAttribute@xercesc_2_5@@@xercesc_2_5@@UAE@XZ 120343a0 f i PSVIAttributeList.obj
 0001:000333b0       ??_FPSVIElement@xercesc_2_5@@QAEXXZ 120343b0 f i PSVIElement.obj
 0001:000333c0       ?getSubstitutionGroupExclusions@XSElementDeclaration@xercesc_2_5@@QBEFXZ 120343c0 f i PSVIElement.obj
 0001:000333d0       ?getDisallowedSubstitutions@XSElementDeclaration@xercesc_2_5@@QBEFXZ 120343d0 f i PSVIElement.obj
 0001:000333e0       ?getProhibitedSubstitutions@XSComplexTypeDefinition@xercesc_2_5@@QBEFXZ 120343e0 f i PSVIElement.obj
 0001:000333f0       ??0PSVIElement@xercesc_2_5@@QAE@QAVMemoryManager@1@@Z 120343f0 f   PSVIElement.obj
 0001:00033420       ??_EPSVIElement@xercesc_2_5@@UAEPAXI@Z 12034420 f i PSVIElement.obj
 0001:00033480       ??1PSVIElement@xercesc_2_5@@UAE@XZ 12034480 f   PSVIElement.obj
 0001:000334d0       ?reset@PSVIElement@xercesc_2_5@@QAEXW4VALIDITY_STATE@PSVIItem@2@W4ASSESSMENT_TYPE@42@QBG_NQAVXSElementDeclaration@2@QAVXSTypeDefinition@2@QAVXSSimpleTypeDefinition@2@QAVXSModel@2@22QAGQAVXSNotationDeclaration@2@@Z 120344d0 f   PSVIElement.obj
 0001:00033540       ??0PSVIItem@xercesc_2_5@@QAE@QAVMemoryManager@1@@Z 12034540 f   PSVIItem.obj
 0001:00033580       ?reset@PSVIItem@xercesc_2_5@@QAEXQBG0W4VALIDITY_STATE@12@W4ASSESSMENT_TYPE@12@@Z 12034580 f   PSVIItem.obj
 0001:000335a0       ?setValidity@PSVIItem@xercesc_2_5@@QAEXW4VALIDITY_STATE@12@@Z 120345a0 f   PSVIItem.obj
 0001:000335b0       ??_FInputSource@xercesc_2_5@@QAEXXZ 120345b0 f i XSAnnotation.obj
 0001:000335c0       ?setCopyBufToStream@MemBufInputSource@xercesc_2_5@@QAEX_N@Z 120345c0 f i XSAnnotation.obj
 0001:000335d0       ??_FXMLAttDef@xercesc_2_5@@QAEXXZ 120345d0 f i XSAnnotation.obj
 0001:000335e0       ?setEnumeration@XMLAttDef@xercesc_2_5@@QAEXQBG@Z 120345e0 f i XSAnnotation.obj
 0001:00033650       ?setValue@XMLAttDef@xercesc_2_5@@QAEXQBG@Z 12034650 f i XSAnnotation.obj
 0001:000336c0       ??_FXMLAttr@xercesc_2_5@@QAEXXZ 120346c0 f i XSAnnotation.obj
 0001:000336d0       ??1XMLAttr@xercesc_2_5@@QAE@XZ 120346d0 f i XSAnnotation.obj
 0001:000336e0       ?getName@XMLAttr@xercesc_2_5@@QBEPBGXZ 120346e0 f i XSAnnotation.obj
 0001:000336f0       ?getPrefix@XMLAttr@xercesc_2_5@@QBEPBGXZ 120346f0 f i XSAnnotation.obj
 0001:00033700       ?getURIId@XMLAttr@xercesc_2_5@@QBEIXZ 12034700 f i XSAnnotation.obj
 0001:00033710       ?getValidatingTypeName@XMLAttr@xercesc_2_5@@QBEPBGXZ 12034710 f i XSAnnotation.obj
 0001:00033740       ?getValidatingTypeURI@XMLAttr@xercesc_2_5@@QBEPBGXZ 12034740 f i XSAnnotation.obj
 0001:00033760       ?set@XMLAttr@xercesc_2_5@@QAEXIQBG00W4AttTypes@XMLAttDef@2@PAVDatatypeValidator@2@_N@Z 12034760 f i XSAnnotation.obj
 0001:000337a0       ?set@XMLAttr@xercesc_2_5@@QAEXIQBG0W4AttTypes@XMLAttDef@2@PAVDatatypeValidator@2@_N@Z 120347a0 f i XSAnnotation.obj
 0001:000337e0       ??1XMLValidator@xercesc_2_5@@UAE@XZ 120347e0 f i XSAnnotation.obj
 0001:000337f0       ??_FXMLValidator@xercesc_2_5@@QAEXXZ 120347f0 f i XSAnnotation.obj
 0001:00033800       ??_EXMLValidator@xercesc_2_5@@UAEPAXI@Z 12034800 f i XSAnnotation.obj
 0001:00033860       ?setScannerInfo@XMLValidator@xercesc_2_5@@QAEXQAVXMLScanner@2@QAVReaderMgr@2@QAVXMLBufferMgr@2@@Z 12034860 f i XSAnnotation.obj
 0001:00033880       ??0XMLPScanToken@xercesc_2_5@@QAE@XZ 12034880 f i XSAnnotation.obj
 0001:00033890       ??0XMLPScanToken@xercesc_2_5@@QAE@ABV01@@Z 12034890 f i XSAnnotation.obj
 0001:00033890       ??4DOMNodeImpl@xercesc_2_5@@QAEAAV01@ABV01@@Z 12034890 f i XSAnnotation.obj
 0001:00033890       ??0EndOfEntityException@xercesc_2_5@@QAE@ABV01@@Z 12034890 f i XSAnnotation.obj
 0001:00033890       ??4XProtoType@xercesc_2_5@@QAEAAV01@ABV01@@Z 12034890 f i XSAnnotation.obj
 0001:000338b0       ??4XMLPScanToken@xercesc_2_5@@QAEAAV01@ABV01@@Z 120348b0 f i XSAnnotation.obj
 0001:000338d0       ?set@XMLPScanToken@xercesc_2_5@@IAEXII@Z 120348d0 f i XSAnnotation.obj
 0001:000338e0       ??0SAX2XMLReader@xercesc_2_5@@QAE@XZ 120348e0 f i XSAnnotation.obj
 0001:000338f0       ??1SAX2XMLReader@xercesc_2_5@@UAE@XZ 120348f0 f i XSAnnotation.obj
 0001:00033900       ??_ESAX2XMLReader@xercesc_2_5@@UAEPAXI@Z 12034900 f i XSAnnotation.obj
 0001:00033960       ??0Parser@xercesc_2_5@@QAE@XZ 12034960 f i XSAnnotation.obj
 0001:00033970       ??1Parser@xercesc_2_5@@UAE@XZ 12034970 f i XSAnnotation.obj
 0001:00033980       ??_EParser@xercesc_2_5@@UAEPAXI@Z 12034980 f i XSAnnotation.obj
 0001:000339e0       ??0AttributeList@xercesc_2_5@@QAE@XZ 120349e0 f i XSAnnotation.obj
 0001:000339f0       ??1AttributeList@xercesc_2_5@@UAE@XZ 120349f0 f i XSAnnotation.obj
 0001:00033a00       ??_EAttributeList@xercesc_2_5@@UAEPAXI@Z 12034a00 f i XSAnnotation.obj
 0001:00033a60       ??1XMLDocumentHandler@xercesc_2_5@@UAE@XZ 12034a60 f i XSAnnotation.obj
 0001:00033a70       ??0XMLDocumentHandler@xercesc_2_5@@IAE@XZ 12034a70 f i XSAnnotation.obj
 0001:00033a80       ??_EXMLDocumentHandler@xercesc_2_5@@UAEPAXI@Z 12034a80 f i XSAnnotation.obj
 0001:00033ae0       ??_FXMLAttDefList@xercesc_2_5@@QAEXXZ 12034ae0 f i XSAnnotation.obj
 0001:00033af0       ??_EXMLAttDefList@xercesc_2_5@@UAEPAXI@Z 12034af0 f i XSAnnotation.obj
 0001:00033b50       ??0XMLAttDefList@xercesc_2_5@@IAE@QAVMemoryManager@1@@Z 12034b50 f i XSAnnotation.obj
 0001:00033b70       ??_FXMLElementDecl@xercesc_2_5@@QAEXXZ 12034b70 f i XSAnnotation.obj
 0001:00033b80       ?getBaseName@XMLElementDecl@xercesc_2_5@@QBEPBGXZ 12034b80 f i XSAnnotation.obj
 0001:00033b80       ?getBaseName@XMLElementDecl@xercesc_2_5@@QAEPAGXZ 12034b80 f i XSAnnotation.obj
 0001:00033b90       ?getURI@XMLElementDecl@xercesc_2_5@@QBEIXZ 12034b90 f i XSAnnotation.obj
 0001:00033ba0       ?getKey@DTDElementDecl@xercesc_2_5@@QBEPBGXZ 12034ba0 f i XSAnnotation.obj
 0001:00033ba0       ?getFullName@XMLElementDecl@xercesc_2_5@@QBEPBGXZ 12034ba0 f i XSAnnotation.obj
 0001:00033bb0       ?isDeclared@XMLElementDecl@xercesc_2_5@@QBE_NXZ 12034bb0 f i XSAnnotation.obj
 0001:00033bc0       ??1XMLEntityHandler@xercesc_2_5@@UAE@XZ 12034bc0 f i XSAnnotation.obj
 0001:00033bd0       ??0XMLEntityHandler@xercesc_2_5@@IAE@XZ 12034bd0 f i XSAnnotation.obj
 0001:00033be0       ??_EXMLEntityHandler@xercesc_2_5@@UAEPAXI@Z 12034be0 f i XSAnnotation.obj
 0001:00033c40       ??0SecurityManager@xercesc_2_5@@QAE@XZ 12034c40 f i XSAnnotation.obj
 0001:00033c50       ??1SecurityManager@xercesc_2_5@@UAE@XZ 12034c50 f i XSAnnotation.obj
 0001:00033c60       ??_ESecurityManager@xercesc_2_5@@UAEPAXI@Z 12034c60 f i XSAnnotation.obj
 0001:00033cc0       ??_FXMLNotationDecl@xercesc_2_5@@QAEXXZ 12034cc0 f i XSAnnotation.obj
 0001:00033cd0       ?setPublicId@XMLNotationDecl@xercesc_2_5@@QAEXQBG@Z 12034cd0 f i XSAnnotation.obj
 0001:00033d40       ?setSystemId@XMLNotationDecl@xercesc_2_5@@QAEXQBG@Z 12034d40 f i XSAnnotation.obj
 0001:00033db0       ?setBaseURI@XMLNotationDecl@xercesc_2_5@@QAEXQBG@Z 12034db0 f i XSAnnotation.obj
 0001:00033e20       ??_FDTDAttDef@xercesc_2_5@@QAEXXZ 12034e20 f i XSAnnotation.obj
 0001:00033e30       ?getDOMTypeInfoName@DTDAttDef@xercesc_2_5@@UBEPBGXZ 12034e30 f i XSAnnotation.obj
 0001:00033e50       ??1XMLContentModel@xercesc_2_5@@UAE@XZ 12034e50 f i XSAnnotation.obj
 0001:00033e60       ??0XMLContentModel@xercesc_2_5@@IAE@XZ 12034e60 f i XSAnnotation.obj
 0001:00033e70       ??_EXMLContentModel@xercesc_2_5@@UAEPAXI@Z 12034e70 f i XSAnnotation.obj
 0001:00033ed0       ??_FDTDElementDecl@xercesc_2_5@@QAEXXZ 12034ed0 f i XSAnnotation.obj
 0001:00033ee0       ?getContentModel@DTDElementDecl@xercesc_2_5@@UAEPAVXMLContentModel@2@XZ 12034ee0 f i XSAnnotation.obj
 0001:00033f00       ?setContentModel@DTDElementDecl@xercesc_2_5@@UAEXQAVXMLContentModel@2@@Z 12034f00 f i XSAnnotation.obj
 0001:00033f40       ??_FXMLEntityDecl@xercesc_2_5@@QAEXXZ 12034f40 f i XSAnnotation.obj
 0001:00033f50       ?isExternal@XMLEntityDecl@xercesc_2_5@@QBE_NXZ 12034f50 f i XSAnnotation.obj
 0001:00033f70       ?isUnparsed@XMLEntityDecl@xercesc_2_5@@QBE_NXZ 12034f70 f i XSAnnotation.obj
 0001:00033f80       ?setNotationName@XMLEntityDecl@xercesc_2_5@@QAEXQBG@Z 12034f80 f i XSAnnotation.obj
 0001:00033ff0       ?setPublicId@XMLEntityDecl@xercesc_2_5@@QAEXQBG@Z 12034ff0 f i XSAnnotation.obj
 0001:00034060       ?setSystemId@XMLEntityDecl@xercesc_2_5@@QAEXQBG@Z 12035060 f i XSAnnotation.obj
 0001:000340d0       ?setBaseURI@XMLEntityDecl@xercesc_2_5@@QAEXQBG@Z 120350d0 f i XSAnnotation.obj
 0001:00034140       ?setValue@XMLEntityDecl@xercesc_2_5@@QAEXQBG@Z 12035140 f i XSAnnotation.obj
 0001:000341e0       ??_FDTDEntityDecl@xercesc_2_5@@QAEXXZ 120351e0 f i XSAnnotation.obj
 0001:000341f0       ??0DTDEntityDecl@xercesc_2_5@@QAE@QAVMemoryManager@1@@Z 120351f0 f i XSAnnotation.obj
 0001:00034220       ??_EDTDEntityDecl@xercesc_2_5@@UAEPAXI@Z 12035220 f i XSAnnotation.obj
 0001:00034280       ??0DTDEntityDecl@xercesc_2_5@@QAE@QBG_NQAVMemoryManager@1@@Z 12035280 f i XSAnnotation.obj
 0001:000342b0       ??0DTDEntityDecl@xercesc_2_5@@QAE@QBG0_NQAVMemoryManager@1@@Z 120352b0 f i XSAnnotation.obj
 0001:000342f0       ??0DTDEntityDecl@xercesc_2_5@@QAE@QBGG_N1@Z 120352f0 f i XSAnnotation.obj
 0001:00034330       ??1DTDEntityDecl@xercesc_2_5@@UAE@XZ 12035330 f i XSAnnotation.obj
 0001:00034340       ?getDeclaredInIntSubset@DTDEntityDecl@xercesc_2_5@@UBE_NXZ 12035340 f i XSAnnotation.obj
 0001:00034350       ?getIsParameter@DTDEntityDecl@xercesc_2_5@@UBE_NXZ 12035350 f i XSAnnotation.obj
 0001:00034360       ?getIsSpecialChar@DTDEntityDecl@xercesc_2_5@@UBE_NXZ 12035360 f i XSAnnotation.obj
 0001:00034370       ?setDeclaredInIntSubset@DTDEntityDecl@xercesc_2_5@@QAEX_N@Z 12035370 f i XSAnnotation.obj
 0001:00034380       ?setIsParameter@DTDEntityDecl@xercesc_2_5@@QAEX_N@Z 12035380 f i XSAnnotation.obj
 0001:00034390       ?setIsSpecialChar@DTDEntityDecl@xercesc_2_5@@QAEX_N@Z 12035390 f i XSAnnotation.obj
 0001:000343a0       ??0DocTypeHandler@xercesc_2_5@@QAE@XZ 120353a0 f i XSAnnotation.obj
 0001:000343b0       ??1DocTypeHandler@xercesc_2_5@@UAE@XZ 120353b0 f i XSAnnotation.obj
 0001:000343c0       ??_EDocTypeHandler@xercesc_2_5@@UAEPAXI@Z 120353c0 f i XSAnnotation.obj
 0001:00034420       ??_FSAXParser@xercesc_2_5@@QAEXXZ 12035420 f i XSAnnotation.obj
 0001:00034430       ??0Attributes@xercesc_2_5@@QAE@XZ 12035430 f i XSAnnotation.obj
 0001:00034440       ??1Attributes@xercesc_2_5@@UAE@XZ 12035440 f i XSAnnotation.obj
 0001:00034450       ??_EAttributes@xercesc_2_5@@UAEPAXI@Z 12035450 f i XSAnnotation.obj
 0001:000344b0       ??_FXMLBufferMgr@xercesc_2_5@@QAEXXZ 120354b0 f i XSAnnotation.obj
 0001:000344c0       ??_FXMLRefInfo@xercesc_2_5@@QAEXXZ 120354c0 f i XSAnnotation.obj
 0001:000344d0       ??0XMLRefInfo@xercesc_2_5@@QAE@QBG_N1QAVMemoryManager@1@@Z 120354d0 f i XSAnnotation.obj
 0001:00034590       ??_EXMLRefInfo@xercesc_2_5@@UAEPAXI@Z 12035590 f i XSAnnotation.obj
 0001:000345f0       ??1XMLRefInfo@xercesc_2_5@@UAE@XZ 120355f0 f i XSAnnotation.obj
 0001:00034640       ??0Locator@xercesc_2_5@@QAE@XZ 12035640 f i XSAnnotation.obj
 0001:00034650       ??_ELocator@xercesc_2_5@@UAEPAXI@Z 12035650 f i XSAnnotation.obj
 0001:000346b0       ??_FReaderMgr@xercesc_2_5@@QAEXXZ 120356b0 f i XSAnnotation.obj
 0001:000346c0       ?getCurrentReaderNum@ReaderMgr@xercesc_2_5@@QBEIXZ 120356c0 f i XSAnnotation.obj
 0001:000346d0       ?getName@ReaderMgr@xercesc_2_5@@QAE_NAAVXMLBuffer@2@@Z 120356d0 f i XSAnnotation.obj
 0001:00034700       ?getNameToken@ReaderMgr@xercesc_2_5@@QAE_NAAVXMLBuffer@2@@Z 12035700 f i XSAnnotation.obj
 0001:00034730       ?getNextCharIfNot@ReaderMgr@xercesc_2_5@@QAE_NGAAG@Z 12035730 f i XSAnnotation.obj
 0001:00034850       ?movePlainContentChars@ReaderMgr@xercesc_2_5@@QAEXAAVXMLBuffer@2@@Z 12035850 f i XSAnnotation.obj
 0001:000348b0       ?getSrcOffset@ReaderMgr@xercesc_2_5@@QBEIXZ 120358b0 f i XSAnnotation.obj
 0001:000348c0       ?lookingAtChar@ReaderMgr@xercesc_2_5@@QAE_NG@Z 120358c0 f i XSAnnotation.obj
 0001:000348e0       ?lookingAtSpace@ReaderMgr@xercesc_2_5@@QAE_NXZ 120358e0 f i XSAnnotation.obj
 0001:00034910       ?skippedString@ReaderMgr@xercesc_2_5@@QAE_NQBG@Z 12035910 f i XSAnnotation.obj
 0001:00034920       ?skipPastChar@ReaderMgr@xercesc_2_5@@QAEXG@Z 12035920 f i XSAnnotation.obj
 0001:00034920       ?skipToChar@ReaderMgr@xercesc_2_5@@QAEXG@Z 12035920 f i XSAnnotation.obj
 0001:00034940       ?peekString@ReaderMgr@xercesc_2_5@@QAE_NQBG@Z 12035940 f i XSAnnotation.obj
 0001:00034950       ?setXMLVersion@ReaderMgr@xercesc_2_5@@QAEXW4XMLVersion@XMLReader@2@@Z 12035950 f i XSAnnotation.obj
 0001:000349a0       ??0ThrowEOEJanitor@xercesc_2_5@@QAE@PAVReaderMgr@1@_N@Z 120359a0 f i XSAnnotation.obj
 0001:000349c0       ??1ThrowEOEJanitor@xercesc_2_5@@QAE@XZ 120359c0 f i XSAnnotation.obj
 0001:000349d0       ??_FElemStack@xercesc_2_5@@QAEXXZ 120359d0 f i XSAnnotation.obj
 0001:000349e0       ??_FWFElemStack@xercesc_2_5@@QAEXXZ 120359e0 f i XSAnnotation.obj
 0001:000349f0       ?isEmpty@ElemStack@xercesc_2_5@@QBE_NXZ 120359f0 f i XSAnnotation.obj
 0001:00034a00       ?getValidationFlag@ElemStack@xercesc_2_5@@QAE_NXZ 12035a00 f i XSAnnotation.obj
 0001:00034a10       ?setValidationFlag@ElemStack@xercesc_2_5@@QAEX_N@Z 12035a10 f i XSAnnotation.obj
 0001:00034a30       ?getCurrentScope@ElemStack@xercesc_2_5@@QAEHXZ 12035a30 f i XSAnnotation.obj
 0001:00034a40       ?setCurrentScope@ElemStack@xercesc_2_5@@QAEXH@Z 12035a40 f i XSAnnotation.obj
 0001:00034a60       ?getCurrentGrammar@ElemStack@xercesc_2_5@@QAEPAVGrammar@2@XZ 12035a60 f i XSAnnotation.obj
 0001:00034a70       ?setCurrentGrammar@ElemStack@xercesc_2_5@@QAEXPAVGrammar@2@@Z 12035a70 f i XSAnnotation.obj
 0001:00034a90       ?getCurrentURI@ElemStack@xercesc_2_5@@QAEIXZ 12035a90 f i XSAnnotation.obj
 0001:00034aa0       ?setCurrentURI@ElemStack@xercesc_2_5@@QAEXI@Z 12035aa0 f i XSAnnotation.obj
 0001:00034ac0       ?getPrefixId@ElemStack@xercesc_2_5@@QBEIQBG@Z 12035ac0 f i XSAnnotation.obj
 0001:00034ae0       ?getPrefixForId@ElemStack@xercesc_2_5@@QBEPBGI@Z 12035ae0 f i XSAnnotation.obj
 0001:00034b00       ?isEmpty@WFElemStack@xercesc_2_5@@QBE_NXZ 12035b00 f i XSAnnotation.obj
 0001:00034b10       ?getCurrentURI@WFElemStack@xercesc_2_5@@QAEIXZ 12035b10 f i XSAnnotation.obj
 0001:00034b20       ?setCurrentURI@WFElemStack@xercesc_2_5@@QAEXI@Z 12035b20 f i XSAnnotation.obj
 0001:00034b40       ??0Grammar@xercesc_2_5@@IAE@XZ 12035b40 f i XSAnnotation.obj
 0001:00034b50       ??_EGrammar@xercesc_2_5@@UAEPAXI@Z 12035b50 f i XSAnnotation.obj
 0001:00034bb0       ??_FUnionDatatypeValidator@xercesc_2_5@@QAEXXZ 12035bb0 f i XSAnnotation.obj
 0001:00034bc0       ?newInstance@UnionDatatypeValidator@xercesc_2_5@@UAEPAVDatatypeValidator@2@QAV?$RefHashTableOf@VKVStringPair@xercesc_2_5@@@2@QAV?$RefArrayVectorOf@G@2@HQAVMemoryManager@2@@Z 12035bc0 f i XSAnnotation.obj
 0001:00034c40       ?validate@UnionDatatypeValidator@xercesc_2_5@@UAEXQBGQAVValidationContext@2@QAVMemoryManager@2@@Z 12035c40 f i XSAnnotation.obj
 0001:00034c40       ?validate@BooleanDatatypeValidator@xercesc_2_5@@UAEXQBGQAVValidationContext@2@QAVMemoryManager@2@@Z 12035c40 f i XSAnnotation.obj
 0001:00034c60       ?cleanUp@UnionDatatypeValidator@xercesc_2_5@@AAEXXZ 12035c60 f i XSAnnotation.obj
 0001:00034c90       ?setEnumeration@UnionDatatypeValidator@xercesc_2_5@@AAEXPAV?$RefArrayVectorOf@G@2@_N@Z 12035c90 f i XSAnnotation.obj
 0001:00034cd0       ?isAtomic@UnionDatatypeValidator@xercesc_2_5@@UBE_NXZ 12035cd0 f i XSAnnotation.obj
 0001:00034d40       ?isSubstitutableBy@UnionDatatypeValidator@xercesc_2_5@@UAE_NQBVDatatypeValidator@2@@Z 12035d40 f i XSAnnotation.obj
 0001:00034dc0       ?getMemberTypeName@UnionDatatypeValidator@xercesc_2_5@@QBEPBGXZ 12035dc0 f i XSAnnotation.obj
 0001:00034dd0       ?getMemberTypeUri@UnionDatatypeValidator@xercesc_2_5@@QBEPBGXZ 12035dd0 f i XSAnnotation.obj
 0001:00034de0       ?getMemberTypeAnonymous@UnionDatatypeValidator@xercesc_2_5@@QBE_NXZ 12035de0 f i XSAnnotation.obj
 0001:00034df0       ?reset@UnionDatatypeValidator@xercesc_2_5@@QAEXXZ 12035df0 f i XSAnnotation.obj
 0001:00034e00       ??_FSchemaAttDef@xercesc_2_5@@QAEXXZ 12035e00 f i XSAnnotation.obj
 0001:00034e10       ?setValidity@SchemaAttDef@xercesc_2_5@@QAEXW4Validity@PSVIDefs@2@@Z 12035e10 f i XSAnnotation.obj
 0001:00034e20       ?getTypeName@SchemaAttDef@xercesc_2_5@@QBEPBGXZ 12035e20 f i XSAnnotation.obj
 0001:00034e50       ?getTypeUri@SchemaAttDef@xercesc_2_5@@QBEPBGXZ 12035e50 f i XSAnnotation.obj
 0001:00034e80       ?getMemberTypeName@SchemaAttDef@xercesc_2_5@@QBEPBGXZ 12035e80 f i XSAnnotation.obj
 0001:00034e90       ?getMemberTypeUri@SchemaAttDef@xercesc_2_5@@QBEPBGXZ 12035e90 f i XSAnnotation.obj
 0001:00034ea0       ?getDOMTypeInfoName@SchemaAttDef@xercesc_2_5@@UBEPBGXZ 12035ea0 f i XSAnnotation.obj
 0001:00034f10       ?getDOMTypeInfoUri@SchemaAttDef@xercesc_2_5@@UBEPBGXZ 12035f10 f i XSAnnotation.obj
 0001:00034f80       ?getTypeAnonymous@SchemaAttDef@xercesc_2_5@@QBE_NXZ 12035f80 f i XSAnnotation.obj
 0001:00034fa0       ?getMemberTypeAnonymous@SchemaAttDef@xercesc_2_5@@QBE_NXZ 12035fa0 f i XSAnnotation.obj
 0001:00034fb0       ?isTypeDefinitionUnion@SchemaAttDef@xercesc_2_5@@QBE_NXZ 12035fb0 f i XSAnnotation.obj
 0001:00034fe0       ?resetNamespaceList@SchemaAttDef@xercesc_2_5@@QAEXXZ 12035fe0 f i XSAnnotation.obj
 0001:00035000       ?setNamespaceList@SchemaAttDef@xercesc_2_5@@QAEXQBV?$ValueVectorOf@I@2@@Z 12036000 f i XSAnnotation.obj
 0001:00035150       ?reset@SchemaAttDef@xercesc_2_5@@UAEXXZ 12036150 f i XSAnnotation.obj
 0001:00035190       ??_FComplexTypeInfo@xercesc_2_5@@QAEXXZ 12036190 f i XSAnnotation.obj
 0001:000351a0       ?getAbstract@ComplexTypeInfo@xercesc_2_5@@QBE_NXZ 120361a0 f i XSAnnotation.obj
 0001:000351a0       ?getCalculateSrcOfs@XMLScanner@xercesc_2_5@@QBE_NXZ 120361a0 f i XSAnnotation.obj
 0001:000351a0       ?getUsed@XMLRefInfo@xercesc_2_5@@QBE_NXZ 120361a0 f i XSAnnotation.obj
 0001:000351b0       ?getAdoptContentSpec@ComplexTypeInfo@xercesc_2_5@@QBE_NXZ 120361b0 f i XSAnnotation.obj
 0001:000351b0       ?getDoNamespaces@XMLScanner@xercesc_2_5@@QBE_NXZ 120361b0 f i XSAnnotation.obj
 0001:000351c0       ?getAttDef@ComplexTypeInfo@xercesc_2_5@@QAEPAVSchemaAttDef@2@QBGH@Z 120361c0 f i XSAnnotation.obj
 0001:000351c0       ?getAttDef@ComplexTypeInfo@xercesc_2_5@@QBEPBVSchemaAttDef@2@QBGH@Z 120361c0 f i XSAnnotation.obj
 0001:00035270       ?elementAt@ComplexTypeInfo@xercesc_2_5@@QAEPAVSchemaElementDecl@2@I@Z 12036270 f i XSAnnotation.obj
 0001:00035270       ?elementAt@ComplexTypeInfo@xercesc_2_5@@QBEPBVSchemaElementDecl@2@I@Z 12036270 f i XSAnnotation.obj
 0001:000352c0       ?getContentModel@ComplexTypeInfo@xercesc_2_5@@QAEPAVXMLContentModel@2@_N@Z 120362c0 f i XSAnnotation.obj
 0001:000352e0       ?getTypeLocalName@ComplexTypeInfo@xercesc_2_5@@QBEPBGXZ 120362e0 f i XSAnnotation.obj
 0001:00035370       ?getTypeUri@ComplexTypeInfo@xercesc_2_5@@QBEPBGXZ 12036370 f i XSAnnotation.obj
 0001:000353c0       ?setTypeName@ComplexTypeInfo@xercesc_2_5@@QAEXQBG@Z 120363c0 f i XSAnnotation.obj
 0001:00035450       ?setMembertypeValidator@SchemaAttDef@xercesc_2_5@@QAEXPBVDatatypeValidator@2@@Z 12036450 f i XSAnnotation.obj
 0001:00035450       ?setDatatypeValidator@ComplexTypeInfo@xercesc_2_5@@QAEXQAVDatatypeValidator@2@@Z 12036450 f i XSAnnotation.obj
 0001:00035460       ?addElement@ComplexTypeInfo@xercesc_2_5@@QAEXQAVSchemaElementDecl@2@@Z 12036460 f i XSAnnotation.obj
 0001:000355b0       ?setAttWildCard@ComplexTypeInfo@xercesc_2_5@@QAEXQAVSchemaAttDef@2@@Z 120365b0 f i XSAnnotation.obj
 0001:000355e0       ?setContentModel@ComplexTypeInfo@xercesc_2_5@@QAEXQAVXMLContentModel@2@@Z 120365e0 f i XSAnnotation.obj
 0001:00035620       ?setAnonymous@ComplexTypeInfo@xercesc_2_5@@QAEXXZ 12036620 f i XSAnnotation.obj
 0001:00035630       ?hasAttDefs@ComplexTypeInfo@xercesc_2_5@@QBE_NXZ 12036630 f i XSAnnotation.obj
 0001:00035670       ?contains@ComplexTypeInfo@xercesc_2_5@@QAE_NQBG@Z 12036670 f i XSAnnotation.obj
 0001:00035870       ?cleanUp@XPathMatcher@xercesc_2_5@@AAEXXZ 12036870 f i XSAnnotation.obj
 0001:000358b0       ??_FIC_Field@xercesc_2_5@@QAEXXZ 120368b0 f i XSAnnotation.obj
 0001:000358c0       ??1FieldMatcher@xercesc_2_5@@UAE@XZ 120368c0 f i XSAnnotation.obj
 0001:000358d0       ??_EFieldMatcher@xercesc_2_5@@UAEPAXI@Z 120368d0 f i XSAnnotation.obj
 0001:00035930       ?addField@IdentityConstraint@xercesc_2_5@@QAEXQAVIC_Field@2@@Z 12036930 f i XSAnnotation.obj
 0001:00035a60       ??_FSchemaElementDecl@xercesc_2_5@@QAEXXZ 12036a60 f i XSAnnotation.obj
 0001:00035a70       ?getContentSpec@SchemaElementDecl@xercesc_2_5@@UBEPBVContentSpecNode@2@XZ 12036a70 f i XSAnnotation.obj
 0001:00035a70       ?getContentSpec@SchemaElementDecl@xercesc_2_5@@UAEPAVContentSpecNode@2@XZ 12036a70 f i XSAnnotation.obj
 0001:00035a80       ?getContentModel@SchemaElementDecl@xercesc_2_5@@UAEPAVXMLContentModel@2@XZ 12036a80 f i XSAnnotation.obj
 0001:00035ab0       ?getModelType@SchemaElementDecl@xercesc_2_5@@QBE?AW4ModelTypes@12@XZ 12036ab0 f i XSAnnotation.obj
 0001:00035ac0       ?isGlobalDecl@SchemaElementDecl@xercesc_2_5@@UBE_NXZ 12036ac0 f i XSAnnotation.obj
 0001:00035ad0       ?getTypeName@SchemaElementDecl@xercesc_2_5@@QBEPBGXZ 12036ad0 f i XSAnnotation.obj
 0001:00035bd0       ?getTypeType@SchemaElementDecl@xercesc_2_5@@QBE?AW4Complexity@PSVIDefs@2@XZ 12036bd0 f i XSAnnotation.obj
 0001:00035c00       ?getTypeUri@SchemaElementDecl@xercesc_2_5@@QBEPBGXZ 12036c00 f i XSAnnotation.obj
 0001:00035c80       ?getMemberTypeName@SchemaElementDecl@xercesc_2_5@@QBEPBGXZ 12036c80 f i XSAnnotation.obj
 0001:00035cc0       ?getMemberTypeUri@SchemaElementDecl@xercesc_2_5@@QBEPBGXZ 12036cc0 f i XSAnnotation.obj
 0001:00035d00       ?getMemberTypeAnonymous@SchemaElementDecl@xercesc_2_5@@QBE_NXZ 12036d00 f i XSAnnotation.obj
 0001:00035d40       ?isTypeDefinitionUnion@SchemaElementDecl@xercesc_2_5@@QBE_NXZ 12036d40 f i XSAnnotation.obj
 0001:00035d70       ?getValidationAttempted@SchemaElementDecl@xercesc_2_5@@QBE?AW4Validation@PSVIDefs@2@XZ 12036d70 f i XSAnnotation.obj
 0001:00035db0       ?getTypeAnonymous@SchemaElementDecl@xercesc_2_5@@QBE_NXZ 12036db0 f i XSAnnotation.obj
 0001:00035de0       ?getDOMTypeInfoName@SchemaElementDecl@xercesc_2_5@@UBEPBGXZ 12036de0 f i XSAnnotation.obj
 0001:00035fb0       ?getDOMTypeInfoUri@SchemaElementDecl@xercesc_2_5@@UBEPBGXZ 12036fb0 f i XSAnnotation.obj
 0001:00036120       ?setDefaultValue@SchemaElementDecl@xercesc_2_5@@QAEXQBG@Z 12037120 f i XSAnnotation.obj
 0001:00036190       ?setPrimitiveType@XSSimpleTypeDefinition@xercesc_2_5@@AAEXQAV12@@Z 12037190 f i XSAnnotation.obj
 0001:00036190       ?setBaseComplexTypeInfo@ComplexTypeInfo@xercesc_2_5@@QAEXQAV12@@Z 12037190 f i XSAnnotation.obj
 0001:00036190       ?setComplexTypeInfo@SchemaElementDecl@xercesc_2_5@@QAEXQAVComplexTypeInfo@2@@Z 12037190 f i XSAnnotation.obj
 0001:00036190       ?setOrdered@DatatypeValidator@xercesc_2_5@@IAEXW4ORDERING@XSSimpleTypeDefinition@2@@Z 12037190 f i XSAnnotation.obj
 0001:000361a0       ?setAttWildCard@SchemaElementDecl@xercesc_2_5@@QAEXQAVSchemaAttDef@2@@Z 120371a0 f i XSAnnotation.obj
 0001:000361d0       ?setValidationAttempted@SchemaElementDecl@xercesc_2_5@@QAEXW4Validation@PSVIDefs@2@@Z 120371d0 f i XSAnnotation.obj
 0001:000361e0       ?updateValidityFromAttribute@SchemaElementDecl@xercesc_2_5@@QAEXPBVSchemaAttDef@2@@Z 120371e0 f i XSAnnotation.obj
 0001:00036220       ?updateValidityFromElement@SchemaElementDecl@xercesc_2_5@@QAEXPBVXMLElementDecl@2@W4GrammarType@Grammar@2@@Z 12037220 f i XSAnnotation.obj
 0001:00036290       ?reset@SchemaElementDecl@xercesc_2_5@@QAEXXZ 12037290 f i XSAnnotation.obj
 0001:000362d0       ?addIdentityConstraint@SchemaElementDecl@xercesc_2_5@@QAEXQAVIdentityConstraint@2@@Z 120372d0 f i XSAnnotation.obj
 0001:00036400       ?getIdentityConstraintCount@SchemaElementDecl@xercesc_2_5@@QBEIXZ 12037400 f i XSAnnotation.obj
 0001:00036400       ?elementCount@ComplexTypeInfo@xercesc_2_5@@QBEIXZ 12037400 f i XSAnnotation.obj
 0001:00036410       ?getIdentityConstraintAt@SchemaElementDecl@xercesc_2_5@@QBEPAVIdentityConstraint@2@I@Z 12037410 f i XSAnnotation.obj
 0001:00036460       ??1XMLGrammarPool@xercesc_2_5@@UAE@XZ 12037460 f i XSAnnotation.obj
 0001:00036470       ??0XMLGrammarPool@xercesc_2_5@@IAE@QAVMemoryManager@1@@Z 12037470 f i XSAnnotation.obj
 0001:00036490       ??_FXMLGrammarPool@xercesc_2_5@@QAEXXZ 12037490 f i XSAnnotation.obj
 0001:000364a0       ??_EXMLGrammarPool@xercesc_2_5@@UAEPAXI@Z 120374a0 f i XSAnnotation.obj
 0001:00036500       ?getGrammarPoolMemoryManager@GrammarResolver@xercesc_2_5@@QBEQAVMemoryManager@2@XZ 12037500 f i XSAnnotation.obj
 0001:00036510       ?containsAttWithTypeId@ComplexTypeInfo@xercesc_2_5@@QBE_NXZ 12037510 f i XSAnnotation.obj
 0001:00036510       ?getExitOnFirstFatal@XMLScanner@xercesc_2_5@@QBE_NXZ 12037510 f i XSAnnotation.obj
 0001:00036520       ?getInException@XMLScanner@xercesc_2_5@@QBE_NXZ 12037520 f i XSAnnotation.obj
 0001:00036530       ?getIDRefList@XMLScanner@xercesc_2_5@@QAEPAV?$RefHashTableOf@VXMLRefInfo@xercesc_2_5@@@2@XZ 12037530 f i XSAnnotation.obj
 0001:00036530       ?getIDRefList@XMLScanner@xercesc_2_5@@QBEPBV?$RefHashTableOf@VXMLRefInfo@xercesc_2_5@@@2@XZ 12037530 f i XSAnnotation.obj
 0001:00036540       ?getValidationContext@XMLScanner@xercesc_2_5@@QAEPAVValidationContext@2@XZ 12037540 f i XSAnnotation.obj
 0001:00036570       ?getLocator@XMLScanner@xercesc_2_5@@QBEPBVLocator@2@XZ 12037570 f i XSAnnotation.obj
 0001:00036570       ?getReaderMgr@XMLScanner@xercesc_2_5@@QBEPBVReaderMgr@2@XZ 12037570 f i XSAnnotation.obj
 0001:00036580       ?getSrcOffset@XMLScanner@xercesc_2_5@@QBEIXZ 12037580 f i XSAnnotation.obj
 0001:00036590       ?getStandalone@XMLScanner@xercesc_2_5@@QBE_NXZ 12037590 f i XSAnnotation.obj
 0001:000365a0       ?getValidationScheme@XMLScanner@xercesc_2_5@@QBE?AW4ValSchemes@12@XZ 120375a0 f i XSAnnotation.obj
 0001:000365b0       ?getValidator@XMLScanner@xercesc_2_5@@QAEPAVXMLValidator@2@XZ 120375b0 f i XSAnnotation.obj
 0001:000365b0       ?getValidator@XMLScanner@xercesc_2_5@@QBEPBVXMLValidator@2@XZ 120375b0 f i XSAnnotation.obj
 0001:000365c0       ?getDoSchema@XMLScanner@xercesc_2_5@@QBE_NXZ 120375c0 f i XSAnnotation.obj
 0001:000365d0       ?getValidationSchemaFullChecking@XMLScanner@xercesc_2_5@@QBE_NXZ 120375d0 f i XSAnnotation.obj
 0001:000365e0       ?isValidatorFromUser@XMLScanner@xercesc_2_5@@QAE_NXZ 120375e0 f i XSAnnotation.obj
 0001:000365f0       ?getURIStringPool@XMLScanner@xercesc_2_5@@QBEPBVXMLStringPool@2@XZ 120375f0 f i XSAnnotation.obj
 0001:000365f0       ?getURIStringPool@XMLScanner@xercesc_2_5@@QAEPAVXMLStringPool@2@XZ 120375f0 f i XSAnnotation.obj
 0001:00036600       ?getHasNoDTD@XMLScanner@xercesc_2_5@@QBE_NXZ 12037600 f i XSAnnotation.obj
 0001:00036610       ?getExternalSchemaLocation@XMLScanner@xercesc_2_5@@QBEPAGXZ 12037610 f i XSAnnotation.obj
 0001:00036620       ?getExternalNoNamespaceSchemaLocation@XMLScanner@xercesc_2_5@@QBEPAGXZ 12037620 f i XSAnnotation.obj
 0001:00036630       ?getSecurityManager@XMLScanner@xercesc_2_5@@QBEPAVSecurityManager@2@XZ 12037630 f i XSAnnotation.obj
 0001:00036640       ?getRootGrammar@XMLScanner@xercesc_2_5@@QBEPAVGrammar@2@XZ 12037640 f i XSAnnotation.obj
 0001:00036650       ?getXMLVersion@XMLScanner@xercesc_2_5@@QBE?AW4XMLVersion@XMLReader@2@XZ 12037650 f i XSAnnotation.obj
 0001:00036660       ?getMemoryManager@XMLScanner@xercesc_2_5@@QBEPAVMemoryManager@2@XZ 12037660 f i XSAnnotation.obj
 0001:00036670       ?getNamespaceContext@XMLScanner@xercesc_2_5@@QBEPAV?$ValueVectorOf@PAUPrefMapElem@xercesc_2_5@@@2@XZ 12037670 f i XSAnnotation.obj
 0001:00036680       ?getPrefixId@XMLScanner@xercesc_2_5@@QBEIQBG@Z 12037680 f i XSAnnotation.obj
 0001:000366a0       ?getPrefixForId@XMLScanner@xercesc_2_5@@QBEPBGI@Z 120376a0 f i XSAnnotation.obj
 0001:000366c0       ?setSubstitutionGroupElem@SchemaElementDecl@xercesc_2_5@@QAEXQAV12@@Z 120376c0 f i XSAnnotation.obj
 0001:000366c0       ?setDocHandler@XMLScanner@xercesc_2_5@@QAEXQAVXMLDocumentHandler@2@@Z 120376c0 f i XSAnnotation.obj
 0001:000366d0       ?setEntityHandler@XMLScanner@xercesc_2_5@@QAEXQAVXMLEntityHandler@2@@Z 120376d0 f i XSAnnotation.obj
 0001:000366e0       ?setErrorReporter@XMLScanner@xercesc_2_5@@QAEXQAVXMLErrorReporter@2@@Z 120376e0 f i XSAnnotation.obj
 0001:000366f0       ?setAttWithTypeId@ComplexTypeInfo@xercesc_2_5@@QAEX_N@Z 120376f0 f i XSAnnotation.obj
 0001:000366f0       ?setExitOnFirstFatal@XMLScanner@xercesc_2_5@@QAEX_N@Z 120376f0 f i XSAnnotation.obj
 0001:00036700       ?setValidationConstraintFatal@XMLScanner@xercesc_2_5@@QAEX_N@Z 12037700 f i XSAnnotation.obj
 0001:00036700       ?setPreprocessed@ComplexTypeInfo@xercesc_2_5@@QAEX_N@Z 12037700 f i XSAnnotation.obj
 0001:00036710       ?setValidationScheme@XMLScanner@xercesc_2_5@@QAEXW4ValSchemes@12@@Z 12037710 f i XSAnnotation.obj
 0001:00036730       ?setDoSchema@XMLScanner@xercesc_2_5@@QAEX_N@Z 12037730 f i XSAnnotation.obj
 0001:00036740       ?setAdoptContentSpec@ComplexTypeInfo@xercesc_2_5@@QAEX_N@Z 12037740 f i XSAnnotation.obj
 0001:00036740       ?setDoNamespaces@XMLScanner@xercesc_2_5@@QAEX_N@Z 12037740 f i XSAnnotation.obj
 0001:00036750       ?setValidationSchemaFullChecking@XMLScanner@xercesc_2_5@@QAEX_N@Z 12037750 f i XSAnnotation.obj
 0001:00036760       ?setHasNoDTD@XMLScanner@xercesc_2_5@@QAEX_N@Z 12037760 f i XSAnnotation.obj
 0001:00036770       ?setRootElemName@XMLScanner@xercesc_2_5@@QAEXPAG@Z 12037770 f i XSAnnotation.obj
 0001:000367f0       ?setExternalSchemaLocation@XMLScanner@xercesc_2_5@@QAEXQBG@Z 120377f0 f i XSAnnotation.obj
 0001:00036870       ?setExternalNoNamespaceSchemaLocation@XMLScanner@xercesc_2_5@@QAEXQBG@Z 12037870 f i XSAnnotation.obj
 0001:000368f0       ?setExternalSchemaLocation@XMLScanner@xercesc_2_5@@QAEXQBD@Z 120378f0 f i XSAnnotation.obj
 0001:00036930       ?setExternalNoNamespaceSchemaLocation@XMLScanner@xercesc_2_5@@QAEXQBD@Z 12037930 f i XSAnnotation.obj
 0001:00036970       ?setSecurityManager@XMLScanner@xercesc_2_5@@QAEXQAVSecurityManager@2@@Z 12037970 f i XSAnnotation.obj
 0001:000369a0       ?setAbstract@ComplexTypeInfo@xercesc_2_5@@QAEX_N@Z 120379a0 f i XSAnnotation.obj
 0001:000369a0       ?setUsed@XMLRefInfo@xercesc_2_5@@QAEX_N@Z 120379a0 f i XSAnnotation.obj
 0001:000369a0       ?setCalculateSrcOfs@XMLScanner@xercesc_2_5@@QAEX_N@Z 120379a0 f i XSAnnotation.obj
 0001:000369b0       ?setStandardUriConformant@XMLScanner@xercesc_2_5@@QAEX_N@Z 120379b0 f i XSAnnotation.obj
 0001:000369c0       ?incrementErrorCount@XMLScanner@xercesc_2_5@@QAEXXZ 120379c0 f i XSAnnotation.obj
 0001:000369d0       ?setDoValidation@XMLScanner@xercesc_2_5@@QAEX_N@Z 120379d0 f i XSAnnotation.obj
 0001:00036a00       ?resetValidationContext@XMLScanner@xercesc_2_5@@IAEXXZ 12037a00 f i XSAnnotation.obj
 0001:00036a20       ??_FSAX2XMLReaderImpl@xercesc_2_5@@QAEXXZ 12037a20 f i XSAnnotation.obj
 0001:00036a30       ?getExitOnFirstFatalError@SAX2XMLReaderImpl@xercesc_2_5@@UBE_NXZ 12037a30 f i XSAnnotation.obj
 0001:00036a40       ?getValidationConstraintFatal@SAX2XMLReaderImpl@xercesc_2_5@@UBE_NXZ 12037a40 f i XSAnnotation.obj
 0001:00036a50       ?getRootGrammar@SAX2XMLReaderImpl@xercesc_2_5@@UAEPAVGrammar@2@XZ 12037a50 f i XSAnnotation.obj
 0001:00036a60       ?getURIText@SAX2XMLReaderImpl@xercesc_2_5@@UBEPBGI@Z 12037a60 f i XSAnnotation.obj
 0001:00036a70       ?getSrcOffset@SAX2XMLReaderImpl@xercesc_2_5@@UBEIXZ 12037a70 f i XSAnnotation.obj
 0001:00036a80       ??0SAXException@xercesc_2_5@@QAE@QAVMemoryManager@1@@Z 12037a80 f i XSAnnotation.obj
 0001:00036b00       ??0SAXException@xercesc_2_5@@QAE@QBGQAVMemoryManager@1@@Z 12037b00 f i XSAnnotation.obj
 0001:00036b70       ??0SAXException@xercesc_2_5@@QAE@QBDQAVMemoryManager@1@@Z 12037b70 f i XSAnnotation.obj
 0001:00036ba0       ??0SAXException@xercesc_2_5@@QAE@ABV01@@Z 12037ba0 f i XSAnnotation.obj
 0001:00036c10       ??1SAXNotSupportedException@xercesc_2_5@@UAE@XZ 12037c10 f i XSAnnotation.obj
 0001:00036c10       ??1SAXException@xercesc_2_5@@UAE@XZ 12037c10 f i XSAnnotation.obj
 0001:00036c10       ??1SAXNotRecognizedException@xercesc_2_5@@UAE@XZ 12037c10 f i XSAnnotation.obj
 0001:00036c30       ??4SAXException@xercesc_2_5@@QAEAAV01@ABV01@@Z 12037c30 f i XSAnnotation.obj
 0001:00036cb0       ??_FSAXException@xercesc_2_5@@QAEXXZ 12037cb0 f i XSAnnotation.obj
 0001:00036d30       ??_ESAXException@xercesc_2_5@@UAEPAXI@Z 12037d30 f i XSAnnotation.obj
 0001:00036d90       ??0SAXNotSupportedException@xercesc_2_5@@QAE@ABV01@@Z 12037d90 f i XSAnnotation.obj
 0001:00036e00       ??_FSAXNotSupportedException@xercesc_2_5@@QAEXXZ 12037e00 f i XSAnnotation.obj
 0001:00036e10       ??_ESAXNotSupportedException@xercesc_2_5@@UAEPAXI@Z 12037e10 f i XSAnnotation.obj
 0001:00036e10       ??_ESAXNotRecognizedException@xercesc_2_5@@UAEPAXI@Z 12037e10 f i XSAnnotation.obj
 0001:00036e70       ??0SAXNotRecognizedException@xercesc_2_5@@QAE@ABV01@@Z 12037e70 f i XSAnnotation.obj
 0001:00036ee0       ??4SAXNotRecognizedException@xercesc_2_5@@QAEAAV01@ABV01@@Z 12037ee0 f i XSAnnotation.obj
 0001:00036ee0       ??4SAXNotSupportedException@xercesc_2_5@@QAEAAV01@ABV01@@Z 12037ee0 f i XSAnnotation.obj
 0001:00036f60       ??_FSAXNotRecognizedException@xercesc_2_5@@QAEXXZ 12037f60 f i XSAnnotation.obj
 0001:00036f70       ?createXMLReader@XMLReaderFactory@xercesc_2_5@@SAPAVSAX2XMLReader@2@QAVMemoryManager@2@QAVXMLGrammarPool@2@@Z 12037f70 f i XSAnnotation.obj
 0001:00036fe0       ?createXMLReader@XMLReaderFactory@xercesc_2_5@@SAPAVSAX2XMLReader@2@PBG@Z 12037fe0 f i XSAnnotation.obj
 0001:00037010       ??0DOMNode@xercesc_2_5@@IAE@XZ 12038010 f i XSAnnotation.obj
 0001:00037020       ??_EDOMNode@xercesc_2_5@@UAEPAXI@Z 12038020 f i XSAnnotation.obj
 0001:00037080       ??0DOMDocumentRange@xercesc_2_5@@IAE@XZ 12038080 f i XSAnnotation.obj
 0001:00037090       ??1DOMDocumentRange@xercesc_2_5@@UAE@XZ 12038090 f i XSAnnotation.obj
 0001:000370a0       ??_EDOMDocumentRange@xercesc_2_5@@UAEPAXI@Z 120380a0 f i XSAnnotation.obj
 0001:00037100       ??0DOMDocumentTraversal@xercesc_2_5@@IAE@XZ 12038100 f i XSAnnotation.obj
 0001:00037110       ??1DOMDocumentTraversal@xercesc_2_5@@UAE@XZ 12038110 f i XSAnnotation.obj
 0001:00037120       ??_EDOMDocumentTraversal@xercesc_2_5@@UAEPAXI@Z 12038120 f i XSAnnotation.obj
 0001:00037180       ??0DOMXPathEvaluator@xercesc_2_5@@IAE@XZ 12038180 f i XSAnnotation.obj
 0001:00037190       ??1DOMXPathEvaluator@xercesc_2_5@@UAE@XZ 12038190 f i XSAnnotation.obj
 0001:000371a0       ??_EDOMXPathEvaluator@xercesc_2_5@@UAEPAXI@Z 120381a0 f i XSAnnotation.obj
 0001:00037200       ??0DOMDocument@xercesc_2_5@@IAE@XZ 12038200 f i XSAnnotation.obj
 0001:00037240       ??1DOMDocument@xercesc_2_5@@UAE@XZ 12038240 f i XSAnnotation.obj
 0001:000372a0       ??_EDOMDocument@xercesc_2_5@@UAEPAXI@Z 120382a0 f i XSAnnotation.obj
 0001:00037300       ??0DOMDocumentType@xercesc_2_5@@IAE@XZ 12038300 f i XSAnnotation.obj
 0001:00037310       ??_FAbstractDOMParser@xercesc_2_5@@QAEXXZ 12038310 f i XSAnnotation.obj
 0001:00037320       ?getExpandEntityReferences@AbstractDOMParser@xercesc_2_5@@QBE_NXZ 12038320 f i XSAnnotation.obj
 0001:00037330       ?getParseInProgress@AbstractDOMParser@xercesc_2_5@@IBE_NXZ 12038330 f i XSAnnotation.obj
 0001:00037330       ?getNormalizeData@XMLScanner@xercesc_2_5@@QBE_NXZ 12038330 f i XSAnnotation.obj
 0001:00037340       ?setExpandEntityReferences@AbstractDOMParser@xercesc_2_5@@QAEX_N@Z 12038340 f i XSAnnotation.obj
 0001:00037350       ?useImplementation@AbstractDOMParser@xercesc_2_5@@QAEXQBG@Z 12038350 f i XSAnnotation.obj
 0001:000373c0       ?setParseInProgress@AbstractDOMParser@xercesc_2_5@@IAEX_N@Z 120383c0 f i XSAnnotation.obj
 0001:000373c0       ?setNormalizeData@XMLScanner@xercesc_2_5@@QAEX_N@Z 120383c0 f i XSAnnotation.obj
 0001:000373d0       ??_FXercesDOMParser@xercesc_2_5@@QAEXXZ 120383d0 f i XSAnnotation.obj
 0001:000373e0       ?getErrorHandler@XercesDOMParser@xercesc_2_5@@QAEPAVErrorHandler@2@XZ 120383e0 f i XSAnnotation.obj
 0001:000373e0       ?getErrorHandler@XercesDOMParser@xercesc_2_5@@QBEPBVErrorHandler@2@XZ 120383e0 f i XSAnnotation.obj
 0001:000373f0       ?getLocator@ComplexTypeInfo@xercesc_2_5@@QBEPAVXSDLocator@2@XZ 120383f0 f i XSAnnotation.obj
 0001:000373f0       ?getXMLEntityResolver@XercesDOMParser@xercesc_2_5@@QBEPBVXMLEntityResolver@2@XZ 120383f0 f i XSAnnotation.obj
 0001:000373f0       ?getXMLEntityResolver@XercesDOMParser@xercesc_2_5@@QAEPAVXMLEntityResolver@2@XZ 120383f0 f i XSAnnotation.obj
 0001:00037400       ??0DOMElement@xercesc_2_5@@IAE@XZ 12038400 f i XSAnnotation.obj
 0001:00037410       ??0XSAnnotation@xercesc_2_5@@QAE@QBGQAVMemoryManager@1@@Z 12038410 f   XSAnnotation.obj
 0001:000374d0       ??_EXSAnnotation@xercesc_2_5@@UAEPAXI@Z 120384d0 f i XSAnnotation.obj
 0001:00037530       ??0XSAnnotation@xercesc_2_5@@QAE@QAVMemoryManager@1@@Z 12038530 f   XSAnnotation.obj
 0001:000375a0       ??1XSAnnotation@xercesc_2_5@@UAE@XZ 120385a0 f   XSAnnotation.obj
 0001:00037620       ?writeAnnotation@XSAnnotation@xercesc_2_5@@QAEXPAVDOMNode@2@W4ANNOTATION_TARGET@12@@Z 12038620 f   XSAnnotation.obj
 0001:000377b0       ?writeAnnotation@XSAnnotation@xercesc_2_5@@QAEXPAVContentHandler@2@@Z 120387b0 f   XSAnnotation.obj
 0001:00037900       ?setNext@XSAnnotation@xercesc_2_5@@QAEXQAV12@@Z 12038900 f   XSAnnotation.obj
 0001:00037930       ?createObject@XSAnnotation@xercesc_2_5@@SAPAVXSerializable@2@PAVMemoryManager@2@@Z 12038930 f   XSAnnotation.obj
 0001:000379d0       ?getProtoType@XSAnnotation@xercesc_2_5@@UBEPAVXProtoType@2@XZ 120389d0 f   XSAnnotation.obj
 0001:000379e0       ?serialize@XSAnnotation@xercesc_2_5@@UAEXAAVXSerializeEngine@2@@Z 120389e0 f   XSAnnotation.obj
 0001:00037a40       ??1?$XMLEnumerator@VSchemaAttDef@xercesc_2_5@@@xercesc_2_5@@UAE@XZ 12038a40 f i XSAnnotation.obj
 0001:00037a50       ??_E?$XMLEnumerator@VSchemaAttDef@xercesc_2_5@@@xercesc_2_5@@UAEPAXI@Z 12038a50 f i XSAnnotation.obj
 0001:00037a50       ??_G?$XMLEnumerator@VSchemaAttDef@xercesc_2_5@@@xercesc_2_5@@UAEPAXI@Z 12038a50 f i XSAnnotation.obj
 0001:00037a70       ??1?$RefHash2KeysTableOfEnumerator@VSchemaAttDef@xercesc_2_5@@@xercesc_2_5@@UAE@XZ 12038a70 f i XSAnnotation.obj
 0001:00037b40       ?hasMoreElements@?$RefHashTableOfEnumerator@VXMLRefInfo@xercesc_2_5@@@xercesc_2_5@@UBE_NXZ 12038b40 f i XSAnnotation.obj
 0001:00037b40       ?hasMoreElements@?$RefHash2KeysTableOfEnumerator@V?$ValueVectorOf@PAVSchemaElementDecl@xercesc_2_5@@@xercesc_2_5@@@xercesc_2_5@@UBE_NXZ 12038b40 f i XSAnnotation.obj
 0001:00037b40       ?hasMoreElements@?$RefHashTableOfEnumerator@G@xercesc_2_5@@UBE_NXZ 12038b40 f i XSAnnotation.obj
 0001:00037b40       ?hasMoreElements@?$RefHashTableOfEnumerator@VXercesAttGroupInfo@xercesc_2_5@@@xercesc_2_5@@UBE_NXZ 12038b40 f i XSAnnotation.obj
 0001:00037b40       ?hasMoreElements@?$RefHash2KeysTableOfEnumerator@VSchemaAttDef@xercesc_2_5@@@xercesc_2_5@@UBE_NXZ 12038b40 f i XSAnnotation.obj
 0001:00037b40       ?hasMoreElements@?$RefHashTableOfEnumerator@VXercesGroupInfo@xercesc_2_5@@@xercesc_2_5@@UBE_NXZ 12038b40 f i XSAnnotation.obj
 0001:00037b40       ?hasMoreElements@?$RefHashTableOfEnumerator@VXSAnnotation@xercesc_2_5@@@xercesc_2_5@@UBE_NXZ 12038b40 f i XSAnnotation.obj
 0001:00037b40       ?hasMoreElements@?$RefHashTableOfEnumerator@VValueStore@xercesc_2_5@@@xercesc_2_5@@UBE_NXZ 12038b40 f i XSAnnotation.obj
 0001:00037b40       ?hasMoreElements@?$RefHashTableOfEnumerator@VComplexTypeInfo@xercesc_2_5@@@xercesc_2_5@@UBE_NXZ 12038b40 f i XSAnnotation.obj
 0001:00037b40       ?hasMoreElements@?$RefHashTableOfEnumerator@VDatatypeValidator@xercesc_2_5@@@xercesc_2_5@@UBE_NXZ 12038b40 f i XSAnnotation.obj
 0001:00037b40       ?hasMoreElements@?$RefHashTableOfEnumerator@VDTDAttDef@xercesc_2_5@@@xercesc_2_5@@UBE_NXZ 12038b40 f i XSAnnotation.obj
 0001:00037b40       ?hasMoreElements@?$RefHashTableOfEnumerator@VGrammar@xercesc_2_5@@@xercesc_2_5@@UBE_NXZ 12038b40 f i XSAnnotation.obj
 0001:00037b40       ?hasMoreElements@?$RefHashTableOfEnumerator@VKVStringPair@xercesc_2_5@@@xercesc_2_5@@UBE_NXZ 12038b40 f i XSAnnotation.obj
 0001:00037b40       ?hasMoreElements@?$RefHashTableOfEnumerator@VXMLAttDef@xercesc_2_5@@@xercesc_2_5@@UBE_NXZ 12038b40 f i XSAnnotation.obj
 0001:00037b40       ?hasMoreElements@?$RefHashTableOfEnumerator@V?$KeyRefPair@XVDOMUserDataHandler@xercesc_2_5@@@xercesc_2_5@@@xercesc_2_5@@UBE_NXZ 12038b40 f i XSAnnotation.obj
 0001:00037b60       ??_E?$RefVectorOf@VSchemaElementDecl@xercesc_2_5@@@xercesc_2_5@@UAEPAXI@Z 12038b60 f i XSAnnotation.obj
 0001:00037b60       ??_G?$RefVectorOf@VSchemaElementDecl@xercesc_2_5@@@xercesc_2_5@@UAEPAXI@Z 12038b60 f i XSAnnotation.obj
 0001:00037b80       ??1?$RefVectorOf@VSchemaElementDecl@xercesc_2_5@@@xercesc_2_5@@UAE@XZ 12038b80 f i XSAnnotation.obj
 0001:00037c00       ??1?$BaseRefVectorOf@VSchemaElementDecl@xercesc_2_5@@@xercesc_2_5@@UAE@XZ 12038c00 f i XSAnnotation.obj
 0001:00037c10       ??_G?$RefHash2KeysTableOfEnumerator@VSchemaAttDef@xercesc_2_5@@@xercesc_2_5@@UAEPAXI@Z 12038c10 f i XSAnnotation.obj
 0001:00037c10       ??_E?$RefHash2KeysTableOfEnumerator@VSchemaAttDef@xercesc_2_5@@@xercesc_2_5@@UAEPAXI@Z 12038c10 f i XSAnnotation.obj
 0001:00037c30       ??_G?$RefVectorOf@VIC_Field@xercesc_2_5@@@xercesc_2_5@@UAEPAXI@Z 12038c30 f i XSAnnotation.obj
 0001:00037c30       ??_E?$RefVectorOf@VIC_Field@xercesc_2_5@@@xercesc_2_5@@UAEPAXI@Z 12038c30 f i XSAnnotation.obj
 0001:00037c50       ??1?$RefVectorOf@VIC_Field@xercesc_2_5@@@xercesc_2_5@@UAE@XZ 12038c50 f i XSAnnotation.obj
 0001:00037cd0       ??1?$BaseRefVectorOf@VIC_Field@xercesc_2_5@@@xercesc_2_5@@UAE@XZ 12038cd0 f i XSAnnotation.obj
 0001:00037ce0       ??_E?$RefVectorOf@VIdentityConstraint@xercesc_2_5@@@xercesc_2_5@@UAEPAXI@Z 12038ce0 f i XSAnnotation.obj
 0001:00037ce0       ??_G?$RefVectorOf@VIdentityConstraint@xercesc_2_5@@@xercesc_2_5@@UAEPAXI@Z 12038ce0 f i XSAnnotation.obj
 0001:00037d00       ??1?$RefVectorOf@VIdentityConstraint@xercesc_2_5@@@xercesc_2_5@@UAE@XZ 12038d00 f i XSAnnotation.obj
 0001:00037d80       ??1?$BaseRefVectorOf@VIdentityConstraint@xercesc_2_5@@@xercesc_2_5@@UAE@XZ 12038d80 f i XSAnnotation.obj
 0001:00037d90       ?removeAll@?$RefHash2KeysTableOf@VXSObject@xercesc_2_5@@@xercesc_2_5@@QAEXXZ 12038d90 f i XSAnnotation.obj
 0001:00037d90       ?removeAll@?$RefHash2KeysTableOf@VSchemaAttDef@xercesc_2_5@@@xercesc_2_5@@QAEXXZ 12038d90 f i XSAnnotation.obj
 0001:00037df0       ??_EDOMDocument@xercesc_2_5@@W3AEPAXI@Z 12038df0 f i XSAnnotation.obj
 0001:00037e00       ??_EDOMDocument@xercesc_2_5@@W7AEPAXI@Z 12038e00 f i XSAnnotation.obj
 0001:00037e10       ??_EDOMDocument@xercesc_2_5@@WM@AEPAXI@Z 12038e10 f i XSAnnotation.obj
 0001:00037e20       ??_EXSAnnotation@xercesc_2_5@@W3AEPAXI@Z 12038e20 f i XSAnnotation.obj
 0001:00037e30       ?getSchemaNamespace@XSNamespaceItem@xercesc_2_5@@QAEPBGXZ 12038e30 f i XSAttributeDeclaration.obj
 0001:00037e40       ?setValidationAttempted@SchemaAttDef@xercesc_2_5@@QAEXW4Validation@PSVIDefs@2@@Z 12038e40 f i XSAttributeDeclaration.obj
 0001:00037e40       ?setXsiComplexTypeInfo@SchemaElementDecl@xercesc_2_5@@QAEXQAVComplexTypeInfo@2@@Z 12038e40 f i XSAttributeDeclaration.obj
 0001:00037e40       ?setLength@AbstractStringValidator@xercesc_2_5@@IAEXI@Z 12038e40 f i XSAttributeDeclaration.obj
 0001:00037e50       ?setPSVIScope@SchemaAttDef@xercesc_2_5@@QAEXW4PSVIScope@PSVIDefs@2@@Z 12038e50 f i XSAttributeDeclaration.obj
 0001:00037e50       ?setMaxLength@AbstractStringValidator@xercesc_2_5@@IAEXI@Z 12038e50 f i XSAttributeDeclaration.obj
 0001:00037e50       ?setXsiSimpleTypeInfo@SchemaElementDecl@xercesc_2_5@@QAEXQBVDatatypeValidator@2@@Z 12038e50 f i XSAttributeDeclaration.obj
 0001:00037e60       ?setBaseAttDecl@SchemaAttDef@xercesc_2_5@@QAEXQAV12@@Z 12038e60 f i XSAttributeDeclaration.obj
 0001:00037e60       ?setMinLength@AbstractStringValidator@xercesc_2_5@@IAEXI@Z 12038e60 f i XSAttributeDeclaration.obj
 0001:00037e70       ?setEnumeration@AbstractStringValidator@xercesc_2_5@@IAEXPAV?$RefArrayVectorOf@G@2@_N@Z 12038e70 f i XSAttributeDeclaration.obj
 0001:00037eb0       ??_FStringDatatypeValidator@xercesc_2_5@@QAEXXZ 12038eb0 f i XSAttributeDeclaration.obj
 0001:00037ec0       ??_FIDDatatypeValidator@xercesc_2_5@@QAEXXZ 12038ec0 f i XSAttributeDeclaration.obj
 0001:00037ed0       ??_FDatatypeValidatorFactory@xercesc_2_5@@QAEXXZ 12038ed0 f i XSAttributeDeclaration.obj
 0001:00037ee0       ?getDatatypeValidator@DatatypeValidatorFactory@xercesc_2_5@@QBEPAVDatatypeValidator@2@QBG@Z 12038ee0 f i XSAttributeDeclaration.obj
 0001:000380e0       ?getBuiltInRegistry@DatatypeValidatorFactory@xercesc_2_5@@SAPAV?$RefHashTableOf@VDatatypeValidator@xercesc_2_5@@@2@XZ 120390e0 f i XSAttributeDeclaration.obj
 0001:000380f0       ?cleanUp@DatatypeValidatorFactory@xercesc_2_5@@AAEXXZ 120390f0 f i XSAttributeDeclaration.obj
 0001:00038180       ??_FXMLGrammarDescription@xercesc_2_5@@QAEXXZ 12039180 f i XSAttributeDeclaration.obj
 0001:00038190       ??_FXMLSchemaDescription@xercesc_2_5@@QAEXXZ 12039190 f i XSAttributeDeclaration.obj
 0001:000381a0       ??_FSchemaGrammar@xercesc_2_5@@QAEXXZ 120391a0 f i XSAttributeDeclaration.obj
 0001:000381b0       ?getElemEnumerator@SchemaGrammar@xercesc_2_5@@QBE?AV?$RefHash3KeysIdPoolEnumerator@VSchemaElementDecl@xercesc_2_5@@@2@XZ 120391b0 f i XSAttributeDeclaration.obj
 0001:00038280       ?getNotationEnumerator@SchemaGrammar@xercesc_2_5@@QBE?AV?$NameIdPoolEnumerator@VXMLNotationDecl@xercesc_2_5@@@2@XZ 12039280 f i XSAttributeDeclaration.obj
 0001:000382c0       ?getDatatypeRegistry@SchemaGrammar@xercesc_2_5@@QAEPAVDatatypeValidatorFactory@2@XZ 120392c0 f i XSAttributeDeclaration.obj
 0001:000382d0       ?getIDRefList@SchemaGrammar@xercesc_2_5@@QBEPAV?$RefHashTableOf@VXMLRefInfo@xercesc_2_5@@@2@XZ 120392d0 f i XSAttributeDeclaration.obj
 0001:000382e0       ?getAnnotation@SchemaGrammar@xercesc_2_5@@QAEPAVXSAnnotation@2@QBX@Z 120392e0 f i XSAttributeDeclaration.obj
 0001:000382e0       ?getAnnotation@SchemaGrammar@xercesc_2_5@@QBEPBVXSAnnotation@2@QBX@Z 120392e0 f i XSAttributeDeclaration.obj
 0001:00038370       ?getAnnotation@SchemaGrammar@xercesc_2_5@@QBEPBVXSAnnotation@2@XZ 12039370 f i XSAttributeDeclaration.obj
 0001:00038370       ?getAnnotation@SchemaGrammar@xercesc_2_5@@QAEPAVXSAnnotation@2@XZ 12039370 f i XSAttributeDeclaration.obj
 0001:00038400       ?setTargetNamespace@SchemaGrammar@xercesc_2_5@@QAEXQBG@Z 12039400 f i XSAttributeDeclaration.obj
 0001:00038470       ?setFinalSet@SchemaElementDecl@xercesc_2_5@@QAEXH@Z 12039470 f i XSAttributeDeclaration.obj
 0001:00038470       ?setNamespaceScope@SchemaGrammar@xercesc_2_5@@QAEXQAVNamespaceScope@2@@Z 12039470 f i XSAttributeDeclaration.obj
 0001:00038470       ?setRegex@DatatypeValidator@xercesc_2_5@@IAEXQAVRegularExpression@2@@Z 12039470 f i XSAttributeDeclaration.obj
 0001:00038480       ?setValidSubstitutionGroups@SchemaGrammar@xercesc_2_5@@QAEXQAV?$RefHash2KeysTableOf@V?$ValueVectorOf@PAVSchemaElementDecl@xercesc_2_5@@@xercesc_2_5@@@2@@Z 12039480 f i XSAttributeDeclaration.obj
 0001:00038480       ?setDocument@AbstractDOMParser@xercesc_2_5@@IAEXPAVDOMDocument@2@@Z 12039480 f i XSAttributeDeclaration.obj
 0001:00038480       ?setDatatypeValidator@SchemaAttDef@xercesc_2_5@@QAEXPAVDatatypeValidator@2@@Z 12039480 f i XSAttributeDeclaration.obj
 0001:00038480       ?setBlockSet@SchemaElementDecl@xercesc_2_5@@QAEXH@Z 12039480 f i XSAttributeDeclaration.obj
 0001:00038490       ?getElemId@SchemaGrammar@xercesc_2_5@@UBEIIQBG0I@Z 12039490 f i XSAttributeDeclaration.obj
 0001:000385d0       ?getElemDecl@SchemaGrammar@xercesc_2_5@@UAEPAVXMLElementDecl@2@IQBG0I@Z 120395d0 f i XSAttributeDeclaration.obj
 0001:000385d0       ?getElemDecl@SchemaGrammar@xercesc_2_5@@UBEPBVXMLElementDecl@2@IQBG0I@Z 120395d0 f i XSAttributeDeclaration.obj
 0001:00038790       ?getElemDecl@SchemaGrammar@xercesc_2_5@@UBEPBVXMLElementDecl@2@I@Z 12039790 f i XSAttributeDeclaration.obj
 0001:00038790       ?getElemDecl@SchemaGrammar@xercesc_2_5@@UAEPAVXMLElementDecl@2@I@Z 12039790 f i XSAttributeDeclaration.obj
 0001:00038810       ?putElemDecl@SchemaGrammar@xercesc_2_5@@UAEIQAVXMLElementDecl@2@_N@Z 12039810 f i XSAttributeDeclaration.obj
 0001:00038a50       ?putGroupElemDecl@SchemaGrammar@xercesc_2_5@@QBEIQAVXMLElementDecl@2@@Z 12039a50 f i XSAttributeDeclaration.obj
 0001:00038a80       ?getNotationDecl@DTDGrammar@xercesc_2_5@@UBEPBVXMLNotationDecl@2@QBG@Z 12039a80 f i XSAttributeDeclaration.obj
 0001:00038a80       ?getNotationDecl@SchemaGrammar@xercesc_2_5@@UAEPAVXMLNotationDecl@2@QBG@Z 12039a80 f i XSAttributeDeclaration.obj
 0001:00038a80       ?getNotationDecl@DTDGrammar@xercesc_2_5@@UAEPAVXMLNotationDecl@2@QBG@Z 12039a80 f i XSAttributeDeclaration.obj
 0001:00038a80       ?getNotationDecl@SchemaGrammar@xercesc_2_5@@UBEPBVXMLNotationDecl@2@QBG@Z 12039a80 f i XSAttributeDeclaration.obj
 0001:00038b40       ?getValidated@SchemaGrammar@xercesc_2_5@@UBE_NXZ 12039b40 f i XSAttributeDeclaration.obj
 0001:00038b50       ?setValidated@SchemaGrammar@xercesc_2_5@@UAEX_N@Z 12039b50 f i XSAttributeDeclaration.obj
 0001:00038b60       ??0XSAttributeDeclaration@xercesc_2_5@@QAE@QAVSchemaAttDef@1@QAVXSSimpleTypeDefinition@1@QAVXSAnnotation@1@QAVXSModel@1@W4SCOPE@XSConstants@1@PAVXSComplexTypeDefinition@1@QAVMemoryManager@1@@Z 12039b60 f   XSAttributeDeclaration.obj
 0001:00038bb0       ??_EXSAttributeDeclaration@xercesc_2_5@@UAEPAXI@Z 12039bb0 f i XSAttributeDeclaration.obj
 0001:00038c10       ??1XSAttributeDeclaration@xercesc_2_5@@UAE@XZ 12039c10 f   XSAttributeDeclaration.obj
 0001:00038c20       ?getName@XSAttributeDeclaration@xercesc_2_5@@UAEPBGXZ 12039c20 f   XSAttributeDeclaration.obj
 0001:00038c30       ?getNamespace@XSAttributeDeclaration@xercesc_2_5@@UAEPBGXZ 12039c30 f   XSAttributeDeclaration.obj
 0001:00038c50       ?getConstraintType@XSAttributeDeclaration@xercesc_2_5@@QBE?AW4VALUE_CONSTRAINT@XSConstants@2@XZ 12039c50 f   XSAttributeDeclaration.obj
 0001:00038c80       ?getConstraintValue@XSAttributeDeclaration@xercesc_2_5@@QAEPBGXZ 12039c80 f   XSAttributeDeclaration.obj
 0001:00038c90       ?getRequired@XSAttributeDeclaration@xercesc_2_5@@QBE_NXZ 12039c90 f   XSAttributeDeclaration.obj
 0001:00038cb0       ??1?$XMLEnumerator@VSchemaElementDecl@xercesc_2_5@@@xercesc_2_5@@UAE@XZ 12039cb0 f i XSAttributeDeclaration.obj
 0001:00038cc0       ??_E?$XMLEnumerator@VSchemaElementDecl@xercesc_2_5@@@xercesc_2_5@@UAEPAXI@Z 12039cc0 f i XSAttributeDeclaration.obj
 0001:00038cc0       ??_G?$XMLEnumerator@VSchemaElementDecl@xercesc_2_5@@@xercesc_2_5@@UAEPAXI@Z 12039cc0 f i XSAttributeDeclaration.obj
 0001:00038ce0       ?hasMoreElements@?$RefHash3KeysIdPoolEnumerator@VSchemaElementDecl@xercesc_2_5@@@xercesc_2_5@@UBE_NXZ 12039ce0 f i XSAttributeDeclaration.obj
 0001:00038d00       ?nextElement@?$RefHash3KeysIdPoolEnumerator@VSchemaElementDecl@xercesc_2_5@@@xercesc_2_5@@UAEAAVSchemaElementDecl@2@XZ 12039d00 f i XSAttributeDeclaration.obj
 0001:00038d50       ?Reset@?$RefHash3KeysIdPoolEnumerator@VSchemaElementDecl@xercesc_2_5@@@xercesc_2_5@@UAEXXZ 12039d50 f i XSAttributeDeclaration.obj
 0001:00038d70       ?put@?$RefHash3KeysIdPool@VSchemaElementDecl@xercesc_2_5@@@xercesc_2_5@@QAEIPAXHHQAVSchemaElementDecl@2@@Z 12039d70 f i XSAttributeDeclaration.obj
 0001:00038f30       ?put@?$NameIdPool@VXMLNotationDecl@xercesc_2_5@@@xercesc_2_5@@QAEIQAVXMLNotationDecl@2@@Z 12039f30 f i XSAttributeDeclaration.obj
 0001:00039100       ??_E?$RefHash3KeysIdPoolEnumerator@VSchemaElementDecl@xercesc_2_5@@@xercesc_2_5@@UAEPAXI@Z 1203a100 f i XSAttributeDeclaration.obj
 0001:00039100       ??_G?$RefHash3KeysIdPoolEnumerator@VSchemaElementDecl@xercesc_2_5@@@xercesc_2_5@@UAEPAXI@Z 1203a100 f i XSAttributeDeclaration.obj
 0001:00039120       ??1?$RefHash3KeysIdPoolEnumerator@VSchemaElementDecl@xercesc_2_5@@@xercesc_2_5@@UAE@XZ 1203a120 f i XSAttributeDeclaration.obj
 0001:00039200       ??_E?$NameIdPoolEnumerator@VXMLNotationDecl@xercesc_2_5@@@xercesc_2_5@@UAEPAXI@Z 1203a200 f i XSAttributeDeclaration.obj
 0001:00039200       ??_G?$NameIdPoolEnumerator@VXMLNotationDecl@xercesc_2_5@@@xercesc_2_5@@UAEPAXI@Z 1203a200 f i XSAttributeDeclaration.obj
 0001:00039220       ??1?$NameIdPoolEnumerator@VXMLNotationDecl@xercesc_2_5@@@xercesc_2_5@@UAE@XZ 1203a220 f i XSAttributeDeclaration.obj
 0001:00039230       ??_G?$XMLEnumerator@VXMLNotationDecl@xercesc_2_5@@@xercesc_2_5@@UAEPAXI@Z 1203a230 f i XSAttributeDeclaration.obj
 0001:00039230       ??_E?$XMLEnumerator@VXMLNotationDecl@xercesc_2_5@@@xercesc_2_5@@UAEPAXI@Z 1203a230 f i XSAttributeDeclaration.obj
 0001:00039250       ?findBucketElem@?$RefHash3KeysIdPool@VSchemaElementDecl@xercesc_2_5@@@xercesc_2_5@@AAEPAU?$RefHash3KeysTableBucketElem@VSchemaElementDecl@xercesc_2_5@@@2@QBXHHAAI@Z 1203a250 f i XSAttributeDeclaration.obj
 0001:000392f0       ?initialize@?$RefHash3KeysIdPool@VSchemaElementDecl@xercesc_2_5@@@xercesc_2_5@@AAEXI@Z 1203a2f0 f i XSAttributeDeclaration.obj
 0001:00039360       ??_FXercesAttGroupInfo@xercesc_2_5@@QAEXXZ 1203a360 f i XSAttributeGroupDefinition.obj
 0001:00039370       ?getFieldCount@IdentityConstraint@xercesc_2_5@@QBEHXZ 1203a370 f i XSAttributeGroupDefinition.obj
 0001:00039370       ?attributeCount@XercesAttGroupInfo@xercesc_2_5@@QBEIXZ 1203a370 f i XSAttributeGroupDefinition.obj
 0001:00039380       ?anyAttributeCount@XercesAttGroupInfo@xercesc_2_5@@QBEIXZ 1203a380 f i XSAttributeGroupDefinition.obj
 0001:00039390       ?attributeAt@XercesAttGroupInfo@xercesc_2_5@@QBEPBVSchemaAttDef@2@I@Z 1203a390 f i XSAttributeGroupDefinition.obj
 0001:00039390       ?getFieldAt@IdentityConstraint@xercesc_2_5@@QAEPAVIC_Field@2@I@Z 1203a390 f i XSAttributeGroupDefinition.obj
 0001:00039390       ?attributeAt@XercesAttGroupInfo@xercesc_2_5@@QAEPAVSchemaAttDef@2@I@Z 1203a390 f i XSAttributeGroupDefinition.obj
 0001:00039390       ?getFieldAt@IdentityConstraint@xercesc_2_5@@QBEPBVIC_Field@2@I@Z 1203a390 f i XSAttributeGroupDefinition.obj
 0001:000393e0       ?anyAttributeAt@XercesAttGroupInfo@xercesc_2_5@@QAEPAVSchemaAttDef@2@I@Z 1203a3e0 f i XSAttributeGroupDefinition.obj
 0001:000393e0       ?anyAttributeAt@XercesAttGroupInfo@xercesc_2_5@@QBEPBVSchemaAttDef@2@I@Z 1203a3e0 f i XSAttributeGroupDefinition.obj
 0001:00039430       ?addAttDef@XercesAttGroupInfo@xercesc_2_5@@QAEXQAVSchemaAttDef@2@_N@Z 1203a430 f i XSAttributeGroupDefinition.obj
 0001:00039620       ?addAnyAttDef@XercesAttGroupInfo@xercesc_2_5@@QAEXQAVSchemaAttDef@2@_N@Z 1203a620 f i XSAttributeGroupDefinition.obj
 0001:00039810       ?setCompleteWildCard@XercesAttGroupInfo@xercesc_2_5@@QAEXQAVSchemaAttDef@2@@Z 1203a810 f i XSAttributeGroupDefinition.obj
 0001:00039840       ??0XSAttributeGroupDefinition@xercesc_2_5@@QAE@QAVXercesAttGroupInfo@1@QAV?$RefVectorOf@VXSAttributeUse@xercesc_2_5@@@1@QAVXSWildcard@1@QAVXSAnnotation@1@QAVXSModel@1@QAVMemoryManager@1@@Z 1203a840 f   XSAttributeGroupDefinition.obj
 0001:00039880       ??_EXSAttributeGroupDefinition@xercesc_2_5@@UAEPAXI@Z 1203a880 f i XSAttributeGroupDefinition.obj
 0001:000398e0       ??1XSAttributeGroupDefinition@xercesc_2_5@@UAE@XZ 1203a8e0 f   XSAttributeGroupDefinition.obj
 0001:00039940       ?getName@XSAttributeGroupDefinition@xercesc_2_5@@UAEPBGXZ 1203a940 f   XSAttributeGroupDefinition.obj
 0001:00039960       ?getNamespace@XSAttributeGroupDefinition@xercesc_2_5@@UAEPBGXZ 1203a960 f   XSAttributeGroupDefinition.obj
 0001:00039960       ?getName@XSModelGroupDefinition@xercesc_2_5@@UAEPBGXZ 1203a960 f   XSAttributeGroupDefinition.obj
 0001:00039980       ??_G?$RefVectorOf@VSchemaAttDef@xercesc_2_5@@@xercesc_2_5@@UAEPAXI@Z 1203a980 f i XSAttributeGroupDefinition.obj
 0001:00039980       ??_E?$RefVectorOf@VSchemaAttDef@xercesc_2_5@@@xercesc_2_5@@UAEPAXI@Z 1203a980 f i XSAttributeGroupDefinition.obj
 0001:000399a0       ??1?$RefVectorOf@VSchemaAttDef@xercesc_2_5@@@xercesc_2_5@@UAE@XZ 1203a9a0 f i XSAttributeGroupDefinition.obj
 0001:00039a20       ??1?$BaseRefVectorOf@VSchemaAttDef@xercesc_2_5@@@xercesc_2_5@@UAE@XZ 1203aa20 f i XSAttributeGroupDefinition.obj
 0001:00039a30       ??0XSAttributeUse@xercesc_2_5@@QAE@QAVXSAttributeDeclaration@1@QAVXSModel@1@QAVMemoryManager@1@@Z 1203aa30 f   XSAttributeUse.obj
 0001:00039a70       ??_EXSAttributeUse@xercesc_2_5@@UAEPAXI@Z 1203aa70 f i XSAttributeUse.obj
 0001:00039ad0       ??1XSAttributeUse@xercesc_2_5@@UAE@XZ 1203aad0 f   XSAttributeUse.obj
 0001:00039ae0       ?set@XSAttributeUse@xercesc_2_5@@AAEX_NW4VALUE_CONSTRAINT@XSConstants@2@QBG@Z 1203aae0 f   XSAttributeUse.obj
 0001:00039b00       ?getMaxOccursUnbounded@XSParticle@xercesc_2_5@@QBE_NXZ 1203ab00 f i XSComplexTypeDefinition.obj
 0001:00039b10       ??_FSchemaAttDefList@xercesc_2_5@@QAEXXZ 1203ab10 f i XSComplexTypeDefinition.obj
 0001:00039b20       ??0XSComplexTypeDefinition@xercesc_2_5@@QAE@QAVComplexTypeInfo@1@QAVXSWildcard@1@QAVXSSimpleTypeDefinition@1@QAV?$RefVectorOf@VXSAttributeUse@xercesc_2_5@@@1@QAVXSTypeDefinition@1@QAVXSParticle@1@QAVXSAnnotation@1@QAVXSModel@1@QAVMemoryManager@1@@Z 1203ab20 f   XSComplexTypeDefinition.obj
 0001:00039ce0       ??_EXSComplexTypeDefinition@xercesc_2_5@@UAEPAXI@Z 1203ace0 f i XSComplexTypeDefinition.obj
 0001:00039d40       ??1XSComplexTypeDefinition@xercesc_2_5@@UAE@XZ 1203ad40 f   XSComplexTypeDefinition.obj
 0001:00039dc0       ?getDerivationMethod@XSComplexTypeDefinition@xercesc_2_5@@QBE?AW4DERIVATION_TYPE@XSConstants@2@XZ 1203adc0 f   XSComplexTypeDefinition.obj
 0001:00039de0       ?getAbstract@XSComplexTypeDefinition@xercesc_2_5@@QBE_NXZ 1203ade0 f   XSComplexTypeDefinition.obj
 0001:00039df0       ?getContentType@XSComplexTypeDefinition@xercesc_2_5@@QBE?AW4CONTENT_TYPE@12@XZ 1203adf0 f   XSComplexTypeDefinition.obj
 0001:00039e20       ?isProhibitedSubstitution@XSComplexTypeDefinition@xercesc_2_5@@QAE_NW4DERIVATION_TYPE@XSConstants@2@@Z 1203ae20 f   XSComplexTypeDefinition.obj
 0001:00039e30       ?getName@XSComplexTypeDefinition@xercesc_2_5@@UAEPBGXZ 1203ae30 f   XSComplexTypeDefinition.obj
 0001:00039ec0       ?getNamespace@XSComplexTypeDefinition@xercesc_2_5@@UAEPBGXZ 1203aec0 f   XSComplexTypeDefinition.obj
 0001:00039f10       ?getNamespaceItem@XSModelGroupDefinition@xercesc_2_5@@UAEPAVXSNamespaceItem@2@XZ 1203af10 f   XSComplexTypeDefinition.obj
 0001:00039f10       ?getNamespaceItem@XSElementDeclaration@xercesc_2_5@@UAEPAVXSNamespaceItem@2@XZ 1203af10 f   XSComplexTypeDefinition.obj
 0001:00039f10       ?getNamespaceItem@XSSimpleTypeDefinition@xercesc_2_5@@UAEPAVXSNamespaceItem@2@XZ 1203af10 f   XSComplexTypeDefinition.obj
 0001:00039f10       ?getNamespaceItem@XSAttributeDeclaration@xercesc_2_5@@UAEPAVXSNamespaceItem@2@XZ 1203af10 f   XSComplexTypeDefinition.obj
 0001:00039f10       ?getNamespaceItem@XSIDCDefinition@xercesc_2_5@@UAEPAVXSNamespaceItem@2@XZ 1203af10 f   XSComplexTypeDefinition.obj
 0001:00039f10       ?getNamespaceItem@XSComplexTypeDefinition@xercesc_2_5@@UAEPAVXSNamespaceItem@2@XZ 1203af10 f   XSComplexTypeDefinition.obj
 0001:00039f10       ?getNamespaceItem@XSNotationDeclaration@xercesc_2_5@@UAEPAVXSNamespaceItem@2@XZ 1203af10 f   XSComplexTypeDefinition.obj
 0001:00039f10       ?getNamespaceItem@XSAttributeGroupDefinition@xercesc_2_5@@UAEPAVXSNamespaceItem@2@XZ 1203af10 f   XSComplexTypeDefinition.obj
 0001:00039f30       ?getAnonymous@XSComplexTypeDefinition@xercesc_2_5@@UBE_NXZ 1203af30 f   XSComplexTypeDefinition.obj
 0001:00039f40       ?derivedFromType@XSComplexTypeDefinition@xercesc_2_5@@UAE_NQBVXSTypeDefinition@2@@Z 1203af40 f   XSComplexTypeDefinition.obj
 0001:00039f80       ?setElementAt@?$BaseRefVectorOf@VXSAttributeUse@xercesc_2_5@@@xercesc_2_5@@UAEXQAVXSAttributeUse@2@I@Z 1203af80 f i XSComplexTypeDefinition.obj
 0001:00039f80       ?setElementAt@?$BaseRefVectorOf@VXSFacet@xercesc_2_5@@@xercesc_2_5@@UAEXQAVXSFacet@2@I@Z 1203af80 f i XSComplexTypeDefinition.obj
 0001:00039f80       ?setElementAt@?$BaseRefVectorOf@VDOMImplementationSource@xercesc_2_5@@@xercesc_2_5@@UAEXQAVDOMImplementationSource@2@I@Z 1203af80 f i XSComplexTypeDefinition.obj
 0001:00039f80       ?setElementAt@?$BaseRefVectorOf@VXSSimpleTypeDefinition@xercesc_2_5@@@xercesc_2_5@@UAEXQAVXSSimpleTypeDefinition@2@I@Z 1203af80 f i XSComplexTypeDefinition.obj
 0001:00039f80       ?setElementAt@?$BaseRefVectorOf@VXMLEntityDecl@xercesc_2_5@@@xercesc_2_5@@UAEXQAVXMLEntityDecl@2@I@Z 1203af80 f i XSComplexTypeDefinition.obj
 0001:00039f80       ?setElementAt@?$BaseRefVectorOf@VXSAnnotation@xercesc_2_5@@@xercesc_2_5@@UAEXQAVXSAnnotation@2@I@Z 1203af80 f i XSComplexTypeDefinition.obj
 0001:00039f80       ?setElementAt@?$BaseRefVectorOf@VSchemaElementDecl@xercesc_2_5@@@xercesc_2_5@@UAEXQAVSchemaElementDecl@2@I@Z 1203af80 f i XSComplexTypeDefinition.obj
 0001:00039f80       ?setElementAt@?$BaseRefVectorOf@VIC_Field@xercesc_2_5@@@xercesc_2_5@@UAEXQAVIC_Field@2@I@Z 1203af80 f i XSComplexTypeDefinition.obj
 0001:00039f80       ?setElementAt@?$BaseRefVectorOf@VTreeWalkerImpl@xercesc_2_5@@@xercesc_2_5@@UAEXQAVTreeWalkerImpl@2@I@Z 1203af80 f i XSComplexTypeDefinition.obj
 0001:00039f80       ?setElementAt@?$BaseRefVectorOf@VXercesStep@xercesc_2_5@@@xercesc_2_5@@UAEXQAVXercesStep@2@I@Z 1203af80 f i XSComplexTypeDefinition.obj
 0001:00039f80       ?setElementAt@?$BaseRefVectorOf@VIdentityConstraint@xercesc_2_5@@@xercesc_2_5@@UAEXQAVIdentityConstraint@2@I@Z 1203af80 f i XSComplexTypeDefinition.obj
 0001:00039f80       ?setElementAt@?$BaseRefVectorOf@VPSVIAttribute@xercesc_2_5@@@xercesc_2_5@@UAEXQAVPSVIAttribute@2@I@Z 1203af80 f i XSComplexTypeDefinition.obj
 0001:00039f80       ?setElementAt@?$BaseRefVectorOf@VXercesLocationPath@xercesc_2_5@@@xercesc_2_5@@UAEXQAVXercesLocationPath@2@I@Z 1203af80 f i XSComplexTypeDefinition.obj
 0001:00039f80       ?setElementAt@?$BaseRefVectorOf@VDOMNodeIteratorImpl@xercesc_2_5@@@xercesc_2_5@@UAEXQAVDOMNodeIteratorImpl@2@I@Z 1203af80 f i XSComplexTypeDefinition.obj
 0001:00039f80       ?setElementAt@?$BaseRefVectorOf@VNodeImpl@xercesc_2_5@@@xercesc_2_5@@UAEXQAVNodeImpl@2@I@Z 1203af80 f i XSComplexTypeDefinition.obj
 0001:00039f80       ?setElementAt@?$BaseRefVectorOf@VXSMultiValueFacet@xercesc_2_5@@@xercesc_2_5@@UAEXQAVXSMultiValueFacet@2@I@Z 1203af80 f i XSComplexTypeDefinition.obj
 0001:00039f80       ?setElementAt@?$BaseRefVectorOf@VXMLNumber@xercesc_2_5@@@xercesc_2_5@@UAEXQAVXMLNumber@2@I@Z 1203af80 f i XSComplexTypeDefinition.obj
 0001:00039f80       ?setElementAt@?$BaseRefVectorOf@VXPathMatcher@xercesc_2_5@@@xercesc_2_5@@UAEXQAVXPathMatcher@2@I@Z 1203af80 f i XSComplexTypeDefinition.obj
 0001:00039f80       ?setElementAt@?$BaseRefVectorOf@VMatch@xercesc_2_5@@@xercesc_2_5@@UAEXQAVMatch@2@I@Z 1203af80 f i XSComplexTypeDefinition.obj
 0001:00039f80       ?setElementAt@?$BaseRefVectorOf@VNodeIteratorImpl@xercesc_2_5@@@xercesc_2_5@@UAEXQAVNodeIteratorImpl@2@I@Z 1203af80 f i XSComplexTypeDefinition.obj
 0001:00039f80       ?setElementAt@?$BaseRefVectorOf@VXSObject@xercesc_2_5@@@xercesc_2_5@@UAEXQAVXSObject@2@I@Z 1203af80 f i XSComplexTypeDefinition.obj
 0001:00039f80       ?setElementAt@?$BaseRefVectorOf@VXSElementDeclaration@xercesc_2_5@@@xercesc_2_5@@UAEXQAVXSElementDeclaration@2@I@Z 1203af80 f i XSComplexTypeDefinition.obj
 0001:00039f80       ?setElementAt@?$BaseRefVectorOf@VOp@xercesc_2_5@@@xercesc_2_5@@UAEXQAVOp@2@I@Z 1203af80 f i XSComplexTypeDefinition.obj
 0001:00039f80       ?setElementAt@?$BaseRefVectorOf@VDOMDocumentImpl@xercesc_2_5@@@xercesc_2_5@@UAEXQAVDOMDocumentImpl@2@I@Z 1203af80 f i XSComplexTypeDefinition.obj
 0001:00039f80       ?setElementAt@?$BaseRefVectorOf@VKVStringPair@xercesc_2_5@@@xercesc_2_5@@UAEXQAVKVStringPair@2@I@Z 1203af80 f i XSComplexTypeDefinition.obj
 0001:00039f80       ?setElementAt@?$BaseRefVectorOf@VXSAttributeDeclaration@xercesc_2_5@@@xercesc_2_5@@UAEXQAVXSAttributeDeclaration@2@I@Z 1203af80 f i XSComplexTypeDefinition.obj
 0001:00039f80       ?setElementAt@?$BaseRefVectorOf@VContentSpecNode@xercesc_2_5@@@xercesc_2_5@@UAEXQAVContentSpecNode@2@I@Z 1203af80 f i XSComplexTypeDefinition.obj
 0001:00039f80       ?setElementAt@?$BaseRefVectorOf@VDatatypeValidator@xercesc_2_5@@@xercesc_2_5@@UAEXQAVDatatypeValidator@2@I@Z 1203af80 f i XSComplexTypeDefinition.obj
 0001:00039f80       ?setElementAt@?$BaseRefVectorOf@VDOMRangeImpl@xercesc_2_5@@@xercesc_2_5@@UAEXQAVDOMRangeImpl@2@I@Z 1203af80 f i XSComplexTypeDefinition.obj
 0001:00039f80       ?setElementAt@?$BaseRefVectorOf@VDOMNode@xercesc_2_5@@@xercesc_2_5@@UAEXQAVDOMNode@2@I@Z 1203af80 f i XSComplexTypeDefinition.obj
 0001:00039f80       ?setElementAt@?$BaseRefVectorOf@VToken@xercesc_2_5@@@xercesc_2_5@@UAEXQAVToken@2@I@Z 1203af80 f i XSComplexTypeDefinition.obj
 0001:00039f80       ?setElementAt@?$BaseRefVectorOf@VRangeImpl@xercesc_2_5@@@xercesc_2_5@@UAEXQAVRangeImpl@2@I@Z 1203af80 f i XSComplexTypeDefinition.obj
 0001:00039f80       ?setElementAt@?$BaseRefVectorOf@VENameMap@xercesc_2_5@@@xercesc_2_5@@UAEXQAVENameMap@2@I@Z 1203af80 f i XSComplexTypeDefinition.obj
 0001:00039f80       ?setElementAt@?$BaseRefVectorOf@VSchemaAttDef@xercesc_2_5@@@xercesc_2_5@@UAEXQAVSchemaAttDef@2@I@Z 1203af80 f i XSComplexTypeDefinition.obj
 0001:00039f80       ?setElementAt@?$BaseRefVectorOf@VXSParticle@xercesc_2_5@@@xercesc_2_5@@UAEXQAVXSParticle@2@I@Z 1203af80 f i XSComplexTypeDefinition.obj
 0001:00039f80       ?setElementAt@?$BaseRefVectorOf@VXMLElementDecl@xercesc_2_5@@@xercesc_2_5@@UAEXQAVXMLElementDecl@2@I@Z 1203af80 f i XSComplexTypeDefinition.obj
 0001:00039f80       ?setElementAt@?$BaseRefVectorOf@VXSIDCDefinition@xercesc_2_5@@@xercesc_2_5@@UAEXQAVXSIDCDefinition@2@I@Z 1203af80 f i XSComplexTypeDefinition.obj
 0001:00039fe0       ??_G?$RefVectorOf@VXSAnnotation@xercesc_2_5@@@xercesc_2_5@@UAEPAXI@Z 1203afe0 f i XSComplexTypeDefinition.obj
 0001:00039fe0       ??_E?$RefVectorOf@VXSAnnotation@xercesc_2_5@@@xercesc_2_5@@UAEPAXI@Z 1203afe0 f i XSComplexTypeDefinition.obj
 0001:0003a000       ??1?$RefVectorOf@VXSAnnotation@xercesc_2_5@@@xercesc_2_5@@UAE@XZ 1203b000 f i XSComplexTypeDefinition.obj
 0001:0003a080       ??1?$BaseRefVectorOf@VXSAnnotation@xercesc_2_5@@@xercesc_2_5@@UAE@XZ 1203b080 f i XSComplexTypeDefinition.obj
 0001:0003a090       ??0XSElementDeclaration@xercesc_2_5@@QAE@QAVSchemaElementDecl@1@QAVXSTypeDefinition@1@QAV01@QAVXSAnnotation@1@QAV?$XSNamedMap@VXSIDCDefinition@xercesc_2_5@@@1@QAVXSModel@1@W4SCOPE@XSConstants@1@QAVXSComplexTypeDefinition@1@QAVMemoryManager@1@@Z 1203b090 f   XSElementDeclaration.obj
 0001:0003a130       ??_EXSElementDeclaration@xercesc_2_5@@UAEPAXI@Z 1203b130 f i XSElementDeclaration.obj
 0001:0003a190       ??1XSElementDeclaration@xercesc_2_5@@UAE@XZ 1203b190 f   XSElementDeclaration.obj
 0001:0003a280       ?getName@XSElementDeclaration@xercesc_2_5@@UAEPBGXZ 1203b280 f   XSElementDeclaration.obj
 0001:0003a290       ?getNamespace@XSElementDeclaration@xercesc_2_5@@UAEPBGXZ 1203b290 f   XSElementDeclaration.obj
 0001:0003a2b0       ?getConstraintType@XSElementDeclaration@xercesc_2_5@@QBE?AW4VALUE_CONSTRAINT@XSConstants@2@XZ 1203b2b0 f   XSElementDeclaration.obj
 0001:0003a2d0       ?getConstraintValue@XSElementDeclaration@xercesc_2_5@@QAEPBGXZ 1203b2d0 f   XSElementDeclaration.obj
 0001:0003a2e0       ?getNillable@XSElementDeclaration@xercesc_2_5@@QBE_NXZ 1203b2e0 f   XSElementDeclaration.obj
 0001:0003a2f0       ?isSubstitutionGroupExclusion@XSElementDeclaration@xercesc_2_5@@QAE_NW4DERIVATION_TYPE@XSConstants@2@@Z 1203b2f0 f   XSElementDeclaration.obj
 0001:0003a300       ?isDisallowedSubstitution@XSElementDeclaration@xercesc_2_5@@QAE_NW4DERIVATION_TYPE@XSConstants@2@@Z 1203b300 f   XSElementDeclaration.obj
 0001:0003a310       ?getAbstract@XSElementDeclaration@xercesc_2_5@@QBE_NXZ 1203b310 f   XSElementDeclaration.obj
 0001:0003a320       ?getLexicalFacetValue@XSFacet@xercesc_2_5@@QBEPBGXZ 1203b320 f i XSFacet.obj
 0001:0003a320       ?getAttributeDeclRegistry@SchemaGrammar@xercesc_2_5@@QBEPAV?$RefHashTableOf@VXMLAttDef@xercesc_2_5@@@2@XZ 1203b320 f i XSFacet.obj
 0001:0003a320       ?getNsConstraintList@XSWildcard@xercesc_2_5@@QAEPAV?$RefArrayVectorOf@G@2@XZ 1203b320 f i XSFacet.obj
 0001:0003a320       ?getAnnotation@XSModelGroupDefinition@xercesc_2_5@@QBEPAVXSAnnotation@2@XZ 1203b320 f i XSFacet.obj
 0001:0003a320       ?getAttributeWildcard@XSAttributeGroupDefinition@xercesc_2_5@@QBEPAVXSWildcard@2@XZ 1203b320 f i XSFacet.obj
 0001:0003a320       ?getScope@XSElementDeclaration@xercesc_2_5@@QBE?AW4SCOPE@XSConstants@2@XZ 1203b320 f i XSFacet.obj
 0001:0003a320       ?getGrammar@SchemaValidator@xercesc_2_5@@UBEPAVGrammar@2@XZ 1203b320 f i XSFacet.obj
 0001:0003a320       ?getFieldStrs@XSIDCDefinition@xercesc_2_5@@QAEPAV?$RefArrayVectorOf@G@2@XZ 1203b320 f i XSFacet.obj
 0001:0003a320       ?getScopeDefined@ComplexTypeInfo@xercesc_2_5@@QBEHXZ 1203b320 f i XSFacet.obj
 0001:0003a320       ?getGrammarPool@GrammarResolver@xercesc_2_5@@QBEQAVXMLGrammarPool@2@XZ 1203b320 f i XSFacet.obj
 0001:0003a320       ?getPublicId@XMLEntityDecl@xercesc_2_5@@QBEPBGXZ 1203b320 f i XSFacet.obj
 0001:0003a320       ?getAnnotation@XSModelGroup@xercesc_2_5@@QBEPAVXSAnnotation@2@XZ 1203b320 f i XSFacet.obj
 0001:0003a320       ?getConstraintValue@XSAttributeUse@xercesc_2_5@@QAEPBGXZ 1203b320 f i XSFacet.obj
 0001:0003a320       ?getValue@XMLBigDecimal@xercesc_2_5@@QBEPBGXZ 1203b320 f i XSFacet.obj
 0001:0003a320       ?getNamespaceURI@IdentityConstraint@xercesc_2_5@@QBEHXZ 1203b320 f i XSFacet.obj
 0001:0003a320       ?getCompleteWildCard@XercesAttGroupInfo@xercesc_2_5@@QBEPAVSchemaAttDef@2@XZ 1203b320 f i XSFacet.obj
 0001:0003a320       ?getValidity@PSVIItem@xercesc_2_5@@QBE?AW4VALIDITY_STATE@12@XZ 1203b320 f i XSFacet.obj
 0001:0003a320       ?getLexicalFacetValues@XSMultiValueFacet@xercesc_2_5@@QAEPAV?$RefArrayVectorOf@G@2@XZ 1203b320 f i XSFacet.obj
 0001:0003a320       ?getCurrentSchemaURL@SchemaInfo@xercesc_2_5@@QBEPAGXZ 1203b320 f i XSFacet.obj
 0001:0003a320       ?getScanner@AbstractDOMParser@xercesc_2_5@@IBEPAVXMLScanner@2@XZ 1203b320 f i XSFacet.obj
 0001:0003a320       ?getPath@XMLUri@xercesc_2_5@@QBEPBGXZ 1203b320 f i XSFacet.obj
 0001:0003a320       ?getNameSpaceId@XMLNotationDecl@xercesc_2_5@@QBEIXZ 1203b320 f i XSFacet.obj
 0001:0003a320       ?getValue@XMLAttDef@xercesc_2_5@@QBEPBGXZ 1203b320 f i XSFacet.obj
 0001:0003a320       ?getType@DatatypeValidator@xercesc_2_5@@QBE?AW4ValidatorType@12@XZ 1203b320 f i XSFacet.obj
 0001:0003a320       ?getAnnotation@XSAttributeDeclaration@xercesc_2_5@@QBEPAVXSAnnotation@2@XZ 1203b320 f i XSFacet.obj
 0001:0003a320       ?getMaxOccurs@XSParticle@xercesc_2_5@@QBEHXZ 1203b320 f i XSFacet.obj
 0001:0003a320       ?getRootElemId@DTDGrammar@xercesc_2_5@@QBEIXZ 1203b320 f i XSFacet.obj
 0001:0003a320       ?getType@ContentSpecNode@xercesc_2_5@@QBE?AW4NodeTypes@12@XZ 1203b320 f i XSFacet.obj
 0001:0003a330       ??0XSFacet@xercesc_2_5@@QAE@W4FACET@XSSimpleTypeDefinition@1@QBG_NQAVXSAnnotation@1@QAVXSModel@1@QAVMemoryManager@1@@Z 1203b330 f   XSFacet.obj
 0001:0003a370       ??_EXSFacet@xercesc_2_5@@UAEPAXI@Z 1203b370 f i XSFacet.obj
 0001:0003a3d0       ??1XSFacet@xercesc_2_5@@UAE@XZ 1203b3d0 f   XSFacet.obj
 0001:0003a3e0       ??_FIC_KeyRef@xercesc_2_5@@QAEXXZ 1203b3e0 f i XSIDCDefinition.obj
 0001:0003a3f0       ?getType@IC_KeyRef@xercesc_2_5@@UBEFXZ 1203b3f0 f i XSIDCDefinition.obj
 0001:0003a400       ??_FIC_Selector@xercesc_2_5@@QAEXXZ 1203b400 f i XSIDCDefinition.obj
 0001:0003a410       ??1SelectorMatcher@xercesc_2_5@@UAE@XZ 1203b410 f i XSIDCDefinition.obj
 0001:0003a420       ??_ESelectorMatcher@xercesc_2_5@@UAEPAXI@Z 1203b420 f i XSIDCDefinition.obj
 0001:0003a480       ??1XercesNodeTest@xercesc_2_5@@UAE@XZ 1203b480 f i XSIDCDefinition.obj
 0001:0003a4d0       ??_FXercesNodeTest@xercesc_2_5@@QAEXXZ 1203b4d0 f i XSIDCDefinition.obj
 0001:0003a4e0       ??_EXercesNodeTest@xercesc_2_5@@UAEPAXI@Z 1203b4e0 f i XSIDCDefinition.obj
 0001:0003a540       ??1XercesStep@xercesc_2_5@@UAE@XZ 1203b540 f i XSIDCDefinition.obj
 0001:0003a590       ??_FXercesStep@xercesc_2_5@@QAEXXZ 1203b590 f i XSIDCDefinition.obj
 0001:0003a5a0       ??_EXercesStep@xercesc_2_5@@UAEPAXI@Z 1203b5a0 f i XSIDCDefinition.obj
 0001:0003a600       ??1XercesLocationPath@xercesc_2_5@@UAE@XZ 1203b600 f i XSIDCDefinition.obj
 0001:0003a650       ??_FXercesLocationPath@xercesc_2_5@@QAEXXZ 1203b650 f i XSIDCDefinition.obj
 0001:0003a660       ??_EXercesLocationPath@xercesc_2_5@@UAEPAXI@Z 1203b660 f i XSIDCDefinition.obj
 0001:0003a6c0       ??_FXercesXPath@xercesc_2_5@@QAEXXZ 1203b6c0 f i XSIDCDefinition.obj
 0001:0003a6d0       ??_EXPathScanner@xercesc_2_5@@UAEPAXI@Z 1203b6d0 f i XSIDCDefinition.obj
 0001:0003a730       ??1XPathScannerForSchema@xercesc_2_5@@UAE@XZ 1203b730 f i XSIDCDefinition.obj
 0001:0003a730       ??1XPathScanner@xercesc_2_5@@UAE@XZ 1203b730 f i XSIDCDefinition.obj
 0001:0003a740       ??_EXPathScannerForSchema@xercesc_2_5@@UAEPAXI@Z 1203b740 f i XSIDCDefinition.obj
 0001:0003a7a0       ?getStepSize@XercesLocationPath@xercesc_2_5@@QBEIXZ 1203b7a0 f i XSIDCDefinition.obj
 0001:0003a7b0       ?addStep@XercesLocationPath@xercesc_2_5@@QAEXQAVXercesStep@2@@Z 1203b7b0 f i XSIDCDefinition.obj
 0001:0003a840       ?getStep@XercesLocationPath@xercesc_2_5@@QBEPAVXercesStep@2@I@Z 1203b840 f i XSIDCDefinition.obj
 0001:0003a890       ?addToken@XPathScanner@xercesc_2_5@@MAEXQAV?$ValueVectorOf@H@2@H@Z 1203b890 f i XSIDCDefinition.obj
 0001:0003a930       ??0XSIDCDefinition@xercesc_2_5@@QAE@QAVIdentityConstraint@1@QAV01@QAVXSAnnotation@1@QAV?$RefArrayVectorOf@G@1@QAVXSModel@1@QAVMemoryManager@1@@Z 1203b930 f   XSIDCDefinition.obj
 0001:0003aab0       ??_EXSIDCDefinition@xercesc_2_5@@UAEPAXI@Z 1203bab0 f i XSIDCDefinition.obj
 0001:0003ab10       ??1XSIDCDefinition@xercesc_2_5@@UAE@XZ 1203bb10 f   XSIDCDefinition.obj
 0001:0003ab80       ?getName@XSIDCDefinition@xercesc_2_5@@UAEPBGXZ 1203bb80 f   XSIDCDefinition.obj
 0001:0003ab90       ?getNamespace@XSNotationDeclaration@xercesc_2_5@@UAEPBGXZ 1203bb90 f   XSIDCDefinition.obj
 0001:0003ab90       ?getNamespace@XSIDCDefinition@xercesc_2_5@@UAEPBGXZ 1203bb90 f   XSIDCDefinition.obj
 0001:0003abb0       ?getCategory@XSIDCDefinition@xercesc_2_5@@QBE?AW4IC_CATEGORY@12@XZ 1203bbb0 f   XSIDCDefinition.obj
 0001:0003abe0       ?getSelectorStr@XSIDCDefinition@xercesc_2_5@@QAEPBGXZ 1203bbe0 f   XSIDCDefinition.obj
 0001:0003abf0       ??_FXercesGroupInfo@xercesc_2_5@@QAEXXZ 1203bbf0 f i XSModel.obj
 0001:0003ac00       ?elementCount@XercesGroupInfo@xercesc_2_5@@QBEIXZ 1203bc00 f i XSModel.obj
 0001:0003ac10       ?elementAt@XercesGroupInfo@xercesc_2_5@@QAEPAVSchemaElementDecl@2@I@Z 1203bc10 f i XSModel.obj
 0001:0003ac10       ?elementAt@XercesGroupInfo@xercesc_2_5@@QBEPBVSchemaElementDecl@2@I@Z 1203bc10 f i XSModel.obj
 0001:0003ac60       ?addElement@XercesGroupInfo@xercesc_2_5@@QAEXQAVSchemaElementDecl@2@@Z 1203bc60 f i XSModel.obj
 0001:0003ad00       ??_FXSObjectFactory@xercesc_2_5@@QAEXXZ 1203bd00 f i XSModel.obj
 0001:0003ad10       ?getObjectFromMap@XSObjectFactory@xercesc_2_5@@AAEPAVXSObject@2@PAX@Z 1203bd10 f i XSModel.obj
 0001:0003ad10       ?getGlobalValueStoreFor@ValueStoreCache@xercesc_2_5@@QAEPAVValueStore@2@QBVIdentityConstraint@2@@Z 1203bd10 f i XSModel.obj
 0001:0003ada0       ??0XSModel@xercesc_2_5@@QAE@PAVXMLGrammarPool@1@QAVMemoryManager@1@@Z 1203bda0 f   XSModel.obj
 0001:0003b5e0       ??0XSModel@xercesc_2_5@@QAE@PAV01@PAVGrammarResolver@1@QAVMemoryManager@1@@Z 1203c5e0 f   XSModel.obj
 0001:0003c180       ??1XSModel@xercesc_2_5@@QAE@XZ 1203d180 f   XSModel.obj
 0001:0003c340       ?addComponentToNamespace@XSModel@xercesc_2_5@@AAEXQAVXSNamespaceItem@2@QAVXSObject@2@H_N@Z 1203d340 f   XSModel.obj
 0001:0003c500       ?addS4SToXSModel@XSModel@xercesc_2_5@@AAEXQAVXSNamespaceItem@2@QAV?$RefHashTableOf@VDatatypeValidator@xercesc_2_5@@@2@@Z 1203d500 f   XSModel.obj
 0001:0003c7b0       ?addGrammarToXSModel@XSModel@xercesc_2_5@@AAEXPAVXSNamespaceItem@2@@Z 1203d7b0 f   XSModel.obj
 0001:0003ce10       ?getComponents@XSModel@xercesc_2_5@@QAEPAV?$XSNamedMap@VXSObject@xercesc_2_5@@@2@W4COMPONENT_TYPE@XSConstants@2@@Z 1203de10 f   XSModel.obj
 0001:0003ce20       ?getComponentsByNamespace@XSModel@xercesc_2_5@@QAEPAV?$XSNamedMap@VXSObject@xercesc_2_5@@@2@W4COMPONENT_TYPE@XSConstants@2@PBG@Z 1203de20 f   XSModel.obj
 0001:0003cf50       ?getElementDeclaration@XSModel@xercesc_2_5@@QAEPAVXSElementDeclaration@2@PBG0@Z 1203df50 f   XSModel.obj
 0001:0003d080       ?getAttributeDeclaration@XSModel@xercesc_2_5@@QAEPAVXSAttributeDeclaration@2@PBG0@Z 1203e080 f   XSModel.obj
 0001:0003d1b0       ?getTypeDefinition@XSModel@xercesc_2_5@@QAEPAVXSTypeDefinition@2@PBG0@Z 1203e1b0 f   XSModel.obj
 0001:0003d2e0       ?getAttributeGroup@XSModel@xercesc_2_5@@QAEPAVXSAttributeGroupDefinition@2@PBG0@Z 1203e2e0 f   XSModel.obj
 0001:0003d410       ?getModelGroupDefinition@XSModel@xercesc_2_5@@QAEPAVXSModelGroupDefinition@2@PBG0@Z 1203e410 f   XSModel.obj
 0001:0003d540       ?getNotationDeclaration@XSModel@xercesc_2_5@@QAEPAVXSNotationDeclaration@2@PBG0@Z 1203e540 f   XSModel.obj
 0001:0003d670       ?getXSObjectById@XSModel@xercesc_2_5@@QAEPAVXSObject@2@IW4COMPONENT_TYPE@XSConstants@2@@Z 1203e670 f   XSModel.obj
 0001:0003d710       ?getNamespaceItem@XSModel@xercesc_2_5@@QAEPAVXSNamespaceItem@2@QBG@Z 1203e710 f   XSModel.obj
 0001:0003d7c0       ?getXSObject@XSModel@xercesc_2_5@@QAEPAVXSObject@2@PAX@Z 1203e7c0 f   XSModel.obj
 0001:0003d860       ??1?$XMLEnumerator@VGrammar@xercesc_2_5@@@xercesc_2_5@@UAE@XZ 1203e860 f i XSModel.obj
 0001:0003d870       ??1?$XMLEnumerator@VDatatypeValidator@xercesc_2_5@@@xercesc_2_5@@UAE@XZ 1203e870 f i XSModel.obj
 0001:0003d880       ??1?$XMLEnumerator@VXMLAttDef@xercesc_2_5@@@xercesc_2_5@@UAE@XZ 1203e880 f i XSModel.obj
 0001:0003d890       ??1?$XMLEnumerator@VComplexTypeInfo@xercesc_2_5@@@xercesc_2_5@@UAE@XZ 1203e890 f i XSModel.obj
 0001:0003d8a0       ??_G?$XMLEnumerator@VGrammar@xercesc_2_5@@@xercesc_2_5@@UAEPAXI@Z 1203e8a0 f i XSModel.obj
 0001:0003d8a0       ??_E?$XMLEnumerator@VGrammar@xercesc_2_5@@@xercesc_2_5@@UAEPAXI@Z 1203e8a0 f i XSModel.obj
 0001:0003d8c0       ??_E?$XMLEnumerator@VDatatypeValidator@xercesc_2_5@@@xercesc_2_5@@UAEPAXI@Z 1203e8c0 f i XSModel.obj
 0001:0003d8c0       ??_G?$XMLEnumerator@VDatatypeValidator@xercesc_2_5@@@xercesc_2_5@@UAEPAXI@Z 1203e8c0 f i XSModel.obj
 0001:0003d8e0       ??_E?$XMLEnumerator@VXMLAttDef@xercesc_2_5@@@xercesc_2_5@@UAEPAXI@Z 1203e8e0 f i XSModel.obj
 0001:0003d8e0       ??_G?$XMLEnumerator@VXMLAttDef@xercesc_2_5@@@xercesc_2_5@@UAEPAXI@Z 1203e8e0 f i XSModel.obj
 0001:0003d900       ??_E?$XMLEnumerator@VComplexTypeInfo@xercesc_2_5@@@xercesc_2_5@@UAEPAXI@Z 1203e900 f i XSModel.obj
 0001:0003d900       ??_G?$XMLEnumerator@VComplexTypeInfo@xercesc_2_5@@@xercesc_2_5@@UAEPAXI@Z 1203e900 f i XSModel.obj
 0001:0003d920       ?put@?$RefHashTableOf@VXSObject@xercesc_2_5@@@xercesc_2_5@@QAEXPAXQAVXSObject@2@@Z 1203e920 f i XSModel.obj
 0001:0003db40       ?addElement@?$XSNamedMap@VXSObject@xercesc_2_5@@@xercesc_2_5@@QAEXQAVXSObject@2@PBG1@Z 1203eb40 f i XSModel.obj
 0001:0003dbf0       ?setElementAt@?$BaseRefVectorOf@VXSNamespaceItem@xercesc_2_5@@@xercesc_2_5@@UAEXQAVXSNamespaceItem@2@I@Z 1203ebf0 f i XSModel.obj
 0001:0003dc60       ?removeAllElements@?$BaseRefVectorOf@VXSNamespaceItem@xercesc_2_5@@@xercesc_2_5@@UAEXXZ 1203ec60 f i XSModel.obj
 0001:0003dcc0       ?removeElementAt@?$BaseRefVectorOf@VXSNamespaceItem@xercesc_2_5@@@xercesc_2_5@@UAEXI@Z 1203ecc0 f i XSModel.obj
 0001:0003dd80       ?removeLastElement@?$BaseRefVectorOf@VXSNamespaceItem@xercesc_2_5@@@xercesc_2_5@@UAEXXZ 1203ed80 f i XSModel.obj
 0001:0003ddb0       ?cleanup@?$BaseRefVectorOf@VXSNamespaceItem@xercesc_2_5@@@xercesc_2_5@@UAEXXZ 1203edb0 f i XSModel.obj
 0001:0003de00       ??1?$RefHashTableOfEnumerator@VGrammar@xercesc_2_5@@@xercesc_2_5@@UAE@XZ 1203ee00 f i XSModel.obj
 0001:0003ded0       ??1?$RefHashTableOfEnumerator@VDatatypeValidator@xercesc_2_5@@@xercesc_2_5@@UAE@XZ 1203eed0 f i XSModel.obj
 0001:0003dfa0       ??1?$RefHashTableOfEnumerator@VXMLAttDef@xercesc_2_5@@@xercesc_2_5@@UAE@XZ 1203efa0 f i XSModel.obj
 0001:0003e070       ??1?$RefHashTableOfEnumerator@VComplexTypeInfo@xercesc_2_5@@@xercesc_2_5@@UAE@XZ 1203f070 f i XSModel.obj
 0001:0003e140       ?Reset@?$RefHash2KeysTableOfEnumerator@VSchemaAttDef@xercesc_2_5@@@xercesc_2_5@@UAEXXZ 1203f140 f i XSModel.obj
 0001:0003e140       ?Reset@?$RefHashTableOfEnumerator@VComplexTypeInfo@xercesc_2_5@@@xercesc_2_5@@UAEXXZ 1203f140 f i XSModel.obj
 0001:0003e140       ?Reset@?$RefHashTableOfEnumerator@VXercesGroupInfo@xercesc_2_5@@@xercesc_2_5@@UAEXXZ 1203f140 f i XSModel.obj
 0001:0003e140       ?Reset@?$RefHashTableOfEnumerator@VDTDAttDef@xercesc_2_5@@@xercesc_2_5@@UAEXXZ 1203f140 f i XSModel.obj
 0001:0003e140       ?Reset@?$RefHashTableOfEnumerator@VGrammar@xercesc_2_5@@@xercesc_2_5@@UAEXXZ 1203f140 f i XSModel.obj
 0001:0003e140       ?Reset@?$RefHashTableOfEnumerator@VXMLAttDef@xercesc_2_5@@@xercesc_2_5@@UAEXXZ 1203f140 f i XSModel.obj
 0001:0003e140       ?Reset@?$RefHash2KeysTableOfEnumerator@V?$ValueVectorOf@PAVSchemaElementDecl@xercesc_2_5@@@xercesc_2_5@@@xercesc_2_5@@UAEXXZ 1203f140 f i XSModel.obj
 0001:0003e140       ?Reset@?$RefHashTableOfEnumerator@VKVStringPair@xercesc_2_5@@@xercesc_2_5@@UAEXXZ 1203f140 f i XSModel.obj
 0001:0003e140       ?Reset@?$RefHashTableOfEnumerator@VDatatypeValidator@xercesc_2_5@@@xercesc_2_5@@UAEXXZ 1203f140 f i XSModel.obj
 0001:0003e140       ?Reset@?$RefHashTableOfEnumerator@V?$KeyRefPair@XVDOMUserDataHandler@xercesc_2_5@@@xercesc_2_5@@@xercesc_2_5@@UAEXXZ 1203f140 f i XSModel.obj
 0001:0003e140       ?Reset@?$RefHashTableOfEnumerator@G@xercesc_2_5@@UAEXXZ 1203f140 f i XSModel.obj
 0001:0003e140       ?Reset@?$RefHashTableOfEnumerator@VXercesAttGroupInfo@xercesc_2_5@@@xercesc_2_5@@UAEXXZ 1203f140 f i XSModel.obj
 0001:0003e140       ?Reset@?$RefHashTableOfEnumerator@VXSAnnotation@xercesc_2_5@@@xercesc_2_5@@UAEXXZ 1203f140 f i XSModel.obj
 0001:0003e140       ?Reset@?$RefHashTableOfEnumerator@VXMLRefInfo@xercesc_2_5@@@xercesc_2_5@@UAEXXZ 1203f140 f i XSModel.obj
 0001:0003e140       ?Reset@?$RefHashTableOfEnumerator@VValueStore@xercesc_2_5@@@xercesc_2_5@@UAEXXZ 1203f140 f i XSModel.obj
 0001:0003e180       ??0?$RefHashTableOfEnumerator@VXercesAttGroupInfo@xercesc_2_5@@@xercesc_2_5@@QAE@QAV?$RefHashTableOf@VXercesAttGroupInfo@xercesc_2_5@@@1@_NQAVMemoryManager@1@@Z 1203f180 f i XSModel.obj
 0001:0003e250       ??1?$XMLEnumerator@VXercesAttGroupInfo@xercesc_2_5@@@xercesc_2_5@@UAE@XZ 1203f250 f i XSModel.obj
 0001:0003e260       ??_E?$XMLEnumerator@VXercesAttGroupInfo@xercesc_2_5@@@xercesc_2_5@@UAEPAXI@Z 1203f260 f i XSModel.obj
 0001:0003e260       ??_G?$XMLEnumerator@VXercesAttGroupInfo@xercesc_2_5@@@xercesc_2_5@@UAEPAXI@Z 1203f260 f i XSModel.obj
 0001:0003e280       ??1?$RefHashTableOfEnumerator@VXercesAttGroupInfo@xercesc_2_5@@@xercesc_2_5@@UAE@XZ 1203f280 f i XSModel.obj
 0001:0003e350       ??0?$RefHashTableOfEnumerator@VXercesGroupInfo@xercesc_2_5@@@xercesc_2_5@@QAE@QAV?$RefHashTableOf@VXercesGroupInfo@xercesc_2_5@@@1@_NQAVMemoryManager@1@@Z 1203f350 f i XSModel.obj
 0001:0003e420       ??1?$XMLEnumerator@VXercesGroupInfo@xercesc_2_5@@@xercesc_2_5@@UAE@XZ 1203f420 f i XSModel.obj
 0001:0003e430       ??_G?$XMLEnumerator@VXercesGroupInfo@xercesc_2_5@@@xercesc_2_5@@UAEPAXI@Z 1203f430 f i XSModel.obj
 0001:0003e430       ??_E?$XMLEnumerator@VXercesGroupInfo@xercesc_2_5@@@xercesc_2_5@@UAEPAXI@Z 1203f430 f i XSModel.obj
 0001:0003e450       ??1?$RefHashTableOfEnumerator@VXercesGroupInfo@xercesc_2_5@@@xercesc_2_5@@UAE@XZ 1203f450 f i XSModel.obj
 0001:0003e520       ??_GXSNamespaceItem@xercesc_2_5@@QAEPAXI@Z 1203f520 f i XSModel.obj
 0001:0003e540       ??_G?$RefVectorOf@VXSNamespaceItem@xercesc_2_5@@@xercesc_2_5@@UAEPAXI@Z 1203f540 f i XSModel.obj
 0001:0003e540       ??_E?$RefVectorOf@VXSNamespaceItem@xercesc_2_5@@@xercesc_2_5@@UAEPAXI@Z 1203f540 f i XSModel.obj
 0001:0003e560       ??1?$RefVectorOf@VXSNamespaceItem@xercesc_2_5@@@xercesc_2_5@@UAE@XZ 1203f560 f i XSModel.obj
 0001:0003e5f0       ??1?$BaseRefVectorOf@VXSNamespaceItem@xercesc_2_5@@@xercesc_2_5@@UAE@XZ 1203f5f0 f i XSModel.obj
 0001:0003e600       ??_G?$RefVectorOf@VXSElementDeclaration@xercesc_2_5@@@xercesc_2_5@@UAEPAXI@Z 1203f600 f i XSModel.obj
 0001:0003e600       ??_E?$RefVectorOf@VXSElementDeclaration@xercesc_2_5@@@xercesc_2_5@@UAEPAXI@Z 1203f600 f i XSModel.obj
 0001:0003e620       ??1?$RefVectorOf@VXSElementDeclaration@xercesc_2_5@@@xercesc_2_5@@UAE@XZ 1203f620 f i XSModel.obj
 0001:0003e6a0       ??1?$BaseRefVectorOf@VXSElementDeclaration@xercesc_2_5@@@xercesc_2_5@@UAE@XZ 1203f6a0 f i XSModel.obj
 0001:0003e6b0       ??_G?$RefVectorOf@VXSAttributeDeclaration@xercesc_2_5@@@xercesc_2_5@@UAEPAXI@Z 1203f6b0 f i XSModel.obj
 0001:0003e6b0       ??_E?$RefVectorOf@VXSAttributeDeclaration@xercesc_2_5@@@xercesc_2_5@@UAEPAXI@Z 1203f6b0 f i XSModel.obj
 0001:0003e6d0       ??1?$RefVectorOf@VXSAttributeDeclaration@xercesc_2_5@@@xercesc_2_5@@UAE@XZ 1203f6d0 f i XSModel.obj
 0001:0003e750       ??1?$BaseRefVectorOf@VXSAttributeDeclaration@xercesc_2_5@@@xercesc_2_5@@UAE@XZ 1203f750 f i XSModel.obj
 0001:0003e760       ??_G?$RefHashTableOfEnumerator@VGrammar@xercesc_2_5@@@xercesc_2_5@@UAEPAXI@Z 1203f760 f i XSModel.obj
 0001:0003e760       ??_E?$RefHashTableOfEnumerator@VGrammar@xercesc_2_5@@@xercesc_2_5@@UAEPAXI@Z 1203f760 f i XSModel.obj
 0001:0003e780       ??_G?$RefHashTableOfEnumerator@VDatatypeValidator@xercesc_2_5@@@xercesc_2_5@@UAEPAXI@Z 1203f780 f i XSModel.obj
 0001:0003e780       ??_E?$RefHashTableOfEnumerator@VDatatypeValidator@xercesc_2_5@@@xercesc_2_5@@UAEPAXI@Z 1203f780 f i XSModel.obj
 0001:0003e7a0       ??_E?$RefHashTableOfEnumerator@VXMLAttDef@xercesc_2_5@@@xercesc_2_5@@UAEPAXI@Z 1203f7a0 f i XSModel.obj
 0001:0003e7a0       ??_G?$RefHashTableOfEnumerator@VXMLAttDef@xercesc_2_5@@@xercesc_2_5@@UAEPAXI@Z 1203f7a0 f i XSModel.obj
 0001:0003e7c0       ??_E?$RefHashTableOfEnumerator@VComplexTypeInfo@xercesc_2_5@@@xercesc_2_5@@UAEPAXI@Z 1203f7c0 f i XSModel.obj
 0001:0003e7c0       ??_G?$RefHashTableOfEnumerator@VComplexTypeInfo@xercesc_2_5@@@xercesc_2_5@@UAEPAXI@Z 1203f7c0 f i XSModel.obj
 0001:0003e7e0       ??_E?$RefHashTableOfEnumerator@VXercesAttGroupInfo@xercesc_2_5@@@xercesc_2_5@@UAEPAXI@Z 1203f7e0 f i XSModel.obj
 0001:0003e7e0       ??_G?$RefHashTableOfEnumerator@VXercesAttGroupInfo@xercesc_2_5@@@xercesc_2_5@@UAEPAXI@Z 1203f7e0 f i XSModel.obj
 0001:0003e800       ??_E?$RefHashTableOfEnumerator@VXercesGroupInfo@xercesc_2_5@@@xercesc_2_5@@UAEPAXI@Z 1203f800 f i XSModel.obj
 0001:0003e800       ??_G?$RefHashTableOfEnumerator@VXercesGroupInfo@xercesc_2_5@@@xercesc_2_5@@UAEPAXI@Z 1203f800 f i XSModel.obj
 0001:0003e820       ??0?$BaseRefVectorOf@G@xercesc_2_5@@QAE@I_NQAVMemoryManager@1@@Z 1203f820 f i XSModel.obj
 0001:0003e880       ??0?$RefHash2KeysTableOf@VXSObject@xercesc_2_5@@@xercesc_2_5@@QAE@I_NQAVMemoryManager@1@@Z 1203f880 f i XSModel.obj
 0001:0003e980       ?put@?$RefHash2KeysTableOf@VXSObject@xercesc_2_5@@@xercesc_2_5@@QAEXPAXHQAVXSObject@2@@Z 1203f980 f i XSModel.obj
 0001:0003eaa0       ??0?$BaseRefVectorOf@VXSNamespaceItem@xercesc_2_5@@@xercesc_2_5@@QAE@I_NQAVMemoryManager@1@@Z 1203faa0 f i XSModel.obj
 0001:0003eb00       ??0?$BaseRefVectorOf@VXSAnnotation@xercesc_2_5@@@xercesc_2_5@@QAE@I_NQAVMemoryManager@1@@Z 1203fb00 f i XSModel.obj
 0001:0003eb60       ??0?$BaseRefVectorOf@VXSElementDeclaration@xercesc_2_5@@@xercesc_2_5@@QAE@I_NQAVMemoryManager@1@@Z 1203fb60 f i XSModel.obj
 0001:0003ebc0       ??0?$BaseRefVectorOf@VXSAttributeDeclaration@xercesc_2_5@@@xercesc_2_5@@QAE@I_NQAVMemoryManager@1@@Z 1203fbc0 f i XSModel.obj
 0001:0003ec20       ?findNext@?$RefHashTableOfEnumerator@VComplexTypeInfo@xercesc_2_5@@@xercesc_2_5@@AAEXXZ 1203fc20 f i XSModel.obj
 0001:0003ec20       ?findNext@?$RefHashTableOfEnumerator@VXMLRefInfo@xercesc_2_5@@@xercesc_2_5@@AAEXXZ 1203fc20 f i XSModel.obj
 0001:0003ec20       ?findNext@?$RefHashTableOfEnumerator@VDatatypeValidator@xercesc_2_5@@@xercesc_2_5@@AAEXXZ 1203fc20 f i XSModel.obj
 0001:0003ec20       ?findNext@?$RefHashTableOfEnumerator@VXercesGroupInfo@xercesc_2_5@@@xercesc_2_5@@AAEXXZ 1203fc20 f i XSModel.obj
 0001:0003ec20       ?findNext@?$RefHash2KeysTableOfEnumerator@VSchemaAttDef@xercesc_2_5@@@xercesc_2_5@@AAEXXZ 1203fc20 f i XSModel.obj
 0001:0003ec20       ?findNext@?$RefHashTableOfEnumerator@VXMLAttDef@xercesc_2_5@@@xercesc_2_5@@AAEXXZ 1203fc20 f i XSModel.obj
 0001:0003ec20       ?findNext@?$RefHash2KeysTableOfEnumerator@V?$ValueVectorOf@PAVSchemaElementDecl@xercesc_2_5@@@xercesc_2_5@@@xercesc_2_5@@AAEXXZ 1203fc20 f i XSModel.obj
 0001:0003ec20       ?findNext@?$RefHashTableOfEnumerator@G@xercesc_2_5@@AAEXXZ 1203fc20 f i XSModel.obj
 0001:0003ec20       ?findNext@?$RefHashTableOfEnumerator@VDTDAttDef@xercesc_2_5@@@xercesc_2_5@@AAEXXZ 1203fc20 f i XSModel.obj
 0001:0003ec20       ?findNext@?$RefHashTableOfEnumerator@VXSAnnotation@xercesc_2_5@@@xercesc_2_5@@AAEXXZ 1203fc20 f i XSModel.obj
 0001:0003ec20       ?findNext@?$RefHashTableOfEnumerator@VXercesAttGroupInfo@xercesc_2_5@@@xercesc_2_5@@AAEXXZ 1203fc20 f i XSModel.obj
 0001:0003ec20       ?findNext@?$RefHashTableOfEnumerator@VGrammar@xercesc_2_5@@@xercesc_2_5@@AAEXXZ 1203fc20 f i XSModel.obj
 0001:0003ec20       ?findNext@?$RefHashTableOfEnumerator@V?$KeyRefPair@XVDOMUserDataHandler@xercesc_2_5@@@xercesc_2_5@@@xercesc_2_5@@AAEXXZ 1203fc20 f i XSModel.obj
 0001:0003ec20       ?findNext@?$RefHashTableOfEnumerator@VKVStringPair@xercesc_2_5@@@xercesc_2_5@@AAEXXZ 1203fc20 f i XSModel.obj
 0001:0003ec20       ?findNext@?$RefHashTableOfEnumerator@VValueStore@xercesc_2_5@@@xercesc_2_5@@AAEXXZ 1203fc20 f i XSModel.obj
 0001:0003ec70       ??_G?$RefVectorOf@VXSObject@xercesc_2_5@@@xercesc_2_5@@UAEPAXI@Z 1203fc70 f i XSModel.obj
 0001:0003ec70       ??_E?$RefVectorOf@VXSObject@xercesc_2_5@@@xercesc_2_5@@UAEPAXI@Z 1203fc70 f i XSModel.obj
 0001:0003ec90       ??1?$RefVectorOf@VXSObject@xercesc_2_5@@@xercesc_2_5@@UAE@XZ 1203fc90 f i XSModel.obj
 0001:0003ed10       ??1?$BaseRefVectorOf@VXSObject@xercesc_2_5@@@xercesc_2_5@@UAE@XZ 1203fd10 f i XSModel.obj
 0001:0003ed20       ??0?$BaseRefVectorOf@VXSObject@xercesc_2_5@@@xercesc_2_5@@QAE@I_NQAVMemoryManager@1@@Z 1203fd20 f i XSModel.obj
 0001:0003ed80       ??0XSModelGroup@xercesc_2_5@@QAE@W4COMPOSITOR_TYPE@01@QAV?$RefVectorOf@VXSParticle@xercesc_2_5@@@1@QAVXSAnnotation@1@QAVXSModel@1@QAVMemoryManager@1@@Z 1203fd80 f   XSModelGroup.obj
 0001:0003edc0       ??_EXSModelGroup@xercesc_2_5@@UAEPAXI@Z 1203fdc0 f i XSModelGroup.obj
 0001:0003ee20       ??1XSModelGroup@xercesc_2_5@@UAE@XZ 1203fe20 f   XSModelGroup.obj
 0001:0003ee80       ??0XSModelGroupDefinition@xercesc_2_5@@QAE@QAVXercesGroupInfo@1@QAVXSParticle@1@QAVXSAnnotation@1@QAVXSModel@1@QAVMemoryManager@1@@Z 1203fe80 f   XSModelGroupDefinition.obj
 0001:0003eec0       ??_EXSModelGroupDefinition@xercesc_2_5@@UAEPAXI@Z 1203fec0 f i XSModelGroupDefinition.obj
 0001:0003ef20       ??1XSModelGroupDefinition@xercesc_2_5@@UAE@XZ 1203ff20 f   XSModelGroupDefinition.obj
 0001:0003ef80       ?getNamespace@XSModelGroupDefinition@xercesc_2_5@@UAEPBGXZ 1203ff80 f   XSModelGroupDefinition.obj
 0001:0003efa0       ?getModelGroup@XSModelGroupDefinition@xercesc_2_5@@QAEPAVXSModelGroup@2@XZ 1203ffa0 f   XSModelGroupDefinition.obj
 0001:0003efb0       ??0XSMultiValueFacet@xercesc_2_5@@QAE@W4FACET@XSSimpleTypeDefinition@1@PAV?$RefArrayVectorOf@G@1@_NQAVXSAnnotation@1@QAVXSModel@1@QAVMemoryManager@1@@Z 1203ffb0 f   XSMultiValueFacet.obj
 0001:0003f130       ??_EXSMultiValueFacet@xercesc_2_5@@UAEPAXI@Z 12040130 f i XSMultiValueFacet.obj
 0001:0003f190       ??1XSMultiValueFacet@xercesc_2_5@@UAE@XZ 12040190 f   XSMultiValueFacet.obj
 0001:0003f1f0       ??_FXMLSchemaDescriptionImpl@xercesc_2_5@@QAEXXZ 120401f0 f i XSNamespaceItem.obj
 0001:0003f200       ??0XSNamespaceItem@xercesc_2_5@@QAE@QAVXSModel@1@QAVSchemaGrammar@1@QAVMemoryManager@1@@Z 12040200 f   XSNamespaceItem.obj
 0001:0003f4e0       ??0XSNamespaceItem@xercesc_2_5@@QAE@QAVXSModel@1@QBGQAVMemoryManager@1@@Z 120404e0 f   XSNamespaceItem.obj
 0001:0003f7b0       ??1XSNamespaceItem@xercesc_2_5@@QAE@XZ 120407b0 f   XSNamespaceItem.obj
 0001:0003f950       ?getComponents@XSNamespaceItem@xercesc_2_5@@QAEPAV?$XSNamedMap@VXSObject@xercesc_2_5@@@2@W4COMPONENT_TYPE@XSConstants@2@@Z 12040950 f   XSNamespaceItem.obj
 0001:0003f960       ?getElementDeclaration@XSNamespaceItem@xercesc_2_5@@QAEPAVXSElementDeclaration@2@PBG@Z 12040960 f   XSNamespaceItem.obj
 0001:0003fa10       ?getAttributeDeclaration@XSNamespaceItem@xercesc_2_5@@QAEPAVXSAttributeDeclaration@2@PBG@Z 12040a10 f   XSNamespaceItem.obj
 0001:0003fac0       ?getTypeDefinition@XSNamespaceItem@xercesc_2_5@@QAEPAVXSTypeDefinition@2@PBG@Z 12040ac0 f   XSNamespaceItem.obj
 0001:0003fb70       ?getAttributeGroup@XSNamespaceItem@xercesc_2_5@@QAEPAVXSAttributeGroupDefinition@2@PBG@Z 12040b70 f   XSNamespaceItem.obj
 0001:0003fc20       ?getModelGroupDefinition@XSNamespaceItem@xercesc_2_5@@QAEPAVXSModelGroupDefinition@2@PBG@Z 12040c20 f   XSNamespaceItem.obj
 0001:0003fcd0       ?getNotationDeclaration@XSNamespaceItem@xercesc_2_5@@QAEPAVXSNotationDeclaration@2@PBG@Z 12040cd0 f   XSNamespaceItem.obj
 0001:0003fd80       ?getDocumentLocations@XSNamespaceItem@xercesc_2_5@@QAEPAV?$RefArrayVectorOf@G@2@XZ 12040d80 f   XSNamespaceItem.obj
 0001:0003fda0       ??0XSNotationDeclaration@xercesc_2_5@@QAE@QAVXMLNotationDecl@1@QAVXSAnnotation@1@QAVXSModel@1@QAVMemoryManager@1@@Z 12040da0 f   XSNotationDeclaration.obj
 0001:0003fdd0       ??_EXSNotationDeclaration@xercesc_2_5@@UAEPAXI@Z 12040dd0 f i XSNotationDeclaration.obj
 0001:0003fe30       ??1XSNotationDeclaration@xercesc_2_5@@UAE@XZ 12040e30 f   XSNotationDeclaration.obj
 0001:0003fe40       ?getSystemId@XSNotationDeclaration@xercesc_2_5@@QAEPBGXZ 12040e40 f   XSNotationDeclaration.obj
 0001:0003fe50       ?getPublicId@XSNotationDeclaration@xercesc_2_5@@QAEPBGXZ 12040e50 f   XSNotationDeclaration.obj
 0001:0003fe60       ??0XSObject@xercesc_2_5@@QAE@W4COMPONENT_TYPE@XSConstants@1@QAVXSModel@1@QAVMemoryManager@1@@Z 12040e60 f   XSObject.obj
 0001:0003fe80       ??_EXSObject@xercesc_2_5@@UAEPAXI@Z 12040e80 f i XSObject.obj
 0001:0003fee0       ??1XSObject@xercesc_2_5@@UAE@XZ 12040ee0 f   XSObject.obj
 0001:0003fef0       ??0XSParticle@xercesc_2_5@@QAE@W4TERM_TYPE@01@QAVXSModel@1@QAVXSObject@1@HHQAVMemoryManager@1@@Z 12040ef0 f   XSParticle.obj
 0001:0003ff30       ??_EXSParticle@xercesc_2_5@@UAEPAXI@Z 12040f30 f i XSParticle.obj
 0001:0003ff90       ??1XSParticle@xercesc_2_5@@UAE@XZ 12040f90 f   XSParticle.obj
 0001:00040000       ?getElementTerm@XSParticle@xercesc_2_5@@QAEPAVXSElementDeclaration@2@XZ 12041000 f   XSParticle.obj
 0001:00040010       ?getModelGroupTerm@XSParticle@xercesc_2_5@@QAEPAVXSModelGroup@2@XZ 12041010 f   XSParticle.obj
 0001:00040020       ?getWildcardTerm@XSParticle@xercesc_2_5@@QAEPAVXSWildcard@2@XZ 12041020 f   XSParticle.obj
 0001:00040030       ??0XSSimpleTypeDefinition@xercesc_2_5@@QAE@QAVDatatypeValidator@1@W4VARIETY@01@QAVXSTypeDefinition@1@QAV01@QAV?$RefVectorOf@VXSSimpleTypeDefinition@xercesc_2_5@@@1@PAVXSAnnotation@1@QAVXSModel@1@QAVMemoryManager@1@@Z 12041030 f   XSSimpleTypeDefinition.obj
 0001:00040200       ??_EXSSimpleTypeDefinition@xercesc_2_5@@UAEPAXI@Z 12041200 f i XSSimpleTypeDefinition.obj
 0001:00040260       ??1XSSimpleTypeDefinition@xercesc_2_5@@UAE@XZ 12041260 f   XSSimpleTypeDefinition.obj
 0001:000402f0       ?isDefinedFacet@XSSimpleTypeDefinition@xercesc_2_5@@QAE_NW4FACET@12@@Z 120412f0 f   XSSimpleTypeDefinition.obj
 0001:00040300       ?isFixedFacet@XSSimpleTypeDefinition@xercesc_2_5@@QAE_NW4FACET@12@@Z 12041300 f   XSSimpleTypeDefinition.obj
 0001:00040310       ?getLexicalFacetValue@XSSimpleTypeDefinition@xercesc_2_5@@QAEPBGW4FACET@12@@Z 12041310 f   XSSimpleTypeDefinition.obj
 0001:000403b0       ?getLexicalEnumeration@XSSimpleTypeDefinition@xercesc_2_5@@QAEPAV?$RefArrayVectorOf@G@2@XZ 120413b0 f   XSSimpleTypeDefinition.obj
 0001:000403c0       ?getOrdered@XSSimpleTypeDefinition@xercesc_2_5@@QBE?AW4ORDERING@12@XZ 120413c0 f   XSSimpleTypeDefinition.obj
 0001:000403d0       ?getFinite@XSSimpleTypeDefinition@xercesc_2_5@@QBE_NXZ 120413d0 f   XSSimpleTypeDefinition.obj
 0001:000403e0       ?getBounded@XSSimpleTypeDefinition@xercesc_2_5@@QBE_NXZ 120413e0 f   XSSimpleTypeDefinition.obj
 0001:000403f0       ?getNumeric@XSSimpleTypeDefinition@xercesc_2_5@@QBE_NXZ 120413f0 f   XSSimpleTypeDefinition.obj
 0001:00040400       ?getName@XSSimpleTypeDefinition@xercesc_2_5@@UAEPBGXZ 12041400 f   XSSimpleTypeDefinition.obj
 0001:00040410       ?getNamespace@XSSimpleTypeDefinition@xercesc_2_5@@UAEPBGXZ 12041410 f   XSSimpleTypeDefinition.obj
 0001:00040420       ?getAnonymous@XSSimpleTypeDefinition@xercesc_2_5@@UBE_NXZ 12041420 f   XSSimpleTypeDefinition.obj
 0001:00040430       ?derivedFromType@XSSimpleTypeDefinition@xercesc_2_5@@UAE_NQBVXSTypeDefinition@2@@Z 12041430 f   XSSimpleTypeDefinition.obj
 0001:00040470       ?setFacetInfo@XSSimpleTypeDefinition@xercesc_2_5@@AAEXHHQAV?$RefVectorOf@VXSFacet@xercesc_2_5@@@2@QAV?$RefVectorOf@VXSMultiValueFacet@xercesc_2_5@@@2@QAV?$RefArrayVectorOf@G@2@@Z 12041470 f   XSSimpleTypeDefinition.obj
 0001:000404a0       ??0XSTypeDefinition@xercesc_2_5@@QAE@W4TYPE_CATEGORY@01@QAV01@QAVXSModel@1@QAVMemoryManager@1@@Z 120414a0 f   XSTypeDefinition.obj
 0001:000404e0       ??_EXSTypeDefinition@xercesc_2_5@@UAEPAXI@Z 120414e0 f i XSTypeDefinition.obj
 0001:00040540       ??1XSTypeDefinition@xercesc_2_5@@UAE@XZ 12041540 f   XSTypeDefinition.obj
 0001:00040550       ?isFinal@XSTypeDefinition@xercesc_2_5@@QAE_NF@Z 12041550 f   XSTypeDefinition.obj
 0001:00040560       ?derivedFrom@XSTypeDefinition@xercesc_2_5@@QAE_NPBG0@Z 12041560 f   XSTypeDefinition.obj
 0001:000405a0       ??_FContentSpecNode@xercesc_2_5@@QAEXXZ 120415a0 f i XSWildcard.obj
 0001:000405b0       ??0ContentSpecNode@xercesc_2_5@@QAE@QAVMemoryManager@1@@Z 120415b0 f i XSWildcard.obj
 0001:000405f0       ??_EContentSpecNode@xercesc_2_5@@UAEPAXI@Z 120415f0 f i XSWildcard.obj
 0001:00040650       ??0ContentSpecNode@xercesc_2_5@@QAE@QAVQName@1@QAVMemoryManager@1@@Z 12041650 f i XSWildcard.obj
 0001:000406f0       ??0ContentSpecNode@xercesc_2_5@@QAE@QAVXMLElementDecl@1@QAVMemoryManager@1@@Z 120416f0 f i XSWildcard.obj
 0001:00040790       ??0ContentSpecNode@xercesc_2_5@@QAE@QAVQName@1@_NQAVMemoryManager@1@@Z 12041790 f i XSWildcard.obj
 0001:00040840       ??0ContentSpecNode@xercesc_2_5@@QAE@W4NodeTypes@01@QAV01@1_N2QAVMemoryManager@1@@Z 12041840 f i XSWildcard.obj
 0001:00040890       ??1ContentSpecNode@xercesc_2_5@@UAE@XZ 12041890 f i XSWildcard.obj
 0001:00040910       ?orphanFirst@ContentSpecNode@xercesc_2_5@@QAEPAV12@XZ 12041910 f i XSWildcard.obj
 0001:00040920       ?orphanSecond@ContentSpecNode@xercesc_2_5@@QAEPAV12@XZ 12041920 f i XSWildcard.obj
 0001:00040930       ?isSecondAdopted@ContentSpecNode@xercesc_2_5@@QBE_NXZ 12041930 f i XSWildcard.obj
 0001:00040940       ?setElement@ContentSpecNode@xercesc_2_5@@QAEXQAVQName@2@@Z 12041940 f i XSWildcard.obj
 0001:000409c0       ?setFirst@ContentSpecNode@xercesc_2_5@@QAEXQAV12@@Z 120419c0 f i XSWildcard.obj
 0001:00040a00       ?setSecond@ContentSpecNode@xercesc_2_5@@QAEXQAV12@@Z 12041a00 f i XSWildcard.obj
 0001:00040a40       ?setTypeDefinition@XSElementDeclaration@xercesc_2_5@@QAEXPAVXSTypeDefinition@2@@Z 12041a40 f i XSWildcard.obj
 0001:00040a40       ?setMinOccurs@ContentSpecNode@xercesc_2_5@@QAEXH@Z 12041a40 f i XSWildcard.obj
 0001:00040a40       ?setGroupInfoRegistry@SchemaGrammar@xercesc_2_5@@QAEXQAV?$RefHashTableOf@VXercesGroupInfo@xercesc_2_5@@@2@@Z 12041a40 f i XSWildcard.obj
 0001:00040a40       ?setURI@QName@xercesc_2_5@@QAEXI@Z 12041a40 f i XSWildcard.obj
 0001:00040a40       ?setDatatypeValidator@SchemaElementDecl@xercesc_2_5@@QAEXPAVDatatypeValidator@2@@Z 12041a40 f i XSWildcard.obj
 0001:00040a40       ?setContentType@ComplexTypeInfo@xercesc_2_5@@QAEXH@Z 12041a40 f i XSWildcard.obj
 0001:00040a50       ?setMaxOccurs@ContentSpecNode@xercesc_2_5@@QAEXH@Z 12041a50 f i XSWildcard.obj
 0001:00040a50       ?setAttGroupInfoRegistry@SchemaGrammar@xercesc_2_5@@QAEXQAV?$RefHashTableOf@VXercesAttGroupInfo@xercesc_2_5@@@2@@Z 12041a50 f i XSWildcard.obj
 0001:00040a50       ?setEnclosingCTDefinition@XSElementDeclaration@xercesc_2_5@@AAEXQAVXSComplexTypeDefinition@2@@Z 12041a50 f i XSWildcard.obj
 0001:00040a50       ?setCurrentNode@AbstractDOMParser@xercesc_2_5@@IAEXPAVDOMNode@2@@Z 12041a50 f i XSWildcard.obj
 0001:00040a50       ?setEnclosingCTDefinition@XSAttributeDeclaration@xercesc_2_5@@AAEXQAVXSComplexTypeDefinition@2@@Z 12041a50 f i XSWildcard.obj
 0001:00040a50       ?setModelType@DTDElementDecl@xercesc_2_5@@QAEXW4ModelTypes@12@@Z 12041a50 f i XSWildcard.obj
 0001:00040a50       ?setEnclosingScope@SchemaElementDecl@xercesc_2_5@@QAEXH@Z 12041a50 f i XSWildcard.obj
 0001:00040a50       ?setElemId@SchemaAttDef@xercesc_2_5@@QAEXI@Z 12041a50 f i XSWildcard.obj
 0001:00040a50       ?setElemId@DTDAttDef@xercesc_2_5@@QAEXI@Z 12041a50 f i XSWildcard.obj
 0001:00040a60       ?setAdoptSecond@ContentSpecNode@xercesc_2_5@@QAEX_N@Z 12041a60 f i XSWildcard.obj
 0001:00040a70       ?hasAllContent@ContentSpecNode@xercesc_2_5@@QAE_NXZ 12041a70 f i XSWildcard.obj
 0001:00040aa0       ??0XSWildcard@xercesc_2_5@@QAE@QAVSchemaAttDef@1@QAVXSAnnotation@1@QAVXSModel@1@QAVMemoryManager@1@@Z 12041aa0 f   XSWildcard.obj
 0001:00040d50       ??_EXSWildcard@xercesc_2_5@@UAEPAXI@Z 12041d50 f i XSWildcard.obj
 0001:00040db0       ??0XSWildcard@xercesc_2_5@@QAE@QBVContentSpecNode@1@QAVXSAnnotation@1@QAVXSModel@1@QAVMemoryManager@1@@Z 12041db0 f   XSWildcard.obj
 0001:000410d0       ??1XSWildcard@xercesc_2_5@@UAE@XZ 120420d0 f   XSWildcard.obj
 0001:00041130       ?buildNamespaceList@XSWildcard@xercesc_2_5@@AAEXQBVContentSpecNode@2@@Z 12042130 f   XSWildcard.obj
 0001:00041240       ??1BinOutputStream@xercesc_2_5@@UAE@XZ 12042240 f   BinOutputStream.obj
 0001:00041250       ??_EBinOutputStream@xercesc_2_5@@UAEPAXI@Z 12042250 f i BinOutputStream.obj
 0001:000412b0       ??0BinOutputStream@xercesc_2_5@@IAE@XZ 120422b0 f   BinOutputStream.obj
 0001:000412c0       ??1XMLFormatTarget@xercesc_2_5@@UAE@XZ 120422c0 f i LocalFileFormatTarget.obj
 0001:000412d0       ??0XMLFormatTarget@xercesc_2_5@@IAE@XZ 120422d0 f i LocalFileFormatTarget.obj
 0001:000412e0       ??_EXMLFormatTarget@xercesc_2_5@@UAEPAXI@Z 120422e0 f i LocalFileFormatTarget.obj
 0001:00041340       ??6XMLFormatter@xercesc_2_5@@QAEAAV01@W4UnRepFlags@01@@Z 12042340 f i LocalFileFormatTarget.obj
 0001:00041350       ??0LocalFileFormatTarget@xercesc_2_5@@QAE@QBGQAVMemoryManager@1@@Z 12042350 f   LocalFileFormatTarget.obj
 0001:00041420       ??_ELocalFileFormatTarget@xercesc_2_5@@UAEPAXI@Z 12042420 f i LocalFileFormatTarget.obj
 0001:00041480       ??0LocalFileFormatTarget@xercesc_2_5@@QAE@QBDQAVMemoryManager@1@@Z 12042480 f   LocalFileFormatTarget.obj
 0001:00041550       ??1LocalFileFormatTarget@xercesc_2_5@@UAE@XZ 12042550 f   LocalFileFormatTarget.obj
 0001:000415f0       ?writeChars@LocalFileFormatTarget@xercesc_2_5@@UAEXQBEIQAVXMLFormatter@2@@Z 120425f0 f   LocalFileFormatTarget.obj
 0001:000416d0       ?flushBuffer@LocalFileFormatTarget@xercesc_2_5@@AAEXXZ 120426d0 f   LocalFileFormatTarget.obj
 0001:000416d0       ?flush@LocalFileFormatTarget@xercesc_2_5@@UAEXXZ 120426d0 f   LocalFileFormatTarget.obj
 0001:00041720       ?insureCapacity@LocalFileFormatTarget@xercesc_2_5@@AAEXI@Z 12042720 f   LocalFileFormatTarget.obj
 0001:000417c0       ??0LocalFileInputSource@xercesc_2_5@@QAE@QBG0QAVMemoryManager@1@@Z 120427c0 f   LocalFileInputSource.obj
 0001:000418b0       ??_ELocalFileInputSource@xercesc_2_5@@UAEPAXI@Z 120428b0 f i LocalFileInputSource.obj
 0001:00041910       ??0LocalFileInputSource@xercesc_2_5@@QAE@QBGQAVMemoryManager@1@@Z 12042910 f   LocalFileInputSource.obj
 0001:00041a90       ??1LocalFileInputSource@xercesc_2_5@@UAE@XZ 12042a90 f   LocalFileInputSource.obj
 0001:00041aa0       ?makeStream@LocalFileInputSource@xercesc_2_5@@UBEPAVBinInputStream@2@XZ 12042aa0 f   LocalFileInputSource.obj
 0001:00041b30       ??_FMemBufFormatTarget@xercesc_2_5@@QAEXXZ 12042b30 f i MemBufFormatTarget.obj
 0001:00041b50       ??0MemBufFormatTarget@xercesc_2_5@@QAE@HQAVMemoryManager@1@@Z 12042b50 f   MemBufFormatTarget.obj
 0001:00041bc0       ??_EMemBufFormatTarget@xercesc_2_5@@UAEPAXI@Z 12042bc0 f i MemBufFormatTarget.obj
 0001:00041c20       ??1MemBufFormatTarget@xercesc_2_5@@UAE@XZ 12042c20 f   MemBufFormatTarget.obj
 0001:00041c70       ?writeChars@MemBufFormatTarget@xercesc_2_5@@UAEXQBEIQAVXMLFormatter@2@@Z 12042c70 f   MemBufFormatTarget.obj
 0001:00041d00       ?getRawBuffer@BinMemOutputStream@xercesc_2_5@@QBEPBEXZ 12042d00 f   MemBufFormatTarget.obj
 0001:00041d00       ?getRawBuffer@MemBufFormatTarget@xercesc_2_5@@QBEPBEXZ 12042d00 f   MemBufFormatTarget.obj
 0001:00041d30       ?reset@MemBufFormatTarget@xercesc_2_5@@QAEXXZ 12042d30 f   MemBufFormatTarget.obj
 0001:00041d60       ?insureCapacity@BinMemOutputStream@xercesc_2_5@@AAEXI@Z 12042d60 f   MemBufFormatTarget.obj
 0001:00041d60       ?insureCapacity@MemBufFormatTarget@xercesc_2_5@@AAEXI@Z 12042d60 f   MemBufFormatTarget.obj
 0001:00041dc0       ??0MemBufInputSource@xercesc_2_5@@QAE@QBEIQBG_NQAVMemoryManager@1@@Z 12042dc0 f   MemBufInputSource.obj
 0001:00041e00       ??_EMemBufInputSource@xercesc_2_5@@UAEPAXI@Z 12042e00 f i MemBufInputSource.obj
 0001:00041e60       ??0MemBufInputSource@xercesc_2_5@@QAE@QBEIQBD_NQAVMemoryManager@1@@Z 12042e60 f   MemBufInputSource.obj
 0001:00041ea0       ??1MemBufInputSource@xercesc_2_5@@UAE@XZ 12042ea0 f   MemBufInputSource.obj
 0001:00041f00       ?makeStream@MemBufInputSource@xercesc_2_5@@UBEPAVBinInputStream@2@XZ 12042f00 f   MemBufInputSource.obj
 0001:00041f80       ??_FStdInInputSource@xercesc_2_5@@QAEXXZ 12042f80 f i StdInInputSource.obj
 0001:00041f90       ??0StdInInputSource@xercesc_2_5@@QAE@QAVMemoryManager@1@@Z 12042f90 f i StdInInputSource.obj
 0001:00041fb0       ??_EStdInInputSource@xercesc_2_5@@UAEPAXI@Z 12042fb0 f i StdInInputSource.obj
 0001:00042010       ??1StdInInputSource@xercesc_2_5@@UAE@XZ 12043010 f i StdInInputSource.obj
 0001:00042020       ?makeStream@StdInInputSource@xercesc_2_5@@UBEPAVBinInputStream@2@XZ 12043020 f   StdInInputSource.obj
 0001:000420b0       ??0StdOutFormatTarget@xercesc_2_5@@QAE@XZ 120430b0 f   StdOutFormatTarget.obj
 0001:000420c0       ??_EStdOutFormatTarget@xercesc_2_5@@UAEPAXI@Z 120430c0 f i StdOutFormatTarget.obj
 0001:00042120       ??1StdOutFormatTarget@xercesc_2_5@@UAE@XZ 12043120 f   StdOutFormatTarget.obj
 0001:00042130       ?flush@StdOutFormatTarget@xercesc_2_5@@UAEXXZ 12043130 f   StdOutFormatTarget.obj
 0001:00042150       ?writeChars@StdOutFormatTarget@xercesc_2_5@@UAEXQBEIQAVXMLFormatter@2@@Z 12043150 f   StdOutFormatTarget.obj
 0001:00042180       ?urlSrc@URLInputSource@xercesc_2_5@@QBEABVXMLURL@2@XZ 12043180 f i URLInputSource.obj
 0001:00042190       ??0URLInputSource@xercesc_2_5@@QAE@ABVXMLURL@1@QAVMemoryManager@1@@Z 12043190 f   URLInputSource.obj
 0001:00042210       ??_EURLInputSource@xercesc_2_5@@UAEPAXI@Z 12043210 f i URLInputSource.obj
 0001:00042270       ??0URLInputSource@xercesc_2_5@@QAE@QBG0QAVMemoryManager@1@@Z 12043270 f   URLInputSource.obj
 0001:00042300       ??0URLInputSource@xercesc_2_5@@QAE@QBG00QAVMemoryManager@1@@Z 12043300 f   URLInputSource.obj
 0001:00042390       ??0URLInputSource@xercesc_2_5@@QAE@QBGQBDQAVMemoryManager@1@@Z 12043390 f   URLInputSource.obj
 0001:00042420       ??0URLInputSource@xercesc_2_5@@QAE@QBGQBD1QAVMemoryManager@1@@Z 12043420 f   URLInputSource.obj
 0001:000424b0       ??1URLInputSource@xercesc_2_5@@UAE@XZ 120434b0 f   URLInputSource.obj
 0001:00042510       ?makeStream@URLInputSource@xercesc_2_5@@UBEPAVBinInputStream@2@XZ 12043510 f   URLInputSource.obj
 0001:00042520       ??0DOMInputSource@xercesc_2_5@@IAE@XZ 12043520 f i Wrapper4DOMInputSource.obj
 0001:00042530       ??1DOMInputSource@xercesc_2_5@@UAE@XZ 12043530 f i Wrapper4DOMInputSource.obj
 0001:00042540       ??_EDOMInputSource@xercesc_2_5@@UAEPAXI@Z 12043540 f i Wrapper4DOMInputSource.obj
 0001:000425a0       ??0Wrapper4DOMInputSource@xercesc_2_5@@QAE@QAVDOMInputSource@1@_NQAVMemoryManager@1@@Z 120435a0 f   Wrapper4DOMInputSource.obj
 0001:00042640       ??_EWrapper4DOMInputSource@xercesc_2_5@@UAEPAXI@Z 12043640 f i Wrapper4DOMInputSource.obj
 0001:000426a0       ??1Wrapper4DOMInputSource@xercesc_2_5@@UAE@XZ 120436a0 f   Wrapper4DOMInputSource.obj
 0001:00042700       ?getIssueFatalErrorIfNotFound@Wrapper4DOMInputSource@xercesc_2_5@@UBE_NXZ 12043700 f   Wrapper4DOMInputSource.obj
 0001:00042710       ?getEncoding@Wrapper4DOMInputSource@xercesc_2_5@@UBEPBGXZ 12043710 f   Wrapper4DOMInputSource.obj
 0001:00042720       ?getSystemId@Wrapper4DOMInputSource@xercesc_2_5@@UBEPBGXZ 12043720 f   Wrapper4DOMInputSource.obj
 0001:00042730       ?getPublicId@Wrapper4DOMInputSource@xercesc_2_5@@UBEPBGXZ 12043730 f   Wrapper4DOMInputSource.obj
 0001:00042740       ?setIssueFatalErrorIfNotFound@Wrapper4DOMInputSource@xercesc_2_5@@UAEX_N@Z 12043740 f   Wrapper4DOMInputSource.obj
 0001:00042750       ?setEncoding@Wrapper4DOMInputSource@xercesc_2_5@@UAEXQBG@Z 12043750 f   Wrapper4DOMInputSource.obj
 0001:00042760       ?setPublicId@Wrapper4DOMInputSource@xercesc_2_5@@UAEXQBG@Z 12043760 f   Wrapper4DOMInputSource.obj
 0001:00042770       ?setSystemId@Wrapper4DOMInputSource@xercesc_2_5@@UAEXQBG@Z 12043770 f   Wrapper4DOMInputSource.obj
 0001:00042780       ?makeStream@Wrapper4DOMInputSource@xercesc_2_5@@UBEPAVBinInputStream@2@XZ 12043780 f   Wrapper4DOMInputSource.obj
 0001:00042790       ??0Wrapper4InputSource@xercesc_2_5@@QAE@QAVInputSource@1@_NQAVMemoryManager@1@@Z 12043790 f   Wrapper4InputSource.obj
 0001:00042820       ??_EWrapper4InputSource@xercesc_2_5@@UAEPAXI@Z 12043820 f i Wrapper4InputSource.obj
 0001:00042880       ??1Wrapper4InputSource@xercesc_2_5@@UAE@XZ 12043880 f   Wrapper4InputSource.obj
 0001:000428e0       ?getIssueFatalErrorIfNotFound@Wrapper4InputSource@xercesc_2_5@@UBE_NXZ 120438e0 f   Wrapper4InputSource.obj
 0001:000428f0       ?getSystemId@Wrapper4InputSource@xercesc_2_5@@UBEPBGXZ 120438f0 f   Wrapper4InputSource.obj
 0001:00042900       ?setIssueFatalErrorIfNotFound@Wrapper4InputSource@xercesc_2_5@@UAEX_N@Z 12043900 f   Wrapper4InputSource.obj
 0001:00042910       ?setEncoding@Wrapper4InputSource@xercesc_2_5@@UAEXQBG@Z 12043910 f   Wrapper4InputSource.obj
 0001:00042920       ?setPublicId@Wrapper4InputSource@xercesc_2_5@@UAEXQBG@Z 12043920 f   Wrapper4InputSource.obj
 0001:00042930       ?setSystemId@Wrapper4InputSource@xercesc_2_5@@UAEXQBG@Z 12043930 f   Wrapper4InputSource.obj
 0001:00042940       ?getAttTypeString@XMLAttDef@xercesc_2_5@@SAPBGW4AttTypes@12@QAVMemoryManager@2@@Z 12043940 f   XMLAttDef.obj
 0001:00042990       ?getDefAttTypeString@XMLAttDef@xercesc_2_5@@SAPBGW4DefAttTypes@12@QAVMemoryManager@2@@Z 12043990 f   XMLAttDef.obj
 0001:000429e0       ??1XMLAttDef@xercesc_2_5@@UAE@XZ 120439e0 f   XMLAttDef.obj
 0001:00042a50       ??_EXMLAttDef@xercesc_2_5@@UAEPAXI@Z 12043a50 f i XMLAttDef.obj
 0001:00042ab0       ??0XMLAttDef@xercesc_2_5@@IAE@W4AttTypes@01@W4DefAttTypes@01@QAVMemoryManager@1@@Z 12043ab0 f   XMLAttDef.obj
 0001:00042af0       ??0XMLAttDef@xercesc_2_5@@IAE@QBGW4AttTypes@01@W4DefAttTypes@01@0QAVMemoryManager@1@@Z 12043af0 f   XMLAttDef.obj
 0001:00042c30       ?cleanUp@XMLAttDef@xercesc_2_5@@AAEXXZ 12043c30 f   XMLAttDef.obj
 0001:00042c60       ?getProtoType@XMLAttDef@xercesc_2_5@@UBEPAVXProtoType@2@XZ 12043c60 f   XMLAttDef.obj
 0001:00042c70       ?serialize@XMLAttDef@xercesc_2_5@@UAEXAAVXSerializeEngine@2@@Z 12043c70 f   XMLAttDef.obj
 0001:00042d80       ?getProtoType@XMLAttDefList@xercesc_2_5@@UBEPAVXProtoType@2@XZ 12043d80 f   XMLAttDefList.obj
 0001:00042d90       ??0XMLAttr@xercesc_2_5@@QAE@QAVMemoryManager@1@@Z 12043d90 f   XMLAttr.obj
 0001:00042e10       ??0XMLAttr@xercesc_2_5@@QAE@IQBG00W4AttTypes@XMLAttDef@1@_NQAVMemoryManager@1@PAVDatatypeValidator@1@2@Z 12043e10 f   XMLAttr.obj
 0001:00042f40       ??0XMLAttr@xercesc_2_5@@QAE@IQBG0W4AttTypes@XMLAttDef@1@_NQAVMemoryManager@1@PAVDatatypeValidator@1@2@Z 12043f40 f   XMLAttr.obj
 0001:00043070       ?getQName@XMLAttr@xercesc_2_5@@QBEPBGXZ 12044070 f   XMLAttr.obj
 0001:00043080       ?setName@XMLAttr@xercesc_2_5@@QAEXIQBG0@Z 12044080 f   XMLAttr.obj
 0001:000430a0       ?setURIId@XMLAttr@xercesc_2_5@@QAEXI@Z 120440a0 f   XMLAttr.obj
 0001:000430b0       ?setValue@XMLAttr@xercesc_2_5@@QAEXQBG@Z 120440b0 f   XMLAttr.obj
 0001:00043130       ?cleanUp@XMLAttr@xercesc_2_5@@AAEXXZ 12044130 f   XMLAttr.obj
 0001:00043150       ?append@XMLBuffer@xercesc_2_5@@QAEXQBGI@Z 12044150 f   XMLBuffer.obj
 0001:00043220       ?set@XMLBuffer@xercesc_2_5@@QAEXQBGI@Z 12044220 f   XMLBuffer.obj
 0001:000432d0       ?expand@XMLBuffer@xercesc_2_5@@AAEXXZ 120442d0 f   XMLBuffer.obj
 0001:00043350       ?insureCapacity@XMLBuffer@xercesc_2_5@@AAEXI@Z 12044350 f   XMLBuffer.obj
 0001:000433b0       ??0XMLBufferMgr@xercesc_2_5@@QAE@QAVMemoryManager@1@@Z 120443b0 f   XMLBufferMgr.obj
 0001:00043400       ??1XMLBufferMgr@xercesc_2_5@@QAE@XZ 12044400 f   XMLBufferMgr.obj
 0001:00043450       ?bidOnBuffer@XMLBufferMgr@xercesc_2_5@@QAEAAVXMLBuffer@2@XZ 12044450 f   XMLBufferMgr.obj
 0001:00043580       ?releaseBuffer@XMLBufferMgr@xercesc_2_5@@QAEXAAVXMLBuffer@2@@Z 12044580 f   XMLBufferMgr.obj
 0001:000435e0       ??_FXMLDTDDescription@xercesc_2_5@@QAEXXZ 120445e0 f i XMLDTDDescription.obj
 0001:000435f0       ??1XMLDTDDescription@xercesc_2_5@@UAE@XZ 120445f0 f   XMLDTDDescription.obj
 0001:00043600       ??_EXMLDTDDescription@xercesc_2_5@@UAEPAXI@Z 12044600 f i XMLDTDDescription.obj
 0001:00043660       ??0XMLDTDDescription@xercesc_2_5@@IAE@QAVMemoryManager@1@@Z 12044660 f   XMLDTDDescription.obj
 0001:00043680       ?getProtoType@XMLDTDDescription@xercesc_2_5@@UBEPAVXProtoType@2@XZ 12044680 f   XMLDTDDescription.obj
 0001:00043690       ?serialize@XMLSchemaDescription@xercesc_2_5@@UAEXAAVXSerializeEngine@2@@Z 12044690 f   XMLDTDDescription.obj
 0001:00043690       ?serialize@XMLDTDDescription@xercesc_2_5@@UAEXAAVXSerializeEngine@2@@Z 12044690 f   XMLDTDDescription.obj
 0001:000436a0       ??1XMLElementDecl@xercesc_2_5@@UAE@XZ 120446a0 f   XMLElementDecl.obj
 0001:000436f0       ??_EXMLElementDecl@xercesc_2_5@@UAEPAXI@Z 120446f0 f i XMLElementDecl.obj
 0001:00043750       ?setElementName@XMLElementDecl@xercesc_2_5@@QAEXQBG0H@Z 12044750 f   XMLElementDecl.obj
 0001:000437f0       ?setElementName@XMLElementDecl@xercesc_2_5@@QAEXQBGH@Z 120447f0 f   XMLElementDecl.obj
 0001:00043890       ?setElementName@XMLElementDecl@xercesc_2_5@@QAEXQBVQName@2@@Z 12044890 f   XMLElementDecl.obj
 0001:00043920       ??0XMLElementDecl@xercesc_2_5@@IAE@QAVMemoryManager@1@@Z 12044920 f   XMLElementDecl.obj
 0001:00043950       ?getProtoType@XMLElementDecl@xercesc_2_5@@UBEPAVXProtoType@2@XZ 12044950 f   XMLElementDecl.obj
 0001:00043960       ?serialize@XMLElementDecl@xercesc_2_5@@UAEXAAVXSerializeEngine@2@@Z 12044960 f   XMLElementDecl.obj
 0001:000439e0       ?storeElementDecl@XMLElementDecl@xercesc_2_5@@SAXAAVXSerializeEngine@2@QAV12@@Z 120449e0 f   XMLElementDecl.obj
 0001:00043a20       ?loadElementDecl@XMLElementDecl@xercesc_2_5@@SAPAV12@AAVXSerializeEngine@2@@Z 12044a20 f   XMLElementDecl.obj
 0001:00043a60       ??0XMLEntityDecl@xercesc_2_5@@QAE@QAVMemoryManager@1@@Z 12044a60 f   XMLEntityDecl.obj
 0001:00043a90       ??_EXMLEntityDecl@xercesc_2_5@@UAEPAXI@Z 12044a90 f i XMLEntityDecl.obj
 0001:00043af0       ??0XMLEntityDecl@xercesc_2_5@@QAE@QBGQAVMemoryManager@1@@Z 12044af0 f   XMLEntityDecl.obj
 0001:00043bb0       ??0XMLEntityDecl@xercesc_2_5@@QAE@QBG0QAVMemoryManager@1@@Z 12044bb0 f   XMLEntityDecl.obj
 0001:00043d30       ??0XMLEntityDecl@xercesc_2_5@@QAE@QBGGQAVMemoryManager@1@@Z 12044d30 f   XMLEntityDecl.obj
 0001:00043ea0       ??1XMLEntityDecl@xercesc_2_5@@UAE@XZ 12044ea0 f   XMLEntityDecl.obj
 0001:00043f30       ?setName@XMLEntityDecl@xercesc_2_5@@QAEXQBG@Z 12044f30 f   XMLEntityDecl.obj
 0001:00043fa0       ?cleanUp@XMLEntityDecl@xercesc_2_5@@AAEXXZ 12044fa0 f   XMLEntityDecl.obj
 0001:00043ff0       ?getProtoType@XMLEntityDecl@xercesc_2_5@@UBEPAVXProtoType@2@XZ 12044ff0 f   XMLEntityDecl.obj
 0001:00044000       ?serialize@XMLEntityDecl@xercesc_2_5@@UAEXAAVXSerializeEngine@2@@Z 12045000 f   XMLEntityDecl.obj
 0001:00044130       ?inEscapeList@XMLFormatter@xercesc_2_5@@AAE_NW4EscapeFlags@12@G@Z 12045130 f   XMLFormatter.obj
 0001:00044190       ??0XMLFormatter@xercesc_2_5@@QAE@QBD0QAVXMLFormatTarget@1@W4EscapeFlags@01@W4UnRepFlags@01@QAVMemoryManager@1@@Z 12045190 f   XMLFormatter.obj
 0001:00044350       ??0XMLFormatter@xercesc_2_5@@QAE@QBG0QAVXMLFormatTarget@1@W4EscapeFlags@01@W4UnRepFlags@01@QAVMemoryManager@1@@Z 12045350 f   XMLFormatter.obj
 0001:000444d0       ??0XMLFormatter@xercesc_2_5@@QAE@QBDQAVXMLFormatTarget@1@W4EscapeFlags@01@W4UnRepFlags@01@QAVMemoryManager@1@@Z 120454d0 f   XMLFormatter.obj
 0001:000445d0       ??0XMLFormatter@xercesc_2_5@@QAE@QBGQAVXMLFormatTarget@1@W4EscapeFlags@01@W4UnRepFlags@01@QAVMemoryManager@1@@Z 120455d0 f   XMLFormatter.obj
 0001:000446f0       ??1XMLFormatter@xercesc_2_5@@QAE@XZ 120456f0 f   XMLFormatter.obj
 0001:00044770       ?formatBuf@XMLFormatter@xercesc_2_5@@QAEXQBGIW4EscapeFlags@12@W4UnRepFlags@12@@Z 12045770 f   XMLFormatter.obj
 0001:00044a00       ?handleUnEscapedChars@XMLFormatter@xercesc_2_5@@AAEIPBGIW4UnRepFlags@12@@Z 12045a00 f   XMLFormatter.obj
 0001:00044a90       ??6XMLFormatter@xercesc_2_5@@QAEAAV01@QBG@Z 12045a90 f   XMLFormatter.obj
 0001:00044ae0       ??6XMLFormatter@xercesc_2_5@@QAEAAV01@G@Z 12045ae0 f   XMLFormatter.obj
 0001:00044b20       ?writeBOM@XMLFormatter@xercesc_2_5@@QAEXQBEI@Z 12045b20 f   XMLFormatter.obj
 0001:00044b40       ?writeCharRef@XMLFormatter@xercesc_2_5@@AAEXABG@Z 12045b40 f   XMLFormatter.obj
 0001:00044be0       ?writeCharRef@XMLFormatter@xercesc_2_5@@AAEXK@Z 12045be0 f   XMLFormatter.obj
 0001:00044c70       ?getCharRef@XMLFormatter@xercesc_2_5@@AAEPBEAAIAAPAEPBG@Z 12045c70 f   XMLFormatter.obj
 0001:00044d20       ?specialFormat@XMLFormatter@xercesc_2_5@@AAEXQBGIW4EscapeFlags@12@@Z 12045d20 f   XMLFormatter.obj
 0001:00044ef0       ??_EXMLGrammarDescription@xercesc_2_5@@UAEPAXI@Z 12045ef0 f i XMLGrammarDescription.obj
 0001:00044f50       ??0XMLGrammarDescription@xercesc_2_5@@IAE@QAVMemoryManager@1@@Z 12045f50 f   XMLGrammarDescription.obj
 0001:00044f70       ?getProtoType@XMLGrammarDescription@xercesc_2_5@@UBEPAVXProtoType@2@XZ 12045f70 f   XMLGrammarDescription.obj
 0001:00044f80       ??0XMLNotationDecl@xercesc_2_5@@QAE@QAVMemoryManager@1@@Z 12045f80 f   XMLNotationDecl.obj
 0001:00044fb0       ??_EXMLNotationDecl@xercesc_2_5@@UAEPAXI@Z 12045fb0 f i XMLNotationDecl.obj
 0001:00045010       ??0XMLNotationDecl@xercesc_2_5@@QAE@QBG000QAVMemoryManager@1@@Z 12046010 f   XMLNotationDecl.obj
 0001:000451d0       ??1XMLNotationDecl@xercesc_2_5@@UAE@XZ 120461d0 f   XMLNotationDecl.obj
 0001:00045250       ?setName@XMLNotationDecl@xercesc_2_5@@QAEXQBG@Z 12046250 f   XMLNotationDecl.obj
 0001:000452c0       ?cleanUp@XMLNotationDecl@xercesc_2_5@@AAEXXZ 120462c0 f   XMLNotationDecl.obj
 0001:00045300       ?createObject@XMLNotationDecl@xercesc_2_5@@SAPAVXSerializable@2@PAVMemoryManager@2@@Z 12046300 f   XMLNotationDecl.obj
 0001:00045340       ?getProtoType@XMLNotationDecl@xercesc_2_5@@UBEPAVXProtoType@2@XZ 12046340 f   XMLNotationDecl.obj
 0001:00045350       ?serialize@XMLNotationDecl@xercesc_2_5@@UAEXAAVXSerializeEngine@2@@Z 12046350 f   XMLNotationDecl.obj
 0001:00045420       ?basicEncodingProbe@XMLRecognizer@xercesc_2_5@@SA?AW4Encodings@12@QBEI@Z 12046420 f   XMLRecognizer.obj
 0001:00045590       ?encodingForName@XMLRecognizer@xercesc_2_5@@SA?AW4Encodings@12@QBG@Z 12046590 f   XMLRecognizer.obj
 0001:00045710       ?nameForEncoding@XMLRecognizer@xercesc_2_5@@SAPBGW4Encodings@12@QAVMemoryManager@2@@Z 12046710 f   XMLRecognizer.obj
 0001:00045750       ?createObject@XMLRefInfo@xercesc_2_5@@SAPAVXSerializable@2@PAVMemoryManager@2@@Z 12046750 f   XMLRefInfo.obj
 0001:00045780       ?getProtoType@XMLRefInfo@xercesc_2_5@@UBEPAVXProtoType@2@XZ 12046780 f   XMLRefInfo.obj
 0001:00045790       ?serialize@XMLRefInfo@xercesc_2_5@@UAEXAAVXSerializeEngine@2@@Z 12046790 f   XMLRefInfo.obj
 0001:00045800       ??0XMLRefInfo@xercesc_2_5@@QAE@QAVMemoryManager@1@@Z 12046800 f   XMLRefInfo.obj
 0001:00045820       ??1XMLSchemaDescription@xercesc_2_5@@UAE@XZ 12046820 f   XMLSchemaDescription.obj
 0001:00045830       ??_EXMLSchemaDescription@xercesc_2_5@@UAEPAXI@Z 12046830 f i XMLSchemaDescription.obj
 0001:00045890       ??0XMLSchemaDescription@xercesc_2_5@@IAE@QAVMemoryManager@1@@Z 12046890 f   XMLSchemaDescription.obj
 0001:000458b0       ?getProtoType@XMLSchemaDescription@xercesc_2_5@@UBEPAVXProtoType@2@XZ 120468b0 f   XMLSchemaDescription.obj
 0001:00045900       ?emitError@XMLValidator@xercesc_2_5@@QAEXW4Codes@XMLValid@2@@Z 12046900 f   XMLValidator.obj
 0001:00045ba0       ?emitError@XMLValidator@xercesc_2_5@@QAEXW4Codes@XMLValid@2@QBG111@Z 12046ba0 f   XMLValidator.obj
 0001:00045cd0       ?emitError@XMLValidator@xercesc_2_5@@QAEXW4Codes@XMLValid@2@QBD111@Z 12046cd0 f   XMLValidator.obj
 0001:00045e00       ??0XMLValidator@xercesc_2_5@@IAE@QAVXMLErrorReporter@1@@Z 12046e00 f   XMLValidator.obj
 0001:00045e20       ?reinitMsgMutex@XMLValidator@xercesc_2_5@@SAXXZ 12046e20 f   XMLValidator.obj
 0001:00045e50       ?reinitMsgLoader@XMLValidator@xercesc_2_5@@SAXXZ 12046e50 f   XMLValidator.obj
 0001:00045e70       ??1BinFileOutputStream@xercesc_2_5@@UAE@XZ 12046e70 f   BinFileOutputStream.obj
 0001:00045ed0       ??_EBinFileOutputStream@xercesc_2_5@@UAEPAXI@Z 12046ed0 f i BinFileOutputStream.obj
 0001:00045f30       ??0BinFileOutputStream@xercesc_2_5@@QAE@QBGQAVMemoryManager@1@@Z 12046f30 f   BinFileOutputStream.obj
 0001:00045f90       ??0BinFileOutputStream@xercesc_2_5@@QAE@QBDQAVMemoryManager@1@@Z 12046f90 f   BinFileOutputStream.obj
 0001:00046030       ?getSize@BinFileOutputStream@xercesc_2_5@@QBEIXZ 12047030 f   BinFileOutputStream.obj
 0001:00046030       ?getSize@BinFileInputStream@xercesc_2_5@@QBEIXZ 12047030 f   BinFileOutputStream.obj
 0001:00046050       ?reset@BinFileOutputStream@xercesc_2_5@@QAEXXZ 12047050 f   BinFileOutputStream.obj
 0001:00046050       ?reset@BinFileInputStream@xercesc_2_5@@QAEXXZ 12047050 f   BinFileOutputStream.obj
 0001:00046070       ?writeBytes@BinFileOutputStream@xercesc_2_5@@UAEXQBEI@Z 12047070 f   BinFileOutputStream.obj
 0001:00046090       ??_FBinMemOutputStream@xercesc_2_5@@QAEXXZ 12047090 f i BinMemOutputStream.obj
 0001:000460b0       ??0BinMemOutputStream@xercesc_2_5@@QAE@HQAVMemoryManager@1@@Z 120470b0 f   BinMemOutputStream.obj
 0001:00046120       ??_EBinMemOutputStream@xercesc_2_5@@UAEPAXI@Z 12047120 f i BinMemOutputStream.obj
 0001:00046180       ??1BinMemOutputStream@xercesc_2_5@@UAE@XZ 12047180 f   BinMemOutputStream.obj
 0001:000461e0       ?writeBytes@BinMemOutputStream@xercesc_2_5@@UAEXQBEI@Z 120471e0 f   BinMemOutputStream.obj
 0001:00046270       ?reset@BinMemOutputStream@xercesc_2_5@@QAEXXZ 12047270 f   BinMemOutputStream.obj
 0001:00046290       ?getName@DGXMLScanner@xercesc_2_5@@UBEPBGXZ 12047290 f i DGXMLScanner.obj
 0001:000462a0       ??_FDTDGrammar@xercesc_2_5@@QAEXXZ 120472a0 f i DGXMLScanner.obj
 0001:000462b0       ?getElemEnumerator@DTDGrammar@xercesc_2_5@@QBE?AV?$NameIdPoolEnumerator@VDTDElementDecl@xercesc_2_5@@@2@XZ 120472b0 f i DGXMLScanner.obj
 0001:000462f0       ?getEntityEnumerator@DTDGrammar@xercesc_2_5@@QBE?AV?$NameIdPoolEnumerator@VDTDEntityDecl@xercesc_2_5@@@2@XZ 120472f0 f i DGXMLScanner.obj
 0001:00046330       ?getNotationEnumerator@DTDGrammar@xercesc_2_5@@QBE?AV?$NameIdPoolEnumerator@VXMLNotationDecl@xercesc_2_5@@@2@XZ 12047330 f i DGXMLScanner.obj
 0001:00046370       ?getEntityDecl@DTDGrammar@xercesc_2_5@@QBEPBVDTDEntityDecl@2@QBG@Z 12047370 f i DGXMLScanner.obj
 0001:00046370       ?getEntityDecl@DTDGrammar@xercesc_2_5@@QAEPAVDTDEntityDecl@2@QBG@Z 12047370 f i DGXMLScanner.obj
 0001:000464e0       ?putEntityDecl@DTDGrammar@xercesc_2_5@@QBEIQAVDTDEntityDecl@2@@Z 120474e0 f i DGXMLScanner.obj
 0001:000464f0       ?getTargetNamespace@DTDGrammar@xercesc_2_5@@UBEPBGXZ 120474f0 f i DGXMLScanner.obj
 0001:00046500       ?getElemId@DTDGrammar@xercesc_2_5@@UBEIIQBG0I@Z 12047500 f i DGXMLScanner.obj
 0001:000465d0       ?getElemDecl@DTDGrammar@xercesc_2_5@@UAEPAVXMLElementDecl@2@IQBG0I@Z 120475d0 f i DGXMLScanner.obj
 0001:000465d0       ?getElemDecl@DTDGrammar@xercesc_2_5@@UBEPBVXMLElementDecl@2@IQBG0I@Z 120475d0 f i DGXMLScanner.obj
 0001:00046750       ?getElemDecl@DTDGrammar@xercesc_2_5@@UAEPAVXMLElementDecl@2@I@Z 12047750 f i DGXMLScanner.obj
 0001:00046750       ?getElemDecl@DTDGrammar@xercesc_2_5@@UBEPBVXMLElementDecl@2@I@Z 12047750 f i DGXMLScanner.obj
 0001:000467a0       ?putElemDecl@DTDGrammar@xercesc_2_5@@UAEIQAVXMLElementDecl@2@_N@Z 120477a0 f i DGXMLScanner.obj
 0001:00046a10       ?putNotationDecl@SchemaGrammar@xercesc_2_5@@UBEIQAVXMLNotationDecl@2@@Z 12047a10 f i DGXMLScanner.obj
 0001:00046a10       ?putNotationDecl@DTDGrammar@xercesc_2_5@@UBEIQAVXMLNotationDecl@2@@Z 12047a10 f i DGXMLScanner.obj
 0001:00046a20       ?isFirstAdopted@ContentSpecNode@xercesc_2_5@@QBE_NXZ 12047a20 f i DGXMLScanner.obj
 0001:00046a20       ?getValidated@DTDGrammar@xercesc_2_5@@UBE_NXZ 12047a20 f i DGXMLScanner.obj
 0001:00046a20       ?getThrowEOE@ReaderMgr@xercesc_2_5@@QBE_NXZ 12047a20 f i DGXMLScanner.obj
 0001:00046a30       ?setSchemaValidated@XMLAttr@xercesc_2_5@@QAEX_N@Z 12047a30 f i DGXMLScanner.obj
 0001:00046a30       ?setAdoptFirst@ContentSpecNode@xercesc_2_5@@QAEX_N@Z 12047a30 f i DGXMLScanner.obj
 0001:00046a30       ?setThrowEOE@ReaderMgr@xercesc_2_5@@QAEX_N@Z 12047a30 f i DGXMLScanner.obj
 0001:00046a30       ?setValidated@DTDGrammar@xercesc_2_5@@UAEX_N@Z 12047a30 f i DGXMLScanner.obj
 0001:00046a40       ?isReadingExternalEntity@DTDScanner@xercesc_2_5@@AAE_NXZ 12047a40 f i DGXMLScanner.obj
 0001:00046a60       ??_FDTDValidator@xercesc_2_5@@QAEXXZ 12047a60 f i DGXMLScanner.obj
 0001:00046a70       ??0XMLResourceIdentifier@xercesc_2_5@@QAE@W4ResourceIdentifierType@01@QBG111@Z 12047a70 f i DGXMLScanner.obj
 0001:00046aa0       ??0DGXMLScanner@xercesc_2_5@@QAE@QAVXMLValidator@1@QAVGrammarResolver@1@QAVMemoryManager@1@@Z 12047aa0 f   DGXMLScanner.obj
 0001:00046cd0       ??_EDGXMLScanner@xercesc_2_5@@UAEPAXI@Z 12047cd0 f i DGXMLScanner.obj
 0001:00046d30       ??0DGXMLScanner@xercesc_2_5@@QAE@QAVXMLDocumentHandler@1@QAVDocTypeHandler@1@QAVXMLEntityHandler@1@QAVXMLErrorReporter@1@QAVXMLValidator@1@QAVGrammarResolver@1@QAVMemoryManager@1@@Z 12047d30 f   DGXMLScanner.obj
 0001:00046f70       ??1DGXMLScanner@xercesc_2_5@@UAE@XZ 12047f70 f   DGXMLScanner.obj
 0001:00047130       ?getEntityDeclPool@DGXMLScanner@xercesc_2_5@@UAEPAV?$NameIdPool@VDTDEntityDecl@xercesc_2_5@@@2@XZ 12048130 f   DGXMLScanner.obj
 0001:00047130       ?getEntityDeclPool@DGXMLScanner@xercesc_2_5@@UBEPBV?$NameIdPool@VDTDEntityDecl@xercesc_2_5@@@2@XZ 12048130 f   DGXMLScanner.obj
 0001:00047140       ?scanDocument@DGXMLScanner@xercesc_2_5@@UAEXABVInputSource@2@@Z 12048140 f   DGXMLScanner.obj
 0001:00047310       ?scanNext@DGXMLScanner@xercesc_2_5@@UAE_NAAVXMLPScanToken@2@@Z 12048310 f   DGXMLScanner.obj
 0001:00047660       ?scanContent@DGXMLScanner@xercesc_2_5@@AAE_NXZ 12048660 f   DGXMLScanner.obj
 0001:00047800       ?scanEndTag@DGXMLScanner@xercesc_2_5@@AAEXAA_N@Z 12048800 f   DGXMLScanner.obj
 0001:00047af0       ?scanDocTypeDecl@DGXMLScanner@xercesc_2_5@@EAEXXZ 12048af0 f   DGXMLScanner.obj
 0001:000484e0       ??1XMLBufBid@xercesc_2_5@@QAE@XZ 120494e0 f i DGXMLScanner.obj
 0001:000484f0       ?scanStartTag@DGXMLScanner@xercesc_2_5@@AAE_NAA_N@Z 120494f0 f   DGXMLScanner.obj
 0001:00049320       ?loadGrammar@DGXMLScanner@xercesc_2_5@@UAEPAVGrammar@2@ABVInputSource@2@F_N@Z 1204a320 f   DGXMLScanner.obj
 0001:000494b0       ?loadDTDGrammar@DGXMLScanner@xercesc_2_5@@AAEPAVGrammar@2@ABVInputSource@2@_N@Z 1204a4b0 f   DGXMLScanner.obj
 0001:00049950       ?commonInit@DGXMLScanner@xercesc_2_5@@AAEXXZ 1204a950 f   DGXMLScanner.obj
 0001:00049c10       ?cleanUp@DGXMLScanner@xercesc_2_5@@AAEXXZ 1204ac10 f   DGXMLScanner.obj
 0001:00049de0       ?buildAttList@DGXMLScanner@xercesc_2_5@@AAEIIPAVXMLElementDecl@2@AAV?$RefVectorOf@VXMLAttr@xercesc_2_5@@@2@@Z 1204ade0 f   DGXMLScanner.obj
 0001:0004a300       ?scanReset@DGXMLScanner@xercesc_2_5@@EAEXABVInputSource@2@@Z 1204b300 f   DGXMLScanner.obj
 0001:0004a640       ?sendCharData@DGXMLScanner@xercesc_2_5@@EAEXAAVXMLBuffer@2@@Z 1204b640 f   DGXMLScanner.obj
 0001:0004a730       ?updateNSMap@DGXMLScanner@xercesc_2_5@@AAEXQBG00@Z 1204b730 f   DGXMLScanner.obj
 0001:0004a9a0       ?scanAttrListforNameSpaces@DGXMLScanner@xercesc_2_5@@AAEXPAV?$RefVectorOf@VXMLAttr@xercesc_2_5@@@2@HPAVXMLElementDecl@2@@Z 1204b9a0 f   DGXMLScanner.obj
 0001:0004ac10       ?resolveSystemId@DGXMLScanner@xercesc_2_5@@AAEPAVInputSource@2@QBG@Z 1204bc10 f   DGXMLScanner.obj
 0001:0004aeb0       ?scanAttValue@DGXMLScanner@xercesc_2_5@@AAE_NQBVXMLAttDef@2@QBGAAVXMLBuffer@2@@Z 1204beb0 f   DGXMLScanner.obj
 0001:0004b2e0       ?scanCDSection@DGXMLScanner@xercesc_2_5@@EAEXXZ 1204c2e0 f   DGXMLScanner.obj
 0001:0004b590       ?scanCharData@DGXMLScanner@xercesc_2_5@@EAEXAAVXMLBuffer@2@@Z 1204c590 f   DGXMLScanner.obj
 0001:0004b8c0       ?scanEntityRef@DGXMLScanner@xercesc_2_5@@EAE?AW4EntityExpRes@XMLScanner@2@_NAAG1AA_N@Z 1204c8c0 f   DGXMLScanner.obj
 0001:0004be10       ?hasMoreElements@?$NameIdPoolEnumerator@VDTDEntityDecl@xercesc_2_5@@@xercesc_2_5@@UBE_NXZ 1204ce10 f i DGXMLScanner.obj
 0001:0004be10       ?hasMoreElements@?$NameIdPoolEnumerator@VDTDElementDecl@xercesc_2_5@@@xercesc_2_5@@UBE_NXZ 1204ce10 f i DGXMLScanner.obj
 0001:0004be10       ?hasMoreElements@?$NameIdPoolEnumerator@VXMLNotationDecl@xercesc_2_5@@@xercesc_2_5@@UBE_NXZ 1204ce10 f i DGXMLScanner.obj
 0001:0004be30       ?nextElement@?$NameIdPoolEnumerator@VDTDEntityDecl@xercesc_2_5@@@xercesc_2_5@@UAEAAVDTDEntityDecl@2@XZ 1204ce30 f i DGXMLScanner.obj
 0001:0004be30       ?nextElement@?$NameIdPoolEnumerator@VDTDElementDecl@xercesc_2_5@@@xercesc_2_5@@UAEAAVDTDElementDecl@2@XZ 1204ce30 f i DGXMLScanner.obj
 0001:0004be30       ?nextElement@?$NameIdPoolEnumerator@VXMLNotationDecl@xercesc_2_5@@@xercesc_2_5@@UAEAAVXMLNotationDecl@2@XZ 1204ce30 f i DGXMLScanner.obj
 0001:0004be80       ?Reset@?$NameIdPoolEnumerator@VXMLNotationDecl@xercesc_2_5@@@xercesc_2_5@@UAEXXZ 1204ce80 f i DGXMLScanner.obj
 0001:0004be80       ?Reset@?$NameIdPoolEnumerator@VDTDElementDecl@xercesc_2_5@@@xercesc_2_5@@UAEXXZ 1204ce80 f i DGXMLScanner.obj
 0001:0004be80       ?Reset@?$NameIdPoolEnumerator@VDTDEntityDecl@xercesc_2_5@@@xercesc_2_5@@UAEXXZ 1204ce80 f i DGXMLScanner.obj
 0001:0004bea0       ?getByKey@?$NameIdPool@VDTDEntityDecl@xercesc_2_5@@@xercesc_2_5@@QAEPAVDTDEntityDecl@2@QBG@Z 1204cea0 f i DGXMLScanner.obj
 0001:0004bf60       ?put@?$NameIdPool@VDTDEntityDecl@xercesc_2_5@@@xercesc_2_5@@QAEIQAVDTDEntityDecl@2@@Z 1204cf60 f i DGXMLScanner.obj
 0001:0004c130       ?put@?$NameIdPool@VDTDElementDecl@xercesc_2_5@@@xercesc_2_5@@QAEIQAVDTDElementDecl@2@@Z 1204d130 f i DGXMLScanner.obj
 0001:0004c310       ?removeAll@?$RefHashTableOf@I@xercesc_2_5@@QAEXXZ 1204d310 f i DGXMLScanner.obj
 0001:0004c310       ?removeAll@?$RefHashTableOf@G@xercesc_2_5@@QAEXXZ 1204d310 f i DGXMLScanner.obj
 0001:0004c380       ??1?$Janitor@V?$BaseRefVectorOf@G@xercesc_2_5@@@xercesc_2_5@@QAE@XZ 1204d380 f i DGXMLScanner.obj
 0001:0004c380       ??1?$Janitor@V?$RefVectorOf@VXercesStep@xercesc_2_5@@@xercesc_2_5@@@xercesc_2_5@@QAE@XZ 1204d380 f i DGXMLScanner.obj
 0001:0004c380       ??1?$Janitor@VXMLSchemaDescription@xercesc_2_5@@@xercesc_2_5@@QAE@XZ 1204d380 f i DGXMLScanner.obj
 0001:0004c380       ??1?$Janitor@VXMLGrammarDescription@xercesc_2_5@@@xercesc_2_5@@QAE@XZ 1204d380 f i DGXMLScanner.obj
 0001:0004c380       ??1?$Janitor@VXMLDateTime@xercesc_2_5@@@xercesc_2_5@@QAE@XZ 1204d380 f i DGXMLScanner.obj
 0001:0004c380       ??1?$Janitor@VXSAnnotation@xercesc_2_5@@@xercesc_2_5@@QAE@XZ 1204d380 f i DGXMLScanner.obj
 0001:0004c380       ??1?$Janitor@VIC_Unique@xercesc_2_5@@@xercesc_2_5@@QAE@XZ 1204d380 f i DGXMLScanner.obj
 0001:0004c380       ??1?$Janitor@VIC_KeyRef@xercesc_2_5@@@xercesc_2_5@@QAE@XZ 1204d380 f i DGXMLScanner.obj
 0001:0004c380       ??1?$Janitor@V?$RefArrayVectorOf@G@xercesc_2_5@@@xercesc_2_5@@QAE@XZ 1204d380 f i DGXMLScanner.obj
 0001:0004c380       ??1?$Janitor@VDTDEntityDecl@xercesc_2_5@@@xercesc_2_5@@QAE@XZ 1204d380 f i DGXMLScanner.obj
 0001:0004c380       ??1?$Janitor@VSchemaAttDef@xercesc_2_5@@@xercesc_2_5@@QAE@XZ 1204d380 f i DGXMLScanner.obj
 0001:0004c380       ??1?$Janitor@V?$RefVectorOf@VDatatypeValidator@xercesc_2_5@@@xercesc_2_5@@@xercesc_2_5@@QAE@XZ 1204d380 f i DGXMLScanner.obj
 0001:0004c380       ??1?$Janitor@VIC_Key@xercesc_2_5@@@xercesc_2_5@@QAE@XZ 1204d380 f i DGXMLScanner.obj
 0001:0004c380       ??1?$Janitor@VDTDElementDecl@xercesc_2_5@@@xercesc_2_5@@QAE@XZ 1204d380 f i DGXMLScanner.obj
 0001:0004c380       ??1?$Janitor@VRegxParser@xercesc_2_5@@@xercesc_2_5@@QAE@XZ 1204d380 f i DGXMLScanner.obj
 0001:0004c380       ??1?$Janitor@VInputSource@xercesc_2_5@@@xercesc_2_5@@QAE@XZ 1204d380 f i DGXMLScanner.obj
 0001:0004c380       ??1?$Janitor@V?$RefVectorOf@VMatch@xercesc_2_5@@@xercesc_2_5@@@xercesc_2_5@@QAE@XZ 1204d380 f i DGXMLScanner.obj
 0001:0004c3a0       ??_E?$NameIdPoolEnumerator@VDTDElementDecl@xercesc_2_5@@@xercesc_2_5@@UAEPAXI@Z 1204d3a0 f i DGXMLScanner.obj
 0001:0004c3a0       ??_G?$NameIdPoolEnumerator@VDTDElementDecl@xercesc_2_5@@@xercesc_2_5@@UAEPAXI@Z 1204d3a0 f i DGXMLScanner.obj
 0001:0004c3c0       ??1?$NameIdPoolEnumerator@VDTDElementDecl@xercesc_2_5@@@xercesc_2_5@@UAE@XZ 1204d3c0 f i DGXMLScanner.obj
 0001:0004c3d0       ??_E?$XMLEnumerator@VDTDElementDecl@xercesc_2_5@@@xercesc_2_5@@UAEPAXI@Z 1204d3d0 f i DGXMLScanner.obj
 0001:0004c3d0       ??_G?$XMLEnumerator@VDTDElementDecl@xercesc_2_5@@@xercesc_2_5@@UAEPAXI@Z 1204d3d0 f i DGXMLScanner.obj
 0001:0004c3f0       ??_G?$NameIdPoolEnumerator@VDTDEntityDecl@xercesc_2_5@@@xercesc_2_5@@UAEPAXI@Z 1204d3f0 f i DGXMLScanner.obj
 0001:0004c3f0       ??_E?$NameIdPoolEnumerator@VDTDEntityDecl@xercesc_2_5@@@xercesc_2_5@@UAEPAXI@Z 1204d3f0 f i DGXMLScanner.obj
 0001:0004c410       ??1?$NameIdPoolEnumerator@VDTDEntityDecl@xercesc_2_5@@@xercesc_2_5@@UAE@XZ 1204d410 f i DGXMLScanner.obj
 0001:0004c420       ??_G?$XMLEnumerator@VDTDEntityDecl@xercesc_2_5@@@xercesc_2_5@@UAEPAXI@Z 1204d420 f i DGXMLScanner.obj
 0001:0004c420       ??_E?$XMLEnumerator@VDTDEntityDecl@xercesc_2_5@@@xercesc_2_5@@UAEPAXI@Z 1204d420 f i DGXMLScanner.obj
 0001:0004c440       ?findBucketElem@?$NameIdPool@VDTDEntityDecl@xercesc_2_5@@@xercesc_2_5@@AAEPAU?$NameIdPoolBucketElem@VDTDEntityDecl@xercesc_2_5@@@2@QBGAAI@Z 1204d440 f i DGXMLScanner.obj
 0001:0004c4f0       ?removeAll@?$NameIdPool@VDTDElementDecl@xercesc_2_5@@@xercesc_2_5@@QAEXXZ 1204d4f0 f i DGXMLScanner.obj
 0001:0004c4f0       ?removeAll@?$NameIdPool@VXMLNotationDecl@xercesc_2_5@@@xercesc_2_5@@QAEXXZ 1204d4f0 f i DGXMLScanner.obj
 0001:0004c560       ?findBucketElem@?$NameIdPool@VDTDElementDecl@xercesc_2_5@@@xercesc_2_5@@AAEPAU?$NameIdPoolBucketElem@VDTDElementDecl@xercesc_2_5@@@2@QBGAAI@Z 1204d560 f i DGXMLScanner.obj
 0001:0004c620       ??0EndOfEntityException@xercesc_2_5@@QAE@PAVXMLEntityDecl@1@I@Z 1204d620 f i DGXMLScanner.obj
 0001:0004c620       ??0?$NameIdPoolBucketElem@VDTDElementDecl@xercesc_2_5@@@xercesc_2_5@@QAE@QAVDTDElementDecl@1@QAU01@@Z 1204d620 f i DGXMLScanner.obj
 0001:0004c620       ??0?$NameIdPoolBucketElem@VDTDEntityDecl@xercesc_2_5@@@xercesc_2_5@@QAE@QAVDTDEntityDecl@1@QAU01@@Z 1204d620 f i DGXMLScanner.obj
 0001:0004c620       ??0SubstitutionGroupComparator@xercesc_2_5@@QAE@QAVGrammarResolver@1@QAVXMLStringPool@1@@Z 1204d620 f i DGXMLScanner.obj
 0001:0004c640       ?rehash@?$RefHashTableOf@V?$ValueVectorOf@I@xercesc_2_5@@@xercesc_2_5@@AAEXXZ 1204d640 f i DGXMLScanner.obj
 0001:0004c640       ?rehash@?$RefHashTableOf@X@xercesc_2_5@@AAEXXZ 1204d640 f i DGXMLScanner.obj
 0001:0004c640       ?rehash@?$RefHashTableOf@V?$ValueVectorOf@PAVSchemaElementDecl@xercesc_2_5@@@xercesc_2_5@@@xercesc_2_5@@AAEXXZ 1204d640 f i DGXMLScanner.obj
 0001:0004c640       ?rehash@?$RefHashTableOf@V?$KeyRefPair@XVDOMUserDataHandler@xercesc_2_5@@@xercesc_2_5@@@xercesc_2_5@@AAEXXZ 1204d640 f i DGXMLScanner.obj
 0001:0004c640       ?rehash@?$RefHashTableOf@VXSObject@xercesc_2_5@@@xercesc_2_5@@AAEXXZ 1204d640 f i DGXMLScanner.obj
 0001:0004c640       ?rehash@?$RefHashTableOf@VENameMap@xercesc_2_5@@@xercesc_2_5@@AAEXXZ 1204d640 f i DGXMLScanner.obj
 0001:0004c640       ?rehash@?$RefHashTableOf@VDTDAttDef@xercesc_2_5@@@xercesc_2_5@@AAEXXZ 1204d640 f i DGXMLScanner.obj
 0001:0004c640       ?rehash@?$RefHashTableOf@VCPMapEntry@xercesc_2_5@@@xercesc_2_5@@AAEXXZ 1204d640 f i DGXMLScanner.obj
 0001:0004c640       ?rehash@?$RefHashTableOf@G@xercesc_2_5@@AAEXXZ 1204d640 f i DGXMLScanner.obj
 0001:0004c640       ?rehash@?$RefHashTableOf@VDatatypeValidator@xercesc_2_5@@@xercesc_2_5@@AAEXXZ 1204d640 f i DGXMLScanner.obj
 0001:0004c640       ?rehash@?$RefHashTableOf@VXMLCanRepGroup@xercesc_2_5@@@xercesc_2_5@@AAEXXZ 1204d640 f i DGXMLScanner.obj
 0001:0004c640       ?rehash@?$RefHashTableOf@VValueStore@xercesc_2_5@@@xercesc_2_5@@AAEXXZ 1204d640 f i DGXMLScanner.obj
 0001:0004c640       ?rehash@?$RefHashTableOf@I@xercesc_2_5@@AAEXXZ 1204d640 f i DGXMLScanner.obj
 0001:0004c640       ?rehash@?$RefHashTableOf@VXercesGroupInfo@xercesc_2_5@@@xercesc_2_5@@AAEXXZ 1204d640 f i DGXMLScanner.obj
 0001:0004c640       ?rehash@?$RefHashTableOf@VXMLElementDecl@xercesc_2_5@@@xercesc_2_5@@AAEXXZ 1204d640 f i DGXMLScanner.obj
 0001:0004c640       ?rehash@?$RefHashTableOf@VComplexTypeInfo@xercesc_2_5@@@xercesc_2_5@@AAEXXZ 1204d640 f i DGXMLScanner.obj
 0001:0004c640       ?rehash@?$RefHashTableOf@VXSNamespaceItem@xercesc_2_5@@@xercesc_2_5@@AAEXXZ 1204d640 f i DGXMLScanner.obj
 0001:0004c640       ?rehash@?$RefHashTableOf@VXMLRefInfo@xercesc_2_5@@@xercesc_2_5@@AAEXXZ 1204d640 f i DGXMLScanner.obj
 0001:0004c640       ?rehash@?$RefHashTableOf@V?$RefHashTableOf@V?$KeyRefPair@XVDOMUserDataHandler@xercesc_2_5@@@xercesc_2_5@@@xercesc_2_5@@@xercesc_2_5@@AAEXXZ 1204d640 f i DGXMLScanner.obj
 0001:0004c640       ?rehash@?$RefHashTableOf@VKVStringPair@xercesc_2_5@@@xercesc_2_5@@AAEXXZ 1204d640 f i DGXMLScanner.obj
 0001:0004c640       ?rehash@?$RefHashTableOf@VGrammar@xercesc_2_5@@@xercesc_2_5@@AAEXXZ 1204d640 f i DGXMLScanner.obj
 0001:0004c640       ?rehash@?$RefHashTableOf@VXercesAttGroupInfo@xercesc_2_5@@@xercesc_2_5@@AAEXXZ 1204d640 f i DGXMLScanner.obj
 0001:0004c720       ??0ElemStack@xercesc_2_5@@QAE@QAVMemoryManager@1@@Z 1204d720 f   ElemStack.obj
 0001:0004c820       ??1ElemStack@xercesc_2_5@@QAE@XZ 1204d820 f   ElemStack.obj
 0001:0004c8f0       ?addLevel@ElemStack@xercesc_2_5@@QAEIXZ 1204d8f0 f   ElemStack.obj
 0001:0004ca60       ?addLevel@ElemStack@xercesc_2_5@@QAEIQAVXMLElementDecl@2@I@Z 1204da60 f   ElemStack.obj
 0001:0004cbe0       ?popTop@ElemStack@xercesc_2_5@@QAEPBUStackElem@12@XZ 1204dbe0 f   ElemStack.obj
 0001:0004cc20       ?setElement@ElemStack@xercesc_2_5@@QAEXQAVXMLElementDecl@2@I@Z 1204dc20 f   ElemStack.obj
 0001:0004cc80       ?addChild@ElemStack@xercesc_2_5@@QAEIQAVQName@2@_N@Z 1204dc80 f   ElemStack.obj
 0001:0004cda0       ?topElement@ElemStack@xercesc_2_5@@QBEPBUStackElem@12@XZ 1204dda0 f   ElemStack.obj
 0001:0004cde0       ?addPrefix@ElemStack@xercesc_2_5@@QAEXQBGI@Z 1204dde0 f   ElemStack.obj
 0001:0004cf10       ?mapPrefixToURI@ElemStack@xercesc_2_5@@QBEIQBGW4MapModes@12@AA_N@Z 1204df10 f   ElemStack.obj
 0001:0004d000       ?getNamespaceMap@ElemStack@xercesc_2_5@@QBEPAV?$ValueVectorOf@PAUPrefMapElem@xercesc_2_5@@@2@XZ 1204e000 f   ElemStack.obj
 0001:0004d110       ?reset@ElemStack@xercesc_2_5@@QAEXIIII@Z 1204e110 f   ElemStack.obj
 0001:0004d180       ?expandMap@ElemStack@xercesc_2_5@@AAEXQAUStackElem@12@@Z 1204e180 f   ElemStack.obj
 0001:0004d220       ?expandStack@ElemStack@xercesc_2_5@@AAEXXZ 1204e220 f   ElemStack.obj
 0001:0004d2c0       ??0WFElemStack@xercesc_2_5@@QAE@QAVMemoryManager@1@@Z 1204e2c0 f   ElemStack.obj
 0001:0004d360       ??1WFElemStack@xercesc_2_5@@QAE@XZ 1204e360 f   ElemStack.obj
 0001:0004d400       ?addLevel@WFElemStack@xercesc_2_5@@QAEIXZ 1204e400 f   ElemStack.obj
 0001:0004d540       ?addLevel@WFElemStack@xercesc_2_5@@QAEIQBGII@Z 1204e540 f   ElemStack.obj
 0001:0004d6e0       ?popTop@WFElemStack@xercesc_2_5@@QAEPBUStackElem@12@XZ 1204e6e0 f   ElemStack.obj
 0001:0004d720       ?setElement@WFElemStack@xercesc_2_5@@QAEXQBGII@Z 1204e720 f   ElemStack.obj
 0001:0004d7e0       ?topElement@WFElemStack@xercesc_2_5@@QBEPBUStackElem@12@XZ 1204e7e0 f   ElemStack.obj
 0001:0004d820       ?addPrefix@WFElemStack@xercesc_2_5@@QAEXQBGI@Z 1204e820 f   ElemStack.obj
 0001:0004d960       ?mapPrefixToURI@WFElemStack@xercesc_2_5@@QBEIQBGW4MapModes@12@AA_N@Z 1204e960 f   ElemStack.obj
 0001:0004da00       ?reset@WFElemStack@xercesc_2_5@@QAEXIIII@Z 1204ea00 f   ElemStack.obj
 0001:0004da70       ?expandMap@WFElemStack@xercesc_2_5@@AAEXXZ 1204ea70 f   ElemStack.obj
 0001:0004db20       ?expandStack@WFElemStack@xercesc_2_5@@AAEXXZ 1204eb20 f   ElemStack.obj
 0001:0004dbc0       ?getName@IGXMLScanner@xercesc_2_5@@UBEPBGXZ 1204ebc0 f i IGXMLScanner.obj
 0001:0004dbd0       ??1PSVIHandler@xercesc_2_5@@UAE@XZ 1204ebd0 f i IGXMLScanner.obj
 0001:0004dbe0       ??0PSVIHandler@xercesc_2_5@@IAE@XZ 1204ebe0 f i IGXMLScanner.obj
 0001:0004dbf0       ??_EPSVIHandler@xercesc_2_5@@UAEPAXI@Z 1204ebf0 f i IGXMLScanner.obj
 0001:0004dc50       ??1XSDErrorReporter@xercesc_2_5@@UAE@XZ 1204ec50 f i IGXMLScanner.obj
 0001:0004dc60       ??_FXSDErrorReporter@xercesc_2_5@@QAEXXZ 1204ec60 f i IGXMLScanner.obj
 0001:0004dc70       ??_EXSDErrorReporter@xercesc_2_5@@UAEPAXI@Z 1204ec70 f i IGXMLScanner.obj
 0001:0004dcd0       ?getCheckElementConsistency@XercesGroupInfo@xercesc_2_5@@QBE_NXZ 1204ecd0 f i IGXMLScanner.obj
 0001:0004dcd0       ?getAnonymous@ComplexTypeInfo@xercesc_2_5@@QBE_NXZ 1204ecd0 f i IGXMLScanner.obj
 0001:0004dcd0       ?getExitOnFirstFatal@XSDErrorReporter@xercesc_2_5@@QBE_NXZ 1204ecd0 f i IGXMLScanner.obj
 0001:0004dcd0       ?getStandardUriConformant@XMLScanner@xercesc_2_5@@QBE_NXZ 1204ecd0 f i IGXMLScanner.obj
 0001:0004dcd0       ?containsTypeWithId@XercesAttGroupInfo@xercesc_2_5@@QBE_NXZ 1204ecd0 f i IGXMLScanner.obj
 0001:0004dcd0       ?getDeclared@XMLRefInfo@xercesc_2_5@@QBE_NXZ 1204ecd0 f i IGXMLScanner.obj
 0001:0004dce0       ??_FSchemaValidator@xercesc_2_5@@QAEXXZ 1204ece0 f i IGXMLScanner.obj
 0001:0004dcf0       ?setId@XSAttributeDeclaration@xercesc_2_5@@QAEXI@Z 1204ecf0 f i IGXMLScanner.obj
 0001:0004dcf0       ?setPSVIScope@SchemaElementDecl@xercesc_2_5@@QAEXW4PSVIScope@PSVIDefs@2@@Z 1204ecf0 f i IGXMLScanner.obj
 0001:0004dcf0       ?setElementId@ComplexTypeInfo@xercesc_2_5@@QAEXI@Z 1204ecf0 f i IGXMLScanner.obj
 0001:0004dcf0       ?setBaseGroup@XercesGroupInfo@xercesc_2_5@@QAEXQAV12@@Z 1204ecf0 f i IGXMLScanner.obj
 0001:0004dcf0       ?setComplexTypeRegistry@SchemaGrammar@xercesc_2_5@@QAEXQAV?$RefHashTableOf@VComplexTypeInfo@xercesc_2_5@@@2@@Z 1204ecf0 f i IGXMLScanner.obj
 0001:0004dcf0       ?setGrammarResolver@SchemaValidator@xercesc_2_5@@QAEXPAVGrammarResolver@2@@Z 1204ecf0 f i IGXMLScanner.obj
 0001:0004dd00       ?setXsiType@SchemaValidator@xercesc_2_5@@QAEXQBG0I@Z 1204ed00 f i IGXMLScanner.obj
 0001:0004dd80       ?setStandardUriConformant@ReaderMgr@xercesc_2_5@@QAEX_N@Z 1204ed80 f i IGXMLScanner.obj
 0001:0004dd80       ?setNillable@SchemaValidator@xercesc_2_5@@QAEX_N@Z 1204ed80 f i IGXMLScanner.obj
 0001:0004dd90       ?setExitOnFirstFatal@SchemaValidator@xercesc_2_5@@QAEX_N@Z 1204ed90 f i IGXMLScanner.obj
 0001:0004dda0       ?setDatatypeBuffer@SchemaValidator@xercesc_2_5@@QAEXQBG@Z 1204eda0 f i IGXMLScanner.obj
 0001:0004ddc0       ?clearDatatypeBuffer@SchemaValidator@xercesc_2_5@@QAEXXZ 1204edc0 f i IGXMLScanner.obj
 0001:0004ddd0       ?getCurrentTypeInfo@SchemaValidator@xercesc_2_5@@QBEPAVComplexTypeInfo@2@XZ 1204edd0 f i IGXMLScanner.obj
 0001:0004de50       ?setModelType@SchemaElementDecl@xercesc_2_5@@QAEXW4ModelTypes@12@@Z 1204ee50 f i IGXMLScanner.obj
 0001:0004de50       ?updateValidity@PSVIAttribute@xercesc_2_5@@QAEXW4VALIDITY_STATE@PSVIItem@2@@Z 1204ee50 f i IGXMLScanner.obj
 0001:0004de50       ?setAttributeDeclRegistry@SchemaGrammar@xercesc_2_5@@QAEXQAV?$RefHashTableOf@VXMLAttDef@xercesc_2_5@@@2@@Z 1204ee50 f i IGXMLScanner.obj
 0001:0004de50       ?setType@ContentSpecNode@xercesc_2_5@@QAEXW4NodeTypes@12@@Z 1204ee50 f i IGXMLScanner.obj
 0001:0004de50       ?setDatatypeValidator@XMLAttr@xercesc_2_5@@QAEXPAVDatatypeValidator@2@@Z 1204ee50 f i IGXMLScanner.obj
 0001:0004de50       ?setBaseType@XSComplexTypeDefinition@xercesc_2_5@@AAEXQAVXSTypeDefinition@2@@Z 1204ee50 f i IGXMLScanner.obj
 0001:0004de50       ?setNameSpaceId@XMLNotationDecl@xercesc_2_5@@QAEXI@Z 1204ee50 f i IGXMLScanner.obj
 0001:0004de50       ?setGrammar@SchemaValidator@xercesc_2_5@@UAEXPAVGrammar@2@@Z 1204ee50 f i IGXMLScanner.obj
 0001:0004de50       ?setNamespaceURI@IdentityConstraint@xercesc_2_5@@QAEXH@Z 1204ee50 f i IGXMLScanner.obj
 0001:0004de50       ?setType@DatatypeValidator@xercesc_2_5@@IAEXW4ValidatorType@12@@Z 1204ee50 f i IGXMLScanner.obj
 0001:0004de50       ?setScopeDefined@ComplexTypeInfo@xercesc_2_5@@QAEXH@Z 1204ee50 f i IGXMLScanner.obj
 0001:0004de50       ?setRootElemId@DTDGrammar@xercesc_2_5@@QAEXI@Z 1204ee50 f i IGXMLScanner.obj
 0001:0004de60       ?setErrorReporter@SchemaValidator@xercesc_2_5@@QAEXQAVXMLErrorReporter@2@@Z 1204ee60 f i IGXMLScanner.obj
 0001:0004de70       ?handlesSchema@SchemaValidator@xercesc_2_5@@UBE_NXZ 1204ee70 f i IGXMLScanner.obj
 0001:0004de70       ?isAtomic@DatatypeValidator@xercesc_2_5@@UBE_NXZ 1204ee70 f i IGXMLScanner.obj
 0001:0004de70       ?handlesDTD@DTDValidator@xercesc_2_5@@UBE_NXZ 1204ee70 f i IGXMLScanner.obj
 0001:0004de80       ?isOccurrenceRangeOK@SchemaValidator@xercesc_2_5@@AAE_NHHHH@Z 1204ee80 f i IGXMLScanner.obj
 0001:0004deb0       ?getErrorOccurred@SchemaValidator@xercesc_2_5@@QBE_NXZ 1204eeb0 f i IGXMLScanner.obj
 0001:0004dec0       ?getIsElemSpecified@SchemaValidator@xercesc_2_5@@QBE_NXZ 1204eec0 f i IGXMLScanner.obj
 0001:0004ded0       ?getNormalizedValue@SchemaValidator@xercesc_2_5@@QBEPBGXZ 1204eed0 f i IGXMLScanner.obj
 0001:0004dee0       ?getMayMatch@FieldActivator@xercesc_2_5@@QAE_NQAVIC_Field@2@@Z 1204eee0 f i IGXMLScanner.obj
 0001:0004df90       ?setMayMatch@FieldActivator@xercesc_2_5@@QAEXQAVIC_Field@2@_N@Z 1204ef90 f i IGXMLScanner.obj
 0001:0004dfb0       ??_FXPathMatcherStack@xercesc_2_5@@QAEXXZ 1204efb0 f i IGXMLScanner.obj
 0001:0004dfc0       ?size@XPathMatcherStack@xercesc_2_5@@QBEIXZ 1204efc0 f i IGXMLScanner.obj
 0001:0004dfd0       ?getMatcherAt@XPathMatcherStack@xercesc_2_5@@QBEPAVXPathMatcher@2@I@Z 1204efd0 f i IGXMLScanner.obj
 0001:0004e020       ?pushContext@XPathMatcherStack@xercesc_2_5@@QAEXXZ 1204f020 f i IGXMLScanner.obj
 0001:0004e0c0       ?popContext@XPathMatcherStack@xercesc_2_5@@QAEXXZ 1204f0c0 f i IGXMLScanner.obj
 0001:0004e190       ?addMatcher@XPathMatcherStack@xercesc_2_5@@QAEXQAVXPathMatcher@2@@Z 1204f190 f i IGXMLScanner.obj
 0001:0004e250       ??_FValueStoreCache@xercesc_2_5@@QAEXXZ 1204f250 f i IGXMLScanner.obj
 0001:0004e260       ?getValueStoreFor@ValueStoreCache@xercesc_2_5@@QAEPAVValueStore@2@QBVIC_Field@2@H@Z 1204f260 f i IGXMLScanner.obj
 0001:0004e300       ?getValueStoreFor@ValueStoreCache@xercesc_2_5@@QAEPAVValueStore@2@QBVIdentityConstraint@2@H@Z 1204f300 f i IGXMLScanner.obj
 0001:0004e3a0       ??_FFieldValueMap@xercesc_2_5@@QAEXXZ 1204f3a0 f i IGXMLScanner.obj
 0001:0004e3b0       ?getDatatypeValidatorAt@FieldValueMap@xercesc_2_5@@QBEPAVDatatypeValidator@2@I@Z 1204f3b0 f i IGXMLScanner.obj
 0001:0004e400       ?getDatatypeValidatorFor@FieldValueMap@xercesc_2_5@@QBEPAVDatatypeValidator@2@QBVIC_Field@2@@Z 1204f400 f i IGXMLScanner.obj
 0001:0004e460       ?getValueAt@FieldValueMap@xercesc_2_5@@QBEPAGI@Z 1204f460 f i IGXMLScanner.obj
 0001:0004e4b0       ?getValueFor@FieldValueMap@xercesc_2_5@@QBEPAGQBVIC_Field@2@@Z 1204f4b0 f i IGXMLScanner.obj
 0001:0004e510       ?keyAt@FieldValueMap@xercesc_2_5@@QBEPAVIC_Field@2@I@Z 1204f510 f i IGXMLScanner.obj
 0001:0004e560       ?size@FieldValueMap@xercesc_2_5@@QBEIXZ 1204f560 f i IGXMLScanner.obj
 0001:0004e570       ?put@FieldValueMap@xercesc_2_5@@QAEXQAVIC_Field@2@QAVDatatypeValidator@2@QBG@Z 1204f570 f i IGXMLScanner.obj
 0001:0004e820       ??0IGXMLScanner@xercesc_2_5@@QAE@QAVXMLValidator@1@QAVGrammarResolver@1@QAVMemoryManager@1@@Z 1204f820 f   IGXMLScanner.obj
 0001:0004e980       ??_EIGXMLScanner@xercesc_2_5@@UAEPAXI@Z 1204f980 f i IGXMLScanner.obj
 0001:0004e9e0       ??0IGXMLScanner@xercesc_2_5@@QAE@QAVXMLDocumentHandler@1@QAVDocTypeHandler@1@QAVXMLEntityHandler@1@QAVXMLErrorReporter@1@QAVXMLValidator@1@QAVGrammarResolver@1@QAVMemoryManager@1@@Z 1204f9e0 f   IGXMLScanner.obj
 0001:0004eb50       ??1IGXMLScanner@xercesc_2_5@@UAE@XZ 1204fb50 f   IGXMLScanner.obj
 0001:0004ebc0       ?getEntityDeclPool@IGXMLScanner@xercesc_2_5@@UAEPAV?$NameIdPool@VDTDEntityDecl@xercesc_2_5@@@2@XZ 1204fbc0 f   IGXMLScanner.obj
 0001:0004ebc0       ?getEntityDeclPool@IGXMLScanner@xercesc_2_5@@UBEPBV?$NameIdPool@VDTDEntityDecl@xercesc_2_5@@@2@XZ 1204fbc0 f   IGXMLScanner.obj
 0001:0004ebd0       ?scanDocument@IGXMLScanner@xercesc_2_5@@UAEXABVInputSource@2@@Z 1204fbd0 f   IGXMLScanner.obj
 0001:0004eda0       ?scanNext@IGXMLScanner@xercesc_2_5@@UAE_NAAVXMLPScanToken@2@@Z 1204fda0 f   IGXMLScanner.obj
 0001:0004f100       ?commonInit@IGXMLScanner@xercesc_2_5@@AAEXXZ 12050100 f   IGXMLScanner.obj
 0001:0004f730       ?cleanUp@IGXMLScanner@xercesc_2_5@@AAEXXZ 12050730 f   IGXMLScanner.obj
 0001:0004f920       ?rawAttrScan@IGXMLScanner@xercesc_2_5@@AAEIQBGAAV?$RefVectorOf@VKVStringPair@xercesc_2_5@@@2@AA_N@Z 12050920 f   IGXMLScanner.obj
 0001:0004fe40       ?scanContent@IGXMLScanner@xercesc_2_5@@AAE_NXZ 12050e40 f   IGXMLScanner.obj
 0001:0004fff0       ?scanEndTag@IGXMLScanner@xercesc_2_5@@AAEXAA_N@Z 12050ff0 f   IGXMLScanner.obj
 0001:00050c90       ?scanDocTypeDecl@IGXMLScanner@xercesc_2_5@@EAEXXZ 12051c90 f   IGXMLScanner.obj
 0001:000516a0       ?scanStartTag@IGXMLScanner@xercesc_2_5@@AAE_NAA_N@Z 120526a0 f   IGXMLScanner.obj
 0001:000525c0       ?scanStartTagNS@IGXMLScanner@xercesc_2_5@@AAE_NAA_N@Z 120535c0 f   IGXMLScanner.obj
 0001:000548a0       ?activateSelectorFor@IGXMLScanner@xercesc_2_5@@AAEXQAVIdentityConstraint@2@H@Z 120558a0 f   IGXMLScanner.obj
 0001:000548a0       ?activateSelectorFor@SGXMLScanner@xercesc_2_5@@AAEXQAVIdentityConstraint@2@H@Z 120558a0 f   IGXMLScanner.obj
 0001:00054990       ?loadGrammar@IGXMLScanner@xercesc_2_5@@UAEPAVGrammar@2@ABVInputSource@2@F_N@Z 12055990 f   IGXMLScanner.obj
 0001:00054b40       ?loadDTDGrammar@IGXMLScanner@xercesc_2_5@@AAEPAVGrammar@2@ABVInputSource@2@_N@Z 12055b40 f   IGXMLScanner.obj
 0001:00055110       ?processSchemaLocation@IGXMLScanner@xercesc_2_5@@AAEXQAG@Z 12056110 f   IGXMLScanner.obj
 0001:00055250       ?endElementPSVI@IGXMLScanner@xercesc_2_5@@AAEXQAVSchemaElementDecl@2@QAVDatatypeValidator@2@@Z 12056250 f   IGXMLScanner.obj
 0001:00055410       ?resetPSVIElemContext@IGXMLScanner@xercesc_2_5@@AAEXXZ 12056410 f   IGXMLScanner.obj
 0001:00055450       ??1?$RefHash3KeysIdPool@VSchemaElementDecl@xercesc_2_5@@@xercesc_2_5@@QAE@XZ 12056450 f i IGXMLScanner.obj
 0001:000554e0       ?peek@?$ValueStackOf@PAVComplexTypeInfo@xercesc_2_5@@@xercesc_2_5@@QBEABQAVComplexTypeInfo@2@XZ 120564e0 f i IGXMLScanner.obj
 0001:00055550       ??1?$ValueVectorOf@W4NodeTypes@ContentSpecNode@xercesc_2_5@@@xercesc_2_5@@QAE@XZ 12056550 f i IGXMLScanner.obj
 0001:00055550       ??1?$ValueStackOf@I@xercesc_2_5@@QAE@XZ 12056550 f i IGXMLScanner.obj
 0001:00055550       ??1?$ValueVectorOf@PBVDOMElement@xercesc_2_5@@@xercesc_2_5@@QAE@XZ 12056550 f i IGXMLScanner.obj
 0001:00055550       ??1?$ValueVectorOf@I@xercesc_2_5@@QAE@XZ 12056550 f i IGXMLScanner.obj
 0001:00055550       ??1?$ValueVectorOf@PAG@xercesc_2_5@@QAE@XZ 12056550 f i IGXMLScanner.obj
 0001:00055550       ??1?$ValueVectorOf@PAVXercesAttGroupInfo@xercesc_2_5@@@xercesc_2_5@@QAE@XZ 12056550 f i IGXMLScanner.obj
 0001:00055550       ??1?$ValueVectorOf@PAVContentSpecNode@xercesc_2_5@@@xercesc_2_5@@QAE@XZ 12056550 f i IGXMLScanner.obj
 0001:00055550       ??1?$ValueVectorOf@PAVQName@xercesc_2_5@@@xercesc_2_5@@QAE@XZ 12056550 f i IGXMLScanner.obj
 0001:00055550       ??1?$ValueVectorOf@PAX@xercesc_2_5@@QAE@XZ 12056550 f i IGXMLScanner.obj
 0001:00055550       ??1?$ValueVectorOf@H@xercesc_2_5@@QAE@XZ 12056550 f i IGXMLScanner.obj
 0001:00055550       ??1?$ValueStackOf@_N@xercesc_2_5@@QAE@XZ 12056550 f i IGXMLScanner.obj
 0001:00055550       ??1?$ValueVectorOf@PAVIC_Field@xercesc_2_5@@@xercesc_2_5@@QAE@XZ 12056550 f i IGXMLScanner.obj
 0001:00055550       ??1?$ValueStackOf@H@xercesc_2_5@@QAE@XZ 12056550 f i IGXMLScanner.obj
 0001:00055550       ??1?$ValueVectorOf@PAVSchemaElementDecl@xercesc_2_5@@@xercesc_2_5@@QAE@XZ 12056550 f i IGXMLScanner.obj
 0001:00055550       ??1?$ValueStackOf@PAVDOMNode@xercesc_2_5@@@xercesc_2_5@@QAE@XZ 12056550 f i IGXMLScanner.obj
 0001:00055550       ??1?$ValueVectorOf@_N@xercesc_2_5@@QAE@XZ 12056550 f i IGXMLScanner.obj
 0001:00055570       ??_G?$RefVectorOf@VKVStringPair@xercesc_2_5@@@xercesc_2_5@@UAEPAXI@Z 12056570 f i IGXMLScanner.obj
 0001:00055570       ??_E?$RefVectorOf@VKVStringPair@xercesc_2_5@@@xercesc_2_5@@UAEPAXI@Z 12056570 f i IGXMLScanner.obj
 0001:00055590       ??1?$RefVectorOf@VKVStringPair@xercesc_2_5@@@xercesc_2_5@@UAE@XZ 12056590 f i IGXMLScanner.obj
 0001:00055610       ??1?$BaseRefVectorOf@VKVStringPair@xercesc_2_5@@@xercesc_2_5@@UAE@XZ 12056610 f i IGXMLScanner.obj
 0001:00055620       ?elementAt@?$ValueVectorOf@PAVComplexTypeInfo@xercesc_2_5@@@xercesc_2_5@@QBEABQAVComplexTypeInfo@2@I@Z 12056620 f i IGXMLScanner.obj
 0001:00055670       ?removeElementAt@?$ValueVectorOf@H@xercesc_2_5@@QAEXI@Z 12056670 f i IGXMLScanner.obj
 0001:00055670       ?removeElementAt@?$ValueVectorOf@PAVComplexTypeInfo@xercesc_2_5@@@xercesc_2_5@@QAEXI@Z 12056670 f i IGXMLScanner.obj
 0001:00055670       ?removeElementAt@?$ValueVectorOf@I@xercesc_2_5@@QAEXI@Z 12056670 f i IGXMLScanner.obj
 0001:000556e0       ?elementAt@?$ValueVectorOf@H@xercesc_2_5@@QAEAAHI@Z 120566e0 f i IGXMLScanner.obj
 0001:000556e0       ?elementAt@?$ValueVectorOf@PAVComplexTypeInfo@xercesc_2_5@@@xercesc_2_5@@QAEAAPAVComplexTypeInfo@2@I@Z 120566e0 f i IGXMLScanner.obj
 0001:000556e0       ?elementAt@?$ValueVectorOf@PBVDOMElement@xercesc_2_5@@@xercesc_2_5@@QAEAAPBVDOMElement@2@I@Z 120566e0 f i IGXMLScanner.obj
 0001:000556e0       ?elementAt@?$ValueVectorOf@PBG@xercesc_2_5@@QAEAAPBGI@Z 120566e0 f i IGXMLScanner.obj
 0001:000556e0       ?elementAt@?$ValueVectorOf@PAVSchemaElementDecl@xercesc_2_5@@@xercesc_2_5@@QAEAAPAVSchemaElementDecl@2@I@Z 120566e0 f i IGXMLScanner.obj
 0001:000556e0       ?elementAt@?$ValueVectorOf@I@xercesc_2_5@@QAEAAII@Z 120566e0 f i IGXMLScanner.obj
 0001:000556e0       ?elementAt@?$ValueVectorOf@PAVContentSpecNode@xercesc_2_5@@@xercesc_2_5@@QAEAAPAVContentSpecNode@2@I@Z 120566e0 f i IGXMLScanner.obj
 0001:00055730       ?removeElementAt@?$ValueVectorOf@_N@xercesc_2_5@@QAEXI@Z 12056730 f i IGXMLScanner.obj
 0001:000557a0       ??0DOMAttr@xercesc_2_5@@IAE@XZ 120567a0 f i IGXMLScanner2.obj
 0001:000557b0       ?getElemAttrDefaultQualified@SchemaInfo@xercesc_2_5@@QBEGXZ 120567b0 f i IGXMLScanner2.obj
 0001:000557c0       ?getProcessed@SchemaInfo@xercesc_2_5@@QBE_NXZ 120567c0 f i IGXMLScanner2.obj
 0001:000557d0       ?getImportingListEnumerator@SchemaInfo@xercesc_2_5@@QBE?AV?$BaseRefVectorEnumerator@VSchemaInfo@xercesc_2_5@@@2@XZ 120567d0 f i IGXMLScanner2.obj
 0001:00055800       ?getErrorReporter@XMLScanner@xercesc_2_5@@QAEPAVXMLErrorReporter@2@XZ 12056800 f i IGXMLScanner2.obj
 0001:00055800       ?getNonXSAttList@SchemaInfo@xercesc_2_5@@QBEPAV?$ValueVectorOf@PAVDOMNode@xercesc_2_5@@@2@XZ 12056800 f i IGXMLScanner2.obj
 0001:00055800       ?getErrorReporter@XMLScanner@xercesc_2_5@@QBEPBVXMLErrorReporter@2@XZ 12056800 f i IGXMLScanner2.obj
 0001:00055800       ?getPSVIHandler@SAX2XMLReaderImpl@xercesc_2_5@@UBEPAVPSVIHandler@2@XZ 12056800 f i IGXMLScanner2.obj
 0001:00055810       ?setElemAttrDefaultQualified@SchemaInfo@xercesc_2_5@@QAEXG@Z 12056810 f i IGXMLScanner2.obj
 0001:00055820       ?setProcessed@SchemaInfo@xercesc_2_5@@QAEX_N@Z 12056820 f i IGXMLScanner2.obj
 0001:00055820       ?useCachedGrammarInParse@GrammarResolver@xercesc_2_5@@QAEX_N@Z 12056820 f i IGXMLScanner2.obj
 0001:00055830       ?addImportedNS@SchemaInfo@xercesc_2_5@@QAEXH@Z 12056830 f i IGXMLScanner2.obj
 0001:00055980       ?addSchemaInfo@SchemaInfo@xercesc_2_5@@QAEXQAV12@W4ListType@12@@Z 12056980 f i IGXMLScanner2.obj
 0001:00055c00       ?getImportInfo@SchemaInfo@xercesc_2_5@@QBEPAV12@I@Z 12056c00 f i IGXMLScanner2.obj
 0001:00055c70       ?containsInfo@SchemaInfo@xercesc_2_5@@QBE_NQBV12@W4ListType@12@@Z 12056c70 f i IGXMLScanner2.obj
 0001:00055ce0       ?circularImportExist@SchemaInfo@xercesc_2_5@@QAE_NI@Z 12056ce0 f i IGXMLScanner2.obj
 0001:00055d50       ?isFailedRedefine@SchemaInfo@xercesc_2_5@@QAE_NQBVDOMElement@2@@Z 12056d50 f i IGXMLScanner2.obj
 0001:00055d90       ?addFailedRedefine@SchemaInfo@xercesc_2_5@@QAEXQBVDOMElement@2@@Z 12056d90 f i IGXMLScanner2.obj
 0001:00055ec0       ?isImportingNS@SchemaInfo@xercesc_2_5@@QAE_NH@Z 12056ec0 f i IGXMLScanner2.obj
 0001:00055f00       ?addRecursingType@SchemaInfo@xercesc_2_5@@QAEXQBVDOMElement@2@QBG@Z 12056f00 f i IGXMLScanner2.obj
 0001:00056120       ?clearTopLevelComponents@SchemaInfo@xercesc_2_5@@AAEXXZ 12057120 f i IGXMLScanner2.obj
 0001:00056170       ??_FGeneralAttributeCheck@xercesc_2_5@@QAEXXZ 12057170 f i IGXMLScanner2.obj
 0001:00056180       ?getFacetId@GeneralAttributeCheck@xercesc_2_5@@QAEGQBGQAVMemoryManager@2@@Z 12057180 f i IGXMLScanner2.obj
 0001:00056230       ?setIDRefList@GeneralAttributeCheck@xercesc_2_5@@QAEXQAV?$RefHashTableOf@VXMLRefInfo@xercesc_2_5@@@2@@Z 12057230 f i IGXMLScanner2.obj
 0001:00056240       ?getPrefix@TraverseSchema@xercesc_2_5@@AAEPBGQBG@Z 12057240 f i IGXMLScanner2.obj
 0001:000562a0       ?getLocalPart@TraverseSchema@xercesc_2_5@@AAEPBGQBG@Z 120572a0 f i IGXMLScanner2.obj
 0001:00056330       ?getElementAttValue@TraverseSchema@xercesc_2_5@@AAEPBGQBVDOMElement@2@QBG_N@Z 12057330 f i IGXMLScanner2.obj
 0001:000563b0       ?checkForEmptyTargetNamespace@TraverseSchema@xercesc_2_5@@AAEXQBVDOMElement@2@@Z 120573b0 f i IGXMLScanner2.obj
 0001:00056400       ?isBaseFromAnotherSchema@TraverseSchema@xercesc_2_5@@AAE_NQBG@Z 12057400 f i IGXMLScanner2.obj
 0001:000564b0       ?isAttrOrAttrGroup@TraverseSchema@xercesc_2_5@@AAE_NQBVDOMElement@2@@Z 120574b0 f i IGXMLScanner2.obj
 0001:000565d0       ?genAnonTypeName@TraverseSchema@xercesc_2_5@@AAEPBGQBG@Z 120575d0 f i IGXMLScanner2.obj
 0001:00056650       ?popCurrentTypeNameStack@TraverseSchema@xercesc_2_5@@AAEXXZ 12057650 f i IGXMLScanner2.obj
 0001:000566c0       ?copyWildCardData@TraverseSchema@xercesc_2_5@@AAEXQBVSchemaAttDef@2@QAV32@@Z 120576c0 f i IGXMLScanner2.obj
 0001:000566f0       ?getRedefineNewTypeName@TraverseSchema@xercesc_2_5@@AAEXQBGHAAVXMLBuffer@2@@Z 120576f0 f i IGXMLScanner2.obj
 0001:00056730       ?normalizeURI@TraverseSchema@xercesc_2_5@@AAEXQBGAAVXMLBuffer@2@@Z 12057730 f i IGXMLScanner2.obj
 0001:000567c0       ??1Locator@xercesc_2_5@@UAE@XZ 120577c0 f i IGXMLScanner2.obj
 0001:000567c0       ??1XSDLocator@xercesc_2_5@@UAE@XZ 120577c0 f i IGXMLScanner2.obj
 0001:000567d0       ??_EXSDLocator@xercesc_2_5@@UAEPAXI@Z 120577d0 f i IGXMLScanner2.obj
 0001:00056830       ??_FXSDDOMParser@xercesc_2_5@@QAEXXZ 12057830 f i IGXMLScanner2.obj
 0001:00056840       ?getSawFatal@XSDDOMParser@xercesc_2_5@@QBE_NXZ 12057840 f i IGXMLScanner2.obj
 0001:00056850       ?buildAttList@IGXMLScanner@xercesc_2_5@@AAEIABV?$RefVectorOf@VKVStringPair@xercesc_2_5@@@2@IPAVXMLElementDecl@2@AAV?$RefVectorOf@VXMLAttr@xercesc_2_5@@@2@@Z 12057850 f   IGXMLScanner2.obj
 0001:000584f0       ?normalizeAttValue@IGXMLScanner@xercesc_2_5@@AAE_NQBVXMLAttDef@2@QBG1AAVXMLBuffer@2@@Z 120594f0 f   IGXMLScanner2.obj
 0001:000587c0       ?normalizeAttRawValue@IGXMLScanner@xercesc_2_5@@AAE_NQBG0AAVXMLBuffer@2@@Z 120597c0 f   IGXMLScanner2.obj
 0001:000587c0       ?normalizeAttRawValue@SGXMLScanner@xercesc_2_5@@AAE_NQBG0AAVXMLBuffer@2@@Z 120597c0 f   IGXMLScanner2.obj
 0001:00058880       ?scanReset@IGXMLScanner@xercesc_2_5@@EAEXABVInputSource@2@@Z 12059880 f   IGXMLScanner2.obj
 0001:00058df0       ?sendCharData@IGXMLScanner@xercesc_2_5@@EAEXAAVXMLBuffer@2@@Z 12059df0 f   IGXMLScanner2.obj
 0001:00059180       ?updateNSMap@IGXMLScanner@xercesc_2_5@@AAEXQBG0@Z 1205a180 f   IGXMLScanner2.obj
 0001:00059470       ?scanRawAttrListforNameSpaces@IGXMLScanner@xercesc_2_5@@AAEXH@Z 1205a470 f   IGXMLScanner2.obj
 0001:00059a00       ?parseSchemaLocation@IGXMLScanner@xercesc_2_5@@AAEXQBG@Z 1205aa00 f   IGXMLScanner2.obj
 0001:00059bd0       ?resolveSchemaGrammar@IGXMLScanner@xercesc_2_5@@AAEXQBG0@Z 1205abd0 f   IGXMLScanner2.obj
 0001:0005a3b0       ?resolveSystemId@IGXMLScanner@xercesc_2_5@@AAEPAVInputSource@2@QBG@Z 1205b3b0 f   IGXMLScanner2.obj
 0001:0005a670       ?loadXMLSchemaGrammar@IGXMLScanner@xercesc_2_5@@AAEPAVGrammar@2@ABVInputSource@2@_N@Z 1205b670 f   IGXMLScanner2.obj
 0001:0005a970       ?basicAttrValueScan@IGXMLScanner@xercesc_2_5@@AAE_NQBGAAVXMLBuffer@2@@Z 1205b970 f   IGXMLScanner2.obj
 0001:0005ac10       ?scanAttValue@IGXMLScanner@xercesc_2_5@@AAE_NQBVXMLAttDef@2@QBGAAVXMLBuffer@2@@Z 1205bc10 f   IGXMLScanner2.obj
 0001:0005b0a0       ?scanCDSection@IGXMLScanner@xercesc_2_5@@EAEXXZ 1205c0a0 f   IGXMLScanner2.obj
 0001:0005b4b0       ?scanCharData@IGXMLScanner@xercesc_2_5@@EAEXAAVXMLBuffer@2@@Z 1205c4b0 f   IGXMLScanner2.obj
 0001:0005b8d0       ?scanEntityRef@IGXMLScanner@xercesc_2_5@@EAE?AW4EntityExpRes@XMLScanner@2@_NAAG1AA_N@Z 1205c8d0 f   IGXMLScanner2.obj
 0001:0005be20       ?switchGrammar@IGXMLScanner@xercesc_2_5@@AAE_NQBG@Z 1205ce20 f   IGXMLScanner2.obj
 0001:0005bf30       ?laxElementValidation@IGXMLScanner@xercesc_2_5@@AAE_NPAVQName@2@PAVContentLeafNameTypeVector@2@QBVXMLContentModel@2@I@Z 1205cf30 f   IGXMLScanner2.obj
 0001:0005c160       ?anyAttributeValidation@IGXMLScanner@xercesc_2_5@@AAE_NPAVSchemaAttDef@2@IAA_N1@Z 1205d160 f   IGXMLScanner2.obj
 0001:0005c250       ?hasMoreElements@?$BaseRefVectorEnumerator@VSchemaInfo@xercesc_2_5@@@xercesc_2_5@@UBE_NXZ 1205d250 f i IGXMLScanner2.obj
 0001:0005c260       ?nextElement@?$BaseRefVectorEnumerator@VSchemaInfo@xercesc_2_5@@@xercesc_2_5@@UAEAAVSchemaInfo@2@XZ 1205d260 f i IGXMLScanner2.obj
 0001:0005c2b0       ?Reset@?$BaseRefVectorEnumerator@VSchemaInfo@xercesc_2_5@@@xercesc_2_5@@UAEXXZ 1205d2b0 f i IGXMLScanner2.obj
 0001:0005c2c0       ?setElementAt@?$BaseRefVectorOf@VSchemaInfo@xercesc_2_5@@@xercesc_2_5@@UAEXQAVSchemaInfo@2@I@Z 1205d2c0 f i IGXMLScanner2.obj
 0001:0005c330       ?removeAllElements@?$BaseRefVectorOf@VSchemaInfo@xercesc_2_5@@@xercesc_2_5@@UAEXXZ 1205d330 f i IGXMLScanner2.obj
 0001:0005c390       ?removeElementAt@?$BaseRefVectorOf@VSchemaInfo@xercesc_2_5@@@xercesc_2_5@@UAEXI@Z 1205d390 f i IGXMLScanner2.obj
 0001:0005c450       ?removeLastElement@?$BaseRefVectorOf@VSchemaInfo@xercesc_2_5@@@xercesc_2_5@@UAEXXZ 1205d450 f i IGXMLScanner2.obj
 0001:0005c480       ?cleanup@?$BaseRefVectorOf@VSchemaInfo@xercesc_2_5@@@xercesc_2_5@@UAEXXZ 1205d480 f i IGXMLScanner2.obj
 0001:0005c4d0       ?containsElement@?$ValueVectorOf@H@xercesc_2_5@@QAE_NABHI@Z 1205d4d0 f i IGXMLScanner2.obj
 0001:0005c4d0       ?containsElement@?$ValueVectorOf@PAVSchemaElementDecl@xercesc_2_5@@@xercesc_2_5@@QAE_NABQAVSchemaElementDecl@2@I@Z 1205d4d0 f i IGXMLScanner2.obj
 0001:0005c4d0       ?containsElement@?$ValueVectorOf@I@xercesc_2_5@@QAE_NABII@Z 1205d4d0 f i IGXMLScanner2.obj
 0001:0005c500       ??_G?$BaseRefVectorEnumerator@VSchemaInfo@xercesc_2_5@@@xercesc_2_5@@UAEPAXI@Z 1205d500 f i IGXMLScanner2.obj
 0001:0005c500       ??_E?$BaseRefVectorEnumerator@VSchemaInfo@xercesc_2_5@@@xercesc_2_5@@UAEPAXI@Z 1205d500 f i IGXMLScanner2.obj
 0001:0005c520       ??1?$BaseRefVectorEnumerator@VSchemaInfo@xercesc_2_5@@@xercesc_2_5@@UAE@XZ 1205d520 f i IGXMLScanner2.obj
 0001:0005c580       ??1?$XMLEnumerator@VSchemaInfo@xercesc_2_5@@@xercesc_2_5@@UAE@XZ 1205d580 f i IGXMLScanner2.obj
 0001:0005c590       ??_G?$XMLEnumerator@VSchemaInfo@xercesc_2_5@@@xercesc_2_5@@UAEPAXI@Z 1205d590 f i IGXMLScanner2.obj
 0001:0005c590       ??_E?$XMLEnumerator@VSchemaInfo@xercesc_2_5@@@xercesc_2_5@@UAEPAXI@Z 1205d590 f i IGXMLScanner2.obj
 0001:0005c5b0       ??_E?$RefVectorOf@VSchemaInfo@xercesc_2_5@@@xercesc_2_5@@UAEPAXI@Z 1205d5b0 f i IGXMLScanner2.obj
 0001:0005c5b0       ??_G?$RefVectorOf@VSchemaInfo@xercesc_2_5@@@xercesc_2_5@@UAEPAXI@Z 1205d5b0 f i IGXMLScanner2.obj
 0001:0005c5d0       ??1?$RefVectorOf@VSchemaInfo@xercesc_2_5@@@xercesc_2_5@@UAE@XZ 1205d5d0 f i IGXMLScanner2.obj
 0001:0005c660       ??1?$BaseRefVectorOf@VSchemaInfo@xercesc_2_5@@@xercesc_2_5@@UAE@XZ 1205d660 f i IGXMLScanner2.obj
 0001:0005c670       ??0?$RefHash2KeysTableBucketElem@VIdentityConstraint@xercesc_2_5@@@xercesc_2_5@@QAE@PAXHQAVIdentityConstraint@1@PAU01@@Z 1205d670 f i IGXMLScanner2.obj
 0001:0005c670       ??0?$RefHash2KeysTableBucketElem@I@xercesc_2_5@@QAE@PAXHQAIPAU01@@Z 1205d670 f i IGXMLScanner2.obj
 0001:0005c670       ??0?$RefHash2KeysTableBucketElem@V?$ValueVectorOf@PAVSchemaElementDecl@xercesc_2_5@@@xercesc_2_5@@@xercesc_2_5@@QAE@PAXHQAV?$ValueVectorOf@PAVSchemaElementDecl@xercesc_2_5@@@1@PAU01@@Z 1205d670 f i IGXMLScanner2.obj
 0001:0005c670       ??0?$RefHash2KeysTableBucketElem@VSchemaInfo@xercesc_2_5@@@xercesc_2_5@@QAE@PAXHQAVSchemaInfo@1@PAU01@@Z 1205d670 f i IGXMLScanner2.obj
 0001:0005c690       ?findBucketElem@?$RefHash2KeysTableOf@G@xercesc_2_5@@AAEPAU?$RefHash2KeysTableBucketElem@G@2@QBXHAAI@Z 1205d690 f i IGXMLScanner2.obj
 0001:0005c690       ?findBucketElem@?$RefHash2KeysTableOf@V?$ValueVectorOf@PAVSchemaElementDecl@xercesc_2_5@@@xercesc_2_5@@@xercesc_2_5@@AAEPAU?$RefHash2KeysTableBucketElem@V?$ValueVectorOf@PAVSchemaElementDecl@xercesc_2_5@@@xercesc_2_5@@@2@QBXHAAI@Z 1205d690 f i IGXMLScanner2.obj
 0001:0005c690       ?findBucketElem@?$RefHash2KeysTableOf@VSchemaInfo@xercesc_2_5@@@xercesc_2_5@@AAEPAU?$RefHash2KeysTableBucketElem@VSchemaInfo@xercesc_2_5@@@2@QBXHAAI@Z 1205d690 f i IGXMLScanner2.obj
 0001:0005c690       ?findBucketElem@?$RefHash2KeysTableOf@I@xercesc_2_5@@AAEPAU?$RefHash2KeysTableBucketElem@I@2@QBXHAAI@Z 1205d690 f i IGXMLScanner2.obj
 0001:0005c690       ?findBucketElem@?$RefHash2KeysTableOf@VValueStore@xercesc_2_5@@@xercesc_2_5@@AAEPAU?$RefHash2KeysTableBucketElem@VValueStore@xercesc_2_5@@@2@QBXHAAI@Z 1205d690 f i IGXMLScanner2.obj
 0001:0005c690       ?findBucketElem@?$RefHash2KeysTableOf@VSchemaAttDef@xercesc_2_5@@@xercesc_2_5@@AAEPAU?$RefHash2KeysTableBucketElem@VSchemaAttDef@xercesc_2_5@@@2@QBXHAAI@Z 1205d690 f i IGXMLScanner2.obj
 0001:0005c690       ?findBucketElem@?$RefHash2KeysTableOf@VIdentityConstraint@xercesc_2_5@@@xercesc_2_5@@AAEPAU?$RefHash2KeysTableBucketElem@VIdentityConstraint@xercesc_2_5@@@2@QBXHAAI@Z 1205d690 f i IGXMLScanner2.obj
 0001:0005c730       ??0?$BaseRefVectorOf@VSchemaInfo@xercesc_2_5@@@xercesc_2_5@@QAE@I_NQAVMemoryManager@1@@Z 1205d730 f i IGXMLScanner2.obj
 0001:0005c790       ?allocate@MemoryManagerArrayImpl@xercesc_2_5@@UAEPAXI@Z 1205d790 f   MemoryManagerArrayImpl.obj
 0001:0005c800       ?deallocate@MemoryManagerImpl@xercesc_2_5@@UAEXPAX@Z 1205d800 f   MemoryManagerArrayImpl.obj
 0001:0005c800       ?deallocate@MemoryManagerArrayImpl@xercesc_2_5@@UAEXPAX@Z 1205d800 f   MemoryManagerArrayImpl.obj
 0001:0005c810       ?allocate@MemoryManagerImpl@xercesc_2_5@@UAEPAXI@Z 1205d810 f   MemoryManagerImpl.obj
 0001:0005c880       ??0ReaderMgr@xercesc_2_5@@QAE@QAVMemoryManager@1@@Z 1205d880 f   ReaderMgr.obj
 0001:0005c8c0       ??_EReaderMgr@xercesc_2_5@@UAEPAXI@Z 1205d8c0 f i ReaderMgr.obj
 0001:0005c920       ??1ReaderMgr@xercesc_2_5@@UAE@XZ 1205d920 f   ReaderMgr.obj
 0001:0005ca40       ?isEmpty@ReaderMgr@xercesc_2_5@@QBE_NXZ 1205da40 f   ReaderMgr.obj
 0001:0005ca50       ?getNextChar@ReaderMgr@xercesc_2_5@@QAEGXZ 1205da50 f   ReaderMgr.obj
 0001:0005cc20       ?getSpaces@ReaderMgr@xercesc_2_5@@QAEXAAVXMLBuffer@2@@Z 1205dc20 f   ReaderMgr.obj
 0001:0005cc60       ?getUpToCharOrWS@ReaderMgr@xercesc_2_5@@QAEXAAVXMLBuffer@2@G@Z 1205dc60 f   ReaderMgr.obj
 0001:0005cca0       ?peekNextChar@ReaderMgr@xercesc_2_5@@QAEGXZ 1205dca0 f   ReaderMgr.obj
 0001:0005cd60       ?skippedChar@ReaderMgr@xercesc_2_5@@QAE_NG@Z 1205dd60 f   ReaderMgr.obj
 0001:0005cda0       ?skippedSpace@ReaderMgr@xercesc_2_5@@QAE_NXZ 1205dda0 f   ReaderMgr.obj
 0001:0005cde0       ?skipIfQuote@ReaderMgr@xercesc_2_5@@QAE_NAAG@Z 1205dde0 f   ReaderMgr.obj
 0001:0005ce20       ?skipPastSpaces@ReaderMgr@xercesc_2_5@@QAE_NXZ 1205de20 f   ReaderMgr.obj
 0001:0005ce70       ?skipQuotedString@ReaderMgr@xercesc_2_5@@QAEXG@Z 1205de70 f   ReaderMgr.obj
 0001:0005cff0       ?skipUntilIn@ReaderMgr@xercesc_2_5@@QAEGQBG@Z 1205dff0 f   ReaderMgr.obj
 0001:0005d270       ?skipUntilInOrWS@ReaderMgr@xercesc_2_5@@QAEGQBG@Z 1205e270 f   ReaderMgr.obj
 0001:0005d500       ?atEOF@ReaderMgr@xercesc_2_5@@QBE_NXZ 1205e500 f   ReaderMgr.obj
 0001:0005d520       ?cleanStackBackTo@ReaderMgr@xercesc_2_5@@QAEXI@Z 1205e520 f   ReaderMgr.obj
 0001:0005d6e0       ?createReader@ReaderMgr@xercesc_2_5@@QAEPAVXMLReader@2@ABVInputSource@2@_NW4RefFrom@32@W4Types@32@W4Sources@32@1@Z 1205e6e0 f   ReaderMgr.obj
 0001:0005d870       ?createReader@ReaderMgr@xercesc_2_5@@QAEPAVXMLReader@2@QBG0_NW4RefFrom@32@W4Types@32@W4Sources@32@AAPAVInputSource@2@1@Z 1205e870 f   ReaderMgr.obj
 0001:0005dbd0       ?createReader@ReaderMgr@xercesc_2_5@@QAEPAVXMLReader@2@QBG00_NW4RefFrom@32@W4Types@32@W4Sources@32@AAPAVInputSource@2@1@Z 1205ebd0 f   ReaderMgr.obj
 0001:0005df30       ?createIntEntReader@ReaderMgr@xercesc_2_5@@QAEPAVXMLReader@2@QBGW4RefFrom@32@W4Types@32@0I_N3@Z 1205ef30 f   ReaderMgr.obj
 0001:0005e060       ?getCurrentEncodingStr@ReaderMgr@xercesc_2_5@@QBEPBGXZ 1205f060 f   ReaderMgr.obj
 0001:0005e080       ?getReaderDepth@ReaderMgr@xercesc_2_5@@QBEIXZ 1205f080 f   ReaderMgr.obj
 0001:0005e0a0       ?getLastExtEntityInfo@ReaderMgr@xercesc_2_5@@QBEXAAULastExtEntityInfo@12@@Z 1205f0a0 f   ReaderMgr.obj
 0001:0005e100       ?isScanningPERefOutOfLiteral@ReaderMgr@xercesc_2_5@@QBE_NXZ 1205f100 f   ReaderMgr.obj
 0001:0005e130       ?pushReader@ReaderMgr@xercesc_2_5@@QAE_NQAVXMLReader@2@QAVXMLEntityDecl@2@@Z 1205f130 f   ReaderMgr.obj
 0001:0005e3a0       ?reset@ReaderMgr@xercesc_2_5@@QAEXXZ 1205f3a0 f   ReaderMgr.obj
 0001:0005e3f0       ?getPublicId@ReaderMgr@xercesc_2_5@@UBEPBGXZ 1205f3f0 f   ReaderMgr.obj
 0001:0005e420       ?getSystemId@ReaderMgr@xercesc_2_5@@UBEPBGXZ 1205f420 f   ReaderMgr.obj
 0001:0005e450       ?getColumnNumber@ReaderMgr@xercesc_2_5@@UBEJXZ 1205f450 f   ReaderMgr.obj
 0001:0005e480       ?getLineNumber@ReaderMgr@xercesc_2_5@@UBEJXZ 1205f480 f   ReaderMgr.obj
 0001:0005e4b0       ?getLastExtEntity@ReaderMgr@xercesc_2_5@@ABEPBVXMLReader@2@AAPBVXMLEntityDecl@2@@Z 1205f4b0 f   ReaderMgr.obj
 0001:0005e630       ?popReader@ReaderMgr@xercesc_2_5@@AAE_NXZ 1205f630 f   ReaderMgr.obj
 0001:0005e8c0       ??1?$BaseRefVectorOf@VXMLReader@xercesc_2_5@@@xercesc_2_5@@UAE@XZ 1205f8c0 f i ReaderMgr.obj
 0001:0005e8d0       ?setElementAt@?$BaseRefVectorOf@VXMLReader@xercesc_2_5@@@xercesc_2_5@@UAEXQAVXMLReader@2@I@Z 1205f8d0 f i ReaderMgr.obj
 0001:0005e940       ?removeAllElements@?$BaseRefVectorOf@VXMLReader@xercesc_2_5@@@xercesc_2_5@@UAEXXZ 1205f940 f i ReaderMgr.obj
 0001:0005e9a0       ?removeElementAt@?$BaseRefVectorOf@VXMLReader@xercesc_2_5@@@xercesc_2_5@@UAEXI@Z 1205f9a0 f i ReaderMgr.obj
 0001:0005ea60       ?removeLastElement@?$BaseRefVectorOf@VXMLReader@xercesc_2_5@@@xercesc_2_5@@UAEXXZ 1205fa60 f i ReaderMgr.obj
 0001:0005ea90       ?cleanup@?$BaseRefVectorOf@VXMLReader@xercesc_2_5@@@xercesc_2_5@@UAEXXZ 1205fa90 f i ReaderMgr.obj
 0001:0005eae0       ??1?$BaseRefVectorOf@VXMLEntityDecl@xercesc_2_5@@@xercesc_2_5@@UAE@XZ 1205fae0 f i ReaderMgr.obj
 0001:0005eaf0       ??_G?$RefVectorOf@VXMLReader@xercesc_2_5@@@xercesc_2_5@@UAEPAXI@Z 1205faf0 f i ReaderMgr.obj
 0001:0005eaf0       ??_E?$RefVectorOf@VXMLReader@xercesc_2_5@@@xercesc_2_5@@UAEPAXI@Z 1205faf0 f i ReaderMgr.obj
 0001:0005eb10       ??1?$RefVectorOf@VXMLReader@xercesc_2_5@@@xercesc_2_5@@UAE@XZ 1205fb10 f i ReaderMgr.obj
 0001:0005eba0       ??_E?$RefVectorOf@VXMLEntityDecl@xercesc_2_5@@@xercesc_2_5@@UAEPAXI@Z 1205fba0 f i ReaderMgr.obj
 0001:0005eba0       ??_G?$RefVectorOf@VXMLEntityDecl@xercesc_2_5@@@xercesc_2_5@@UAEPAXI@Z 1205fba0 f i ReaderMgr.obj
 0001:0005ebc0       ??1?$RefVectorOf@VXMLEntityDecl@xercesc_2_5@@@xercesc_2_5@@UAE@XZ 1205fbc0 f i ReaderMgr.obj
 0001:0005ec40       ?elementAt@?$BaseRefVectorOf@VXMLEntityDecl@xercesc_2_5@@@xercesc_2_5@@QBEPBVXMLEntityDecl@2@I@Z 1205fc40 f i ReaderMgr.obj
 0001:0005ec90       ??0?$BaseRefVectorOf@VXMLReader@xercesc_2_5@@@xercesc_2_5@@QAE@I_NQAVMemoryManager@1@@Z 1205fc90 f i ReaderMgr.obj
 0001:0005ecf0       ??0?$BaseRefVectorOf@VXMLEntityDecl@xercesc_2_5@@@xercesc_2_5@@QAE@I_NQAVMemoryManager@1@@Z 1205fcf0 f i ReaderMgr.obj
 0001:0005ed50       ?getName@SGXMLScanner@xercesc_2_5@@UBEPBGXZ 1205fd50 f i SGXMLScanner.obj
 0001:0005ed60       ??0SGXMLScanner@xercesc_2_5@@QAE@QAVXMLValidator@1@QAVGrammarResolver@1@QAVMemoryManager@1@@Z 1205fd60 f   SGXMLScanner.obj
 0001:0005eef0       ??_ESGXMLScanner@xercesc_2_5@@UAEPAXI@Z 1205fef0 f i SGXMLScanner.obj
 0001:0005ef50       ??0SGXMLScanner@xercesc_2_5@@QAE@QAVXMLDocumentHandler@1@QAVDocTypeHandler@1@QAVXMLEntityHandler@1@QAVXMLErrorReporter@1@QAVXMLValidator@1@QAVGrammarResolver@1@QAVMemoryManager@1@@Z 1205ff50 f   SGXMLScanner.obj
 0001:0005f0f0       ??1SGXMLScanner@xercesc_2_5@@UAE@XZ 120600f0 f   SGXMLScanner.obj
 0001:0005f160       ?scanDocument@SGXMLScanner@xercesc_2_5@@UAEXABVInputSource@2@@Z 12060160 f   SGXMLScanner.obj
 0001:0005f330       ?scanNext@SGXMLScanner@xercesc_2_5@@UAE_NAAVXMLPScanToken@2@@Z 12060330 f   SGXMLScanner.obj
 0001:0005f680       ?rawAttrScan@SGXMLScanner@xercesc_2_5@@AAEIQBGAAV?$RefVectorOf@VKVStringPair@xercesc_2_5@@@2@AA_N@Z 12060680 f   SGXMLScanner.obj
 0001:0005fbb0       ?scanContent@SGXMLScanner@xercesc_2_5@@AAE_NXZ 12060bb0 f   SGXMLScanner.obj
 0001:0005fd50       ?scanEndTag@SGXMLScanner@xercesc_2_5@@AAEXAA_N@Z 12060d50 f   SGXMLScanner.obj
 0001:00060870       ?scanDocTypeDecl@SGXMLScanner@xercesc_2_5@@EAEXXZ 12061870 f   SGXMLScanner.obj
 0001:000608b0       ?scanStartTag@SGXMLScanner@xercesc_2_5@@AAE_NAA_N@Z 120618b0 f   SGXMLScanner.obj
 0001:00062590       ?resolveQName@WFXMLScanner@xercesc_2_5@@UAEIQBGAAVXMLBuffer@2@FAAH@Z 12063590 f   SGXMLScanner.obj
 0001:00062590       ?resolveQName@IGXMLScanner@xercesc_2_5@@UAEIQBGAAVXMLBuffer@2@FAAH@Z 12063590 f   SGXMLScanner.obj
 0001:00062590       ?resolveQName@DGXMLScanner@xercesc_2_5@@UAEIQBGAAVXMLBuffer@2@FAAH@Z 12063590 f   SGXMLScanner.obj
 0001:00062590       ?resolveQName@SGXMLScanner@xercesc_2_5@@UAEIQBGAAVXMLBuffer@2@FAAH@Z 12063590 f   SGXMLScanner.obj
 0001:00062720       ?loadGrammar@SGXMLScanner@xercesc_2_5@@UAEPAVGrammar@2@ABVInputSource@2@F_N@Z 12063720 f   SGXMLScanner.obj
 0001:000628c0       ?commonInit@SGXMLScanner@xercesc_2_5@@AAEXXZ 120638c0 f   SGXMLScanner.obj
 0001:00062fa0       ?cleanUp@SGXMLScanner@xercesc_2_5@@AAEXXZ 12063fa0 f   SGXMLScanner.obj
 0001:00063180       ?resizeElemState@IGXMLScanner@xercesc_2_5@@AAEXXZ 12064180 f   SGXMLScanner.obj
 0001:00063180       ?resizeElemState@SGXMLScanner@xercesc_2_5@@AAEXXZ 12064180 f   SGXMLScanner.obj
 0001:00063200       ?buildAttList@SGXMLScanner@xercesc_2_5@@AAEIABV?$RefVectorOf@VKVStringPair@xercesc_2_5@@@2@IPAVXMLElementDecl@2@AAV?$RefVectorOf@VXMLAttr@xercesc_2_5@@@2@@Z 12064200 f   SGXMLScanner.obj
 0001:00064a30       ?normalizeAttValue@SGXMLScanner@xercesc_2_5@@AAE_NQBVXMLAttDef@2@QBG1AAVXMLBuffer@2@@Z 12065a30 f   SGXMLScanner.obj
 0001:00064cd0       ?resolvePrefix@DGXMLScanner@xercesc_2_5@@AAEIQBGW4MapModes@ElemStack@2@@Z 12065cd0 f   SGXMLScanner.obj
 0001:00064cd0       ?resolvePrefix@WFXMLScanner@xercesc_2_5@@AAEIQBGW4MapModes@ElemStack@2@@Z 12065cd0 f   SGXMLScanner.obj
 0001:00064cd0       ?resolvePrefix@SGXMLScanner@xercesc_2_5@@AAEIQBGW4MapModes@ElemStack@2@@Z 12065cd0 f   SGXMLScanner.obj
 0001:00064cd0       ?resolvePrefix@IGXMLScanner@xercesc_2_5@@AAEIQBGW4MapModes@ElemStack@2@@Z 12065cd0 f   SGXMLScanner.obj
 0001:00064dc0       ?resolvePrefix@IGXMLScanner@xercesc_2_5@@AAEIQBGAAVXMLBuffer@2@W4MapModes@ElemStack@2@@Z 12065dc0 f   SGXMLScanner.obj
 0001:00064dc0       ?resolvePrefix@SGXMLScanner@xercesc_2_5@@AAEIQBGAAVXMLBuffer@2@W4MapModes@ElemStack@2@@Z 12065dc0 f   SGXMLScanner.obj
 0001:00064ec0       ?scanReset@SGXMLScanner@xercesc_2_5@@EAEXABVInputSource@2@@Z 12065ec0 f   SGXMLScanner.obj
 0001:00065340       ?sendCharData@SGXMLScanner@xercesc_2_5@@EAEXAAVXMLBuffer@2@@Z 12066340 f   SGXMLScanner.obj
 0001:00065750       ?updateNSMap@SGXMLScanner@xercesc_2_5@@AAEXQBG0@Z 12066750 f   SGXMLScanner.obj
 0001:00065a40       ?scanRawAttrListforNameSpaces@SGXMLScanner@xercesc_2_5@@AAEXH@Z 12066a40 f   SGXMLScanner.obj
 0001:00065fa0       ?parseSchemaLocation@SGXMLScanner@xercesc_2_5@@AAEXQBG@Z 12066fa0 f   SGXMLScanner.obj
 0001:00066110       ?resolveSchemaGrammar@SGXMLScanner@xercesc_2_5@@AAEXQBG0@Z 12067110 f   SGXMLScanner.obj
 0001:00066800       ?resolveSystemId@SGXMLScanner@xercesc_2_5@@AAEPAVInputSource@2@QBG@Z 12067800 f   SGXMLScanner.obj
 0001:00066ac0       ?loadXMLSchemaGrammar@SGXMLScanner@xercesc_2_5@@AAEPAVGrammar@2@ABVInputSource@2@_N@Z 12067ac0 f   SGXMLScanner.obj
 0001:00066d40       ?basicAttrValueScan@SGXMLScanner@xercesc_2_5@@AAE_NQBGAAVXMLBuffer@2@@Z 12067d40 f   SGXMLScanner.obj
 0001:00066fe0       ?scanCDSection@SGXMLScanner@xercesc_2_5@@EAEXXZ 12067fe0 f   SGXMLScanner.obj
 0001:000673a0       ?scanCharData@SGXMLScanner@xercesc_2_5@@EAEXAAVXMLBuffer@2@@Z 120683a0 f   SGXMLScanner.obj
 0001:00067770       ?scanEntityRef@SGXMLScanner@xercesc_2_5@@EAE?AW4EntityExpRes@XMLScanner@2@_NAAG1AA_N@Z 12068770 f   SGXMLScanner.obj
 0001:00067aa0       ?switchGrammar@SGXMLScanner@xercesc_2_5@@AAE_NQBG@Z 12068aa0 f   SGXMLScanner.obj
 0001:00067b30       ?laxElementValidation@SGXMLScanner@xercesc_2_5@@AAE_NPAVQName@2@PAVContentLeafNameTypeVector@2@QBVXMLContentModel@2@I@Z 12068b30 f   SGXMLScanner.obj
 0001:00067d60       ?anyAttributeValidation@SGXMLScanner@xercesc_2_5@@AAE_NPAVSchemaAttDef@2@IAA_N1@Z 12068d60 f   SGXMLScanner.obj
 0001:00067e60       ?normalizeURI@IGXMLScanner@xercesc_2_5@@AAEXQBGAAVXMLBuffer@2@@Z 12068e60 f   SGXMLScanner.obj
 0001:00067e60       ?normalizeURI@SGXMLScanner@xercesc_2_5@@AAEXQBGAAVXMLBuffer@2@@Z 12068e60 f   SGXMLScanner.obj
 0001:00067ef0       ?endElementPSVI@SGXMLScanner@xercesc_2_5@@AAEXQAVSchemaElementDecl@2@QAVDatatypeValidator@2@@Z 12068ef0 f   SGXMLScanner.obj
 0001:000680b0       ?resetPSVIElemContext@SGXMLScanner@xercesc_2_5@@AAEXXZ 120690b0 f   SGXMLScanner.obj
 0001:000680f0       ?addElement@?$BaseRefVectorOf@VXSObject@xercesc_2_5@@@xercesc_2_5@@QAEXQAVXSObject@2@@Z 120690f0 f i SGXMLScanner.obj
 0001:000680f0       ?addElement@?$BaseRefVectorOf@VFieldValueMap@xercesc_2_5@@@xercesc_2_5@@QAEXQAVFieldValueMap@2@@Z 120690f0 f i SGXMLScanner.obj
 0001:000680f0       ?addElement@?$BaseRefVectorOf@VXSAnnotation@xercesc_2_5@@@xercesc_2_5@@QAEXQAVXSAnnotation@2@@Z 120690f0 f i SGXMLScanner.obj
 0001:000680f0       ?addElement@?$BaseRefVectorOf@VIC_Field@xercesc_2_5@@@xercesc_2_5@@QAEXQAVIC_Field@2@@Z 120690f0 f i SGXMLScanner.obj
 0001:000680f0       ?addElement@?$BaseRefVectorOf@VSchemaInfo@xercesc_2_5@@@xercesc_2_5@@QAEXQAVSchemaInfo@2@@Z 120690f0 f i SGXMLScanner.obj
 0001:000680f0       ?addElement@?$BaseRefVectorOf@VXMLNumber@xercesc_2_5@@@xercesc_2_5@@QAEXQAVXMLNumber@2@@Z 120690f0 f i SGXMLScanner.obj
 0001:000680f0       ?addElement@?$BaseRefVectorOf@VXPathMatcher@xercesc_2_5@@@xercesc_2_5@@QAEXQAVXPathMatcher@2@@Z 120690f0 f i SGXMLScanner.obj
 0001:000680f0       ?addElement@?$BaseRefVectorOf@VSchemaAttDef@xercesc_2_5@@@xercesc_2_5@@QAEXQAVSchemaAttDef@2@@Z 120690f0 f i SGXMLScanner.obj
 0001:000680f0       ?addElement@?$BaseRefVectorOf@VIdentityConstraint@xercesc_2_5@@@xercesc_2_5@@QAEXQAVIdentityConstraint@2@@Z 120690f0 f i SGXMLScanner.obj
 0001:000680f0       ?addElement@?$BaseRefVectorOf@G@xercesc_2_5@@QAEXQAG@Z 120690f0 f i SGXMLScanner.obj
 0001:00068170       ??0?$RefHash2KeysTableOf@I@xercesc_2_5@@QAE@I_NPAVHashBase@1@QAVMemoryManager@1@@Z 12069170 f i SGXMLScanner.obj
 0001:00068200       ??0?$RefHashTableOf@I@xercesc_2_5@@QAE@I_NPAVHashBase@1@QAVMemoryManager@1@@Z 12069200 f i SGXMLScanner.obj
 0001:000682a0       ??1?$ArrayJanitor@V?$BaseRefVectorOf@G@xercesc_2_5@@@xercesc_2_5@@QAE@XZ 120692a0 f i SGXMLScanner.obj
 0001:000682e0       ??0?$ValueHashTableBucketElem@G@xercesc_2_5@@QAE@PAXABGPAU01@@Z 120692e0 f i SGXMLScanner.obj
 0001:00068300       ?removeAll@?$RefHash3KeysIdPool@VSchemaElementDecl@xercesc_2_5@@@xercesc_2_5@@QAEXXZ 12069300 f i SGXMLScanner.obj
 0001:00068370       ?removeAll@?$ValueHashTableOf@G@xercesc_2_5@@QAEXXZ 12069370 f i SGXMLScanner.obj
 0001:000683b0       ?findBucketElem@?$ValueHashTableOf@G@xercesc_2_5@@ABEPBU?$ValueHashTableBucketElem@G@2@QBXAAI@Z 120693b0 f i SGXMLScanner.obj
 0001:00068440       ??_FValidationContextImpl@xercesc_2_5@@QAEXXZ 12069440 f i ValidationContextImpl.obj
 0001:00068450       ??0InvalidDatatypeValueException@xercesc_2_5@@QAE@QBDIW4Codes@XMLExcepts@1@PAVMemoryManager@1@@Z 12069450 f i ValidationContextImpl.obj
 0001:000684c0       ??0InvalidDatatypeValueException@xercesc_2_5@@QAE@ABV01@@Z 120694c0 f i ValidationContextImpl.obj
 0001:000684e0       ??0InvalidDatatypeValueException@xercesc_2_5@@QAE@QBDIW4Codes@XMLExcepts@1@QBG222PAVMemoryManager@1@@Z 120694e0 f i ValidationContextImpl.obj
 0001:00068560       ??0InvalidDatatypeValueException@xercesc_2_5@@QAE@QBDIW4Codes@XMLExcepts@1@0000PAVMemoryManager@1@@Z 12069560 f i ValidationContextImpl.obj
 0001:000685e0       ??1InvalidDatatypeValueException@xercesc_2_5@@UAE@XZ 120695e0 f i ValidationContextImpl.obj
 0001:000685f0       ?duplicate@InvalidDatatypeValueException@xercesc_2_5@@UBEPAVXMLException@2@XZ 120695f0 f i ValidationContextImpl.obj
 0001:00068650       ?getType@InvalidDatatypeValueException@xercesc_2_5@@UBEPBGXZ 12069650 f i ValidationContextImpl.obj
 0001:00068660       ??_EInvalidDatatypeValueException@xercesc_2_5@@UAEPAXI@Z 12069660 f i ValidationContextImpl.obj
 0001:000686c0       ??1ValidationContextImpl@xercesc_2_5@@UAE@XZ 120696c0 f   ValidationContextImpl.obj
 0001:00068790       ??_EValidationContextImpl@xercesc_2_5@@UAEPAXI@Z 12069790 f i ValidationContextImpl.obj
 0001:000687f0       ??0ValidationContextImpl@xercesc_2_5@@QAE@QAVMemoryManager@1@@Z 120697f0 f   ValidationContextImpl.obj
 0001:000688e0       ?setIdRefList@ValidationContextImpl@xercesc_2_5@@UAEXQAV?$RefHashTableOf@VXMLRefInfo@xercesc_2_5@@@2@@Z 120698e0 f   ValidationContextImpl.obj
 0001:00068990       ?clearIdRefList@ValidationContextImpl@xercesc_2_5@@UAEXXZ 12069990 f   ValidationContextImpl.obj
 0001:00068a00       ?addId@ValidationContextImpl@xercesc_2_5@@UAEXQBG@Z 12069a00 f   ValidationContextImpl.obj
 0001:00068c40       ?addIdRef@ValidationContextImpl@xercesc_2_5@@UAEXQBG@Z 12069c40 f   ValidationContextImpl.obj
 0001:00068e20       ?toCheckIdRefList@ValidationContextImpl@xercesc_2_5@@UAEX_N@Z 12069e20 f   ValidationContextImpl.obj
 0001:00068e30       ?setEntityDeclPool@ValidationContextImpl@xercesc_2_5@@UAEPBV?$NameIdPool@VDTDEntityDecl@xercesc_2_5@@@2@QBV32@@Z 12069e30 f   ValidationContextImpl.obj
 0001:00068e40       ?checkEntity@ValidationContextImpl@xercesc_2_5@@UBEXQBG@Z 12069e40 f   ValidationContextImpl.obj
 0001:00068f70       ??0VecAttributesImpl@xercesc_2_5@@QAE@XZ 12069f70 f   VecAttributesImpl.obj
 0001:00068f90       ??_EVecAttributesImpl@xercesc_2_5@@UAEPAXI@Z 12069f90 f i VecAttributesImpl.obj
 0001:00068ff0       ??1VecAttributesImpl@xercesc_2_5@@UAE@XZ 12069ff0 f   VecAttributesImpl.obj
 0001:00069050       ?getURI@VecAttributesImpl@xercesc_2_5@@UBEPBGI@Z 1206a050 f   VecAttributesImpl.obj
 0001:000690c0       ?getLocalName@VecAttributesImpl@xercesc_2_5@@UBEPBGI@Z 1206a0c0 f   VecAttributesImpl.obj
 0001:00069120       ?getName@VecAttrListImpl@xercesc_2_5@@UBEPBGI@Z 1206a120 f   VecAttributesImpl.obj
 0001:00069120       ?getQName@VecAttributesImpl@xercesc_2_5@@UBEPBGI@Z 1206a120 f   VecAttributesImpl.obj
 0001:00069180       ?getType@VecAttributesImpl@xercesc_2_5@@UBEPBGI@Z 1206a180 f   VecAttributesImpl.obj
 0001:00069180       ?getType@VecAttrListImpl@xercesc_2_5@@UBEPBGI@Z 1206a180 f   VecAttributesImpl.obj
 0001:000691f0       ?getValue@VecAttributesImpl@xercesc_2_5@@UBEPBGI@Z 1206a1f0 f   VecAttributesImpl.obj
 0001:000691f0       ?getValue@VecAttrListImpl@xercesc_2_5@@UBEPBGI@Z 1206a1f0 f   VecAttributesImpl.obj
 0001:00069250       ?getIndex@VecAttributesImpl@xercesc_2_5@@UBEHQBG0@Z 1206a250 f   VecAttributesImpl.obj
 0001:00069410       ?getIndex@VecAttributesImpl@xercesc_2_5@@UBEHQBG@Z 1206a410 f   VecAttributesImpl.obj
 0001:000694c0       ?getType@VecAttributesImpl@xercesc_2_5@@UBEPBGQBG0@Z 1206a4c0 f   VecAttributesImpl.obj
 0001:000694f0       ?getType@VecAttributesImpl@xercesc_2_5@@UBEPBGQBG@Z 1206a4f0 f   VecAttributesImpl.obj
 0001:00069520       ?getValue@VecAttributesImpl@xercesc_2_5@@UBEPBGQBG0@Z 1206a520 f   VecAttributesImpl.obj
 0001:00069550       ?getValue@VecAttributesImpl@xercesc_2_5@@UBEPBGQBG@Z 1206a550 f   VecAttributesImpl.obj
 0001:00069580       ?setVector@VecAttributesImpl@xercesc_2_5@@QAEXQBV?$RefVectorOf@VXMLAttr@xercesc_2_5@@@2@IQBVXMLScanner@2@_N@Z 1206a580 f   VecAttributesImpl.obj
 0001:000695c0       ??0VecAttrListImpl@xercesc_2_5@@QAE@XZ 1206a5c0 f   VecAttrListImpl.obj
 0001:000695e0       ??_EVecAttrListImpl@xercesc_2_5@@UAEPAXI@Z 1206a5e0 f i VecAttrListImpl.obj
 0001:00069640       ??1VecAttrListImpl@xercesc_2_5@@UAE@XZ 1206a640 f   VecAttrListImpl.obj
 0001:000696a0       ?getType@VecAttrListImpl@xercesc_2_5@@UBEPBGQBG@Z 1206a6a0 f   VecAttrListImpl.obj
 0001:00069770       ?getValue@VecAttrListImpl@xercesc_2_5@@UBEPBGQBG@Z 1206a770 f   VecAttrListImpl.obj
 0001:00069830       ?getValue@VecAttrListImpl@xercesc_2_5@@UBEPBGQBD@Z 1206a830 f   VecAttrListImpl.obj
 0001:00069990       ?setVector@VecAttrListImpl@xercesc_2_5@@QAEXQBV?$RefVectorOf@VXMLAttr@xercesc_2_5@@@2@I_N@Z 1206a990 f   VecAttrListImpl.obj
 0001:000699c0       ?getName@WFXMLScanner@xercesc_2_5@@UBEPBGXZ 1206a9c0 f i WFXMLScanner.obj
 0001:000699d0       ??0WFXMLScanner@xercesc_2_5@@QAE@QAVXMLValidator@1@QAVGrammarResolver@1@QAVMemoryManager@1@@Z 1206a9d0 f   WFXMLScanner.obj
 0001:00069bd0       ??_EWFXMLScanner@xercesc_2_5@@UAEPAXI@Z 1206abd0 f i WFXMLScanner.obj
 0001:00069c30       ??0WFXMLScanner@xercesc_2_5@@QAE@QAVXMLDocumentHandler@1@QAVDocTypeHandler@1@QAVXMLEntityHandler@1@QAVXMLErrorReporter@1@QAVXMLValidator@1@QAVGrammarResolver@1@QAVMemoryManager@1@@Z 1206ac30 f   WFXMLScanner.obj
 0001:00069e40       ??1WFXMLScanner@xercesc_2_5@@UAE@XZ 1206ae40 f   WFXMLScanner.obj
 0001:00069fe0       ?scanDocument@WFXMLScanner@xercesc_2_5@@UAEXABVInputSource@2@@Z 1206afe0 f   WFXMLScanner.obj
 0001:0006a1a0       ?scanNext@WFXMLScanner@xercesc_2_5@@UAE_NAAVXMLPScanToken@2@@Z 1206b1a0 f   WFXMLScanner.obj
 0001:0006a4f0       ?commonInit@WFXMLScanner@xercesc_2_5@@AAEXXZ 1206b4f0 f   WFXMLScanner.obj
 0001:0006a890       ?cleanUp@WFXMLScanner@xercesc_2_5@@AAEXXZ 1206b890 f   WFXMLScanner.obj
 0001:0006aa00       ?scanReset@WFXMLScanner@xercesc_2_5@@EAEXABVInputSource@2@@Z 1206ba00 f   WFXMLScanner.obj
 0001:0006ab70       ?sendCharData@WFXMLScanner@xercesc_2_5@@EAEXAAVXMLBuffer@2@@Z 1206bb70 f   WFXMLScanner.obj
 0001:0006abb0       ?scanContent@WFXMLScanner@xercesc_2_5@@AAE_NXZ 1206bbb0 f   WFXMLScanner.obj
 0001:0006ad60       ?scanEndTag@WFXMLScanner@xercesc_2_5@@AAEXAA_N@Z 1206bd60 f   WFXMLScanner.obj
 0001:0006aee0       ?scanDocTypeDecl@WFXMLScanner@xercesc_2_5@@EAEXXZ 1206bee0 f   WFXMLScanner.obj
 0001:0006af20       ?scanStartTag@WFXMLScanner@xercesc_2_5@@AAE_NAA_N@Z 1206bf20 f   WFXMLScanner.obj
 0001:0006b8c0       ?scanStartTagNS@WFXMLScanner@xercesc_2_5@@AAE_NAA_N@Z 1206c8c0 f   WFXMLScanner.obj
 0001:0006c890       ?scanAttValue@WFXMLScanner@xercesc_2_5@@AAE_NQBGAAVXMLBuffer@2@@Z 1206d890 f   WFXMLScanner.obj
 0001:0006cb40       ?scanCDSection@WFXMLScanner@xercesc_2_5@@EAEXXZ 1206db40 f   WFXMLScanner.obj
 0001:0006cd70       ?scanCharData@WFXMLScanner@xercesc_2_5@@EAEXAAVXMLBuffer@2@@Z 1206dd70 f   WFXMLScanner.obj
 0001:0006d040       ?scanEntityRef@WFXMLScanner@xercesc_2_5@@EAE?AW4EntityExpRes@XMLScanner@2@_NAAG1AA_N@Z 1206e040 f   WFXMLScanner.obj
 0001:0006d370       ?loadGrammar@WFXMLScanner@xercesc_2_5@@UAEPAVGrammar@2@ABVInputSource@2@F_N@Z 1206e370 f   WFXMLScanner.obj
 0001:0006d380       ?put@?$ValueHashTableOf@G@xercesc_2_5@@QAEXPAXABG@Z 1206e380 f i WFXMLScanner.obj
 0001:0006d480       ?removeAllElements@?$BaseRefVectorOf@VOp@xercesc_2_5@@@xercesc_2_5@@UAEXXZ 1206e480 f i WFXMLScanner.obj
 0001:0006d480       ?removeAllElements@?$BaseRefVectorOf@VSchemaAttDef@xercesc_2_5@@@xercesc_2_5@@UAEXXZ 1206e480 f i WFXMLScanner.obj
 0001:0006d480       ?removeAllElements@?$BaseRefVectorOf@VXercesStep@xercesc_2_5@@@xercesc_2_5@@UAEXXZ 1206e480 f i WFXMLScanner.obj
 0001:0006d480       ?removeAllElements@?$BaseRefVectorOf@VXSFacet@xercesc_2_5@@@xercesc_2_5@@UAEXXZ 1206e480 f i WFXMLScanner.obj
 0001:0006d480       ?removeAllElements@?$BaseRefVectorOf@VTreeWalkerImpl@xercesc_2_5@@@xercesc_2_5@@UAEXXZ 1206e480 f i WFXMLScanner.obj
 0001:0006d480       ?removeAllElements@?$BaseRefVectorOf@VXSObject@xercesc_2_5@@@xercesc_2_5@@UAEXXZ 1206e480 f i WFXMLScanner.obj
 0001:0006d480       ?removeAllElements@?$BaseRefVectorOf@VXSAnnotation@xercesc_2_5@@@xercesc_2_5@@UAEXXZ 1206e480 f i WFXMLScanner.obj
 0001:0006d480       ?removeAllElements@?$BaseRefVectorOf@VXSAttributeDeclaration@xercesc_2_5@@@xercesc_2_5@@UAEXXZ 1206e480 f i WFXMLScanner.obj
 0001:0006d480       ?removeAllElements@?$BaseRefVectorOf@VDOMNodeIteratorImpl@xercesc_2_5@@@xercesc_2_5@@UAEXXZ 1206e480 f i WFXMLScanner.obj
 0001:0006d480       ?removeAllElements@?$BaseRefVectorOf@VPSVIAttribute@xercesc_2_5@@@xercesc_2_5@@UAEXXZ 1206e480 f i WFXMLScanner.obj
 0001:0006d480       ?removeAllElements@?$BaseRefVectorOf@VDOMRangeImpl@xercesc_2_5@@@xercesc_2_5@@UAEXXZ 1206e480 f i WFXMLScanner.obj
 0001:0006d480       ?removeAllElements@?$BaseRefVectorOf@VToken@xercesc_2_5@@@xercesc_2_5@@UAEXXZ 1206e480 f i WFXMLScanner.obj
 0001:0006d480       ?removeAllElements@?$BaseRefVectorOf@VXSMultiValueFacet@xercesc_2_5@@@xercesc_2_5@@UAEXXZ 1206e480 f i WFXMLScanner.obj
 0001:0006d480       ?removeAllElements@?$BaseRefVectorOf@VMatch@xercesc_2_5@@@xercesc_2_5@@UAEXXZ 1206e480 f i WFXMLScanner.obj
 0001:0006d480       ?removeAllElements@?$BaseRefVectorOf@VXMLEntityDecl@xercesc_2_5@@@xercesc_2_5@@UAEXXZ 1206e480 f i WFXMLScanner.obj
 0001:0006d480       ?removeAllElements@?$BaseRefVectorOf@VSchemaElementDecl@xercesc_2_5@@@xercesc_2_5@@UAEXXZ 1206e480 f i WFXMLScanner.obj
 0001:0006d480       ?removeAllElements@?$BaseRefVectorOf@VIdentityConstraint@xercesc_2_5@@@xercesc_2_5@@UAEXXZ 1206e480 f i WFXMLScanner.obj
 0001:0006d480       ?removeAllElements@?$BaseRefVectorOf@VIC_Field@xercesc_2_5@@@xercesc_2_5@@UAEXXZ 1206e480 f i WFXMLScanner.obj
 0001:0006d480       ?removeAllElements@?$BaseRefVectorOf@VXMLNumber@xercesc_2_5@@@xercesc_2_5@@UAEXXZ 1206e480 f i WFXMLScanner.obj
 0001:0006d480       ?removeAllElements@?$BaseRefVectorOf@VXSSimpleTypeDefinition@xercesc_2_5@@@xercesc_2_5@@UAEXXZ 1206e480 f i WFXMLScanner.obj
 0001:0006d480       ?removeAllElements@?$BaseRefVectorOf@VXercesLocationPath@xercesc_2_5@@@xercesc_2_5@@UAEXXZ 1206e480 f i WFXMLScanner.obj
 0001:0006d480       ?removeAllElements@?$BaseRefVectorOf@VKVStringPair@xercesc_2_5@@@xercesc_2_5@@UAEXXZ 1206e480 f i WFXMLScanner.obj
 0001:0006d480       ?removeAllElements@?$BaseRefVectorOf@VXSElementDeclaration@xercesc_2_5@@@xercesc_2_5@@UAEXXZ 1206e480 f i WFXMLScanner.obj
 0001:0006d480       ?removeAllElements@?$BaseRefVectorOf@VContentSpecNode@xercesc_2_5@@@xercesc_2_5@@UAEXXZ 1206e480 f i WFXMLScanner.obj
 0001:0006d480       ?removeAllElements@?$BaseRefVectorOf@VDOMDocumentImpl@xercesc_2_5@@@xercesc_2_5@@UAEXXZ 1206e480 f i WFXMLScanner.obj
 0001:0006d480       ?removeAllElements@?$BaseRefVectorOf@VXSParticle@xercesc_2_5@@@xercesc_2_5@@UAEXXZ 1206e480 f i WFXMLScanner.obj
 0001:0006d480       ?removeAllElements@?$BaseRefVectorOf@VXPathMatcher@xercesc_2_5@@@xercesc_2_5@@UAEXXZ 1206e480 f i WFXMLScanner.obj
 0001:0006d480       ?removeAllElements@?$BaseRefVectorOf@VNodeImpl@xercesc_2_5@@@xercesc_2_5@@UAEXXZ 1206e480 f i WFXMLScanner.obj
 0001:0006d480       ?removeAllElements@?$BaseRefVectorOf@VXSIDCDefinition@xercesc_2_5@@@xercesc_2_5@@UAEXXZ 1206e480 f i WFXMLScanner.obj
 0001:0006d480       ?removeAllElements@?$BaseRefVectorOf@VNodeIteratorImpl@xercesc_2_5@@@xercesc_2_5@@UAEXXZ 1206e480 f i WFXMLScanner.obj
 0001:0006d480       ?removeAllElements@?$BaseRefVectorOf@VDatatypeValidator@xercesc_2_5@@@xercesc_2_5@@UAEXXZ 1206e480 f i WFXMLScanner.obj
 0001:0006d480       ?removeAllElements@?$BaseRefVectorOf@VRangeImpl@xercesc_2_5@@@xercesc_2_5@@UAEXXZ 1206e480 f i WFXMLScanner.obj
 0001:0006d480       ?removeAllElements@?$BaseRefVectorOf@VDOMNode@xercesc_2_5@@@xercesc_2_5@@UAEXXZ 1206e480 f i WFXMLScanner.obj
 0001:0006d480       ?removeAllElements@?$BaseRefVectorOf@VDOMImplementationSource@xercesc_2_5@@@xercesc_2_5@@UAEXXZ 1206e480 f i WFXMLScanner.obj
 0001:0006d480       ?removeAllElements@?$BaseRefVectorOf@VXMLElementDecl@xercesc_2_5@@@xercesc_2_5@@UAEXXZ 1206e480 f i WFXMLScanner.obj
 0001:0006d480       ?removeAllElements@?$BaseRefVectorOf@VENameMap@xercesc_2_5@@@xercesc_2_5@@UAEXXZ 1206e480 f i WFXMLScanner.obj
 0001:0006d480       ?removeAllElements@?$BaseRefVectorOf@VXSAttributeUse@xercesc_2_5@@@xercesc_2_5@@UAEXXZ 1206e480 f i WFXMLScanner.obj
 0001:0006d4c0       ?cleanup@?$BaseRefVectorOf@VNodeImpl@xercesc_2_5@@@xercesc_2_5@@UAEXXZ 1206e4c0 f i WFXMLScanner.obj
 0001:0006d4c0       ?cleanup@?$BaseRefVectorOf@VDOMImplementationSource@xercesc_2_5@@@xercesc_2_5@@UAEXXZ 1206e4c0 f i WFXMLScanner.obj
 0001:0006d4c0       ?cleanup@?$BaseRefVectorOf@VXercesLocationPath@xercesc_2_5@@@xercesc_2_5@@UAEXXZ 1206e4c0 f i WFXMLScanner.obj
 0001:0006d4c0       ?cleanup@?$BaseRefVectorOf@VXSFacet@xercesc_2_5@@@xercesc_2_5@@UAEXXZ 1206e4c0 f i WFXMLScanner.obj
 0001:0006d4c0       ?cleanup@?$BaseRefVectorOf@VXSAttributeUse@xercesc_2_5@@@xercesc_2_5@@UAEXXZ 1206e4c0 f i WFXMLScanner.obj
 0001:0006d4c0       ?cleanup@?$BaseRefVectorOf@VXMLElementDecl@xercesc_2_5@@@xercesc_2_5@@UAEXXZ 1206e4c0 f i WFXMLScanner.obj
 0001:0006d4c0       ?cleanup@?$BaseRefVectorOf@VIdentityConstraint@xercesc_2_5@@@xercesc_2_5@@UAEXXZ 1206e4c0 f i WFXMLScanner.obj
 0001:0006d4c0       ?cleanup@?$BaseRefVectorOf@VDOMRangeImpl@xercesc_2_5@@@xercesc_2_5@@UAEXXZ 1206e4c0 f i WFXMLScanner.obj
 0001:0006d4c0       ?cleanup@?$BaseRefVectorOf@VDOMNodeIteratorImpl@xercesc_2_5@@@xercesc_2_5@@UAEXXZ 1206e4c0 f i WFXMLScanner.obj
 0001:0006d4c0       ?cleanup@?$BaseRefVectorOf@VOp@xercesc_2_5@@@xercesc_2_5@@UAEXXZ 1206e4c0 f i WFXMLScanner.obj
 0001:0006d4c0       ?cleanup@?$BaseRefVectorOf@VRangeImpl@xercesc_2_5@@@xercesc_2_5@@UAEXXZ 1206e4c0 f i WFXMLScanner.obj
 0001:0006d4c0       ?cleanup@?$BaseRefVectorOf@VTreeWalkerImpl@xercesc_2_5@@@xercesc_2_5@@UAEXXZ 1206e4c0 f i WFXMLScanner.obj
 0001:0006d4c0       ?cleanup@?$BaseRefVectorOf@VXSAnnotation@xercesc_2_5@@@xercesc_2_5@@UAEXXZ 1206e4c0 f i WFXMLScanner.obj
 0001:0006d4c0       ?cleanup@?$BaseRefVectorOf@VXSObject@xercesc_2_5@@@xercesc_2_5@@UAEXXZ 1206e4c0 f i WFXMLScanner.obj
 0001:0006d4c0       ?cleanup@?$BaseRefVectorOf@VMatch@xercesc_2_5@@@xercesc_2_5@@UAEXXZ 1206e4c0 f i WFXMLScanner.obj
 0001:0006d4c0       ?cleanup@?$BaseRefVectorOf@VDOMNode@xercesc_2_5@@@xercesc_2_5@@UAEXXZ 1206e4c0 f i WFXMLScanner.obj
 0001:0006d4c0       ?cleanup@?$BaseRefVectorOf@VKVStringPair@xercesc_2_5@@@xercesc_2_5@@UAEXXZ 1206e4c0 f i WFXMLScanner.obj
 0001:0006d4c0       ?cleanup@?$BaseRefVectorOf@VXSMultiValueFacet@xercesc_2_5@@@xercesc_2_5@@UAEXXZ 1206e4c0 f i WFXMLScanner.obj
 0001:0006d4c0       ?cleanup@?$BaseRefVectorOf@VPSVIAttribute@xercesc_2_5@@@xercesc_2_5@@UAEXXZ 1206e4c0 f i WFXMLScanner.obj
 0001:0006d4c0       ?cleanup@?$BaseRefVectorOf@VXSAttributeDeclaration@xercesc_2_5@@@xercesc_2_5@@UAEXXZ 1206e4c0 f i WFXMLScanner.obj
 0001:0006d4c0       ?cleanup@?$BaseRefVectorOf@VXercesStep@xercesc_2_5@@@xercesc_2_5@@UAEXXZ 1206e4c0 f i WFXMLScanner.obj
 0001:0006d4c0       ?cleanup@?$BaseRefVectorOf@VXSParticle@xercesc_2_5@@@xercesc_2_5@@UAEXXZ 1206e4c0 f i WFXMLScanner.obj
 0001:0006d4c0       ?cleanup@?$BaseRefVectorOf@VXSElementDeclaration@xercesc_2_5@@@xercesc_2_5@@UAEXXZ 1206e4c0 f i WFXMLScanner.obj
 0001:0006d4c0       ?cleanup@?$BaseRefVectorOf@VENameMap@xercesc_2_5@@@xercesc_2_5@@UAEXXZ 1206e4c0 f i WFXMLScanner.obj
 0001:0006d4c0       ?cleanup@?$BaseRefVectorOf@VIC_Field@xercesc_2_5@@@xercesc_2_5@@UAEXXZ 1206e4c0 f i WFXMLScanner.obj
 0001:0006d4c0       ?cleanup@?$BaseRefVectorOf@VSchemaAttDef@xercesc_2_5@@@xercesc_2_5@@UAEXXZ 1206e4c0 f i WFXMLScanner.obj
 0001:0006d4c0       ?cleanup@?$BaseRefVectorOf@VXSIDCDefinition@xercesc_2_5@@@xercesc_2_5@@UAEXXZ 1206e4c0 f i WFXMLScanner.obj
 0001:0006d4c0       ?cleanup@?$BaseRefVectorOf@VXSSimpleTypeDefinition@xercesc_2_5@@@xercesc_2_5@@UAEXXZ 1206e4c0 f i WFXMLScanner.obj
 0001:0006d4c0       ?cleanup@?$BaseRefVectorOf@VSchemaElementDecl@xercesc_2_5@@@xercesc_2_5@@UAEXXZ 1206e4c0 f i WFXMLScanner.obj
 0001:0006d4c0       ?cleanup@?$BaseRefVectorOf@VXMLNumber@xercesc_2_5@@@xercesc_2_5@@UAEXXZ 1206e4c0 f i WFXMLScanner.obj
 0001:0006d4c0       ?cleanup@?$BaseRefVectorOf@VXMLEntityDecl@xercesc_2_5@@@xercesc_2_5@@UAEXXZ 1206e4c0 f i WFXMLScanner.obj
 0001:0006d4c0       ?cleanup@?$BaseRefVectorOf@VDatatypeValidator@xercesc_2_5@@@xercesc_2_5@@UAEXXZ 1206e4c0 f i WFXMLScanner.obj
 0001:0006d4c0       ?cleanup@?$BaseRefVectorOf@VXPathMatcher@xercesc_2_5@@@xercesc_2_5@@UAEXXZ 1206e4c0 f i WFXMLScanner.obj
 0001:0006d4c0       ?cleanup@?$BaseRefVectorOf@VContentSpecNode@xercesc_2_5@@@xercesc_2_5@@UAEXXZ 1206e4c0 f i WFXMLScanner.obj
 0001:0006d4c0       ?cleanup@?$BaseRefVectorOf@VDOMDocumentImpl@xercesc_2_5@@@xercesc_2_5@@UAEXXZ 1206e4c0 f i WFXMLScanner.obj
 0001:0006d4c0       ?cleanup@?$BaseRefVectorOf@VToken@xercesc_2_5@@@xercesc_2_5@@UAEXXZ 1206e4c0 f i WFXMLScanner.obj
 0001:0006d4c0       ?cleanup@?$BaseRefVectorOf@VNodeIteratorImpl@xercesc_2_5@@@xercesc_2_5@@UAEXXZ 1206e4c0 f i WFXMLScanner.obj
 0001:0006d500       ??_E?$RefVectorOf@VXMLElementDecl@xercesc_2_5@@@xercesc_2_5@@UAEPAXI@Z 1206e500 f i WFXMLScanner.obj
 0001:0006d500       ??_G?$RefVectorOf@VXMLElementDecl@xercesc_2_5@@@xercesc_2_5@@UAEPAXI@Z 1206e500 f i WFXMLScanner.obj
 0001:0006d520       ??1?$RefVectorOf@VXMLElementDecl@xercesc_2_5@@@xercesc_2_5@@UAE@XZ 1206e520 f i WFXMLScanner.obj
 0001:0006d5a0       ??1?$BaseRefVectorOf@VXMLElementDecl@xercesc_2_5@@@xercesc_2_5@@UAE@XZ 1206e5a0 f i WFXMLScanner.obj
 0001:0006d5b0       ??0?$BaseRefVectorOf@VXMLElementDecl@xercesc_2_5@@@xercesc_2_5@@QAE@I_NQAVMemoryManager@1@@Z 1206e5b0 f i WFXMLScanner.obj
 0001:0006d610       ??_FXMLDTDDescriptionImpl@xercesc_2_5@@QAEXXZ 1206e610 f i XMLGrammarPoolImpl.obj
 0001:0006d620       ?createXSModel@XMLGrammarPoolImpl@xercesc_2_5@@EAEXXZ 1206e620 f   XMLGrammarPoolImpl.obj
 0001:0006d7f0       ??1XMLGrammarPoolImpl@xercesc_2_5@@UAE@XZ 1206e7f0 f   XMLGrammarPoolImpl.obj
 0001:0006d8e0       ??_EXMLGrammarPoolImpl@xercesc_2_5@@UAEPAXI@Z 1206e8e0 f i XMLGrammarPoolImpl.obj
 0001:0006d940       ??0XMLGrammarPoolImpl@xercesc_2_5@@QAE@QAVMemoryManager@1@@Z 1206e940 f   XMLGrammarPoolImpl.obj
 0001:0006da60       ?cacheGrammar@XMLGrammarPoolImpl@xercesc_2_5@@UAE_NQAVGrammar@2@@Z 1206ea60 f   XMLGrammarPoolImpl.obj
 0001:0006db50       ?retrieveGrammar@XMLGrammarPoolImpl@xercesc_2_5@@UAEPAVGrammar@2@QAVXMLGrammarDescription@2@@Z 1206eb50 f   XMLGrammarPoolImpl.obj
 0001:0006dc00       ?orphanGrammar@XMLGrammarPoolImpl@xercesc_2_5@@UAEPAVGrammar@2@QBG@Z 1206ec00 f   XMLGrammarPoolImpl.obj
 0001:0006dcf0       ?getGrammarEnumerator@XMLGrammarPoolImpl@xercesc_2_5@@UBE?AV?$RefHashTableOfEnumerator@VGrammar@xercesc_2_5@@@2@XZ 1206ecf0 f   XMLGrammarPoolImpl.obj
 0001:0006ddc0       ?clear@XMLGrammarPoolImpl@xercesc_2_5@@UAE_NXZ 1206edc0 f   XMLGrammarPoolImpl.obj
 0001:0006de60       ?lockPool@XMLGrammarPoolImpl@xercesc_2_5@@UAEXXZ 1206ee60 f   XMLGrammarPoolImpl.obj
 0001:0006def0       ?unlockPool@XMLGrammarPoolImpl@xercesc_2_5@@UAEXXZ 1206eef0 f   XMLGrammarPoolImpl.obj
 0001:0006df40       ?createDTDGrammar@XMLGrammarPoolImpl@xercesc_2_5@@UAEPAVDTDGrammar@2@XZ 1206ef40 f   XMLGrammarPoolImpl.obj
 0001:0006dfb0       ?createSchemaGrammar@XMLGrammarPoolImpl@xercesc_2_5@@UAEPAVSchemaGrammar@2@XZ 1206efb0 f   XMLGrammarPoolImpl.obj
 0001:0006e020       ?createDTDDescription@XMLGrammarPoolImpl@xercesc_2_5@@UAEPAVXMLDTDDescription@2@QBG@Z 1206f020 f   XMLGrammarPoolImpl.obj
 0001:0006e0a0       ?createSchemaDescription@XMLGrammarPoolImpl@xercesc_2_5@@UAEPAVXMLSchemaDescription@2@QBG@Z 1206f0a0 f   XMLGrammarPoolImpl.obj
 0001:0006e120       ?getXSModel@XMLGrammarPoolImpl@xercesc_2_5@@UAEPAVXSModel@2@XZ 1206f120 f   XMLGrammarPoolImpl.obj
 0001:0006e140       ?getURIStringPool@XMLGrammarPoolImpl@xercesc_2_5@@UAEPAVXMLStringPool@2@XZ 1206f140 f   XMLGrammarPoolImpl.obj
 0001:0006e150       ?serializeGrammars@XMLGrammarPoolImpl@xercesc_2_5@@UAEXQAVBinOutputStream@2@@Z 1206f150 f   XMLGrammarPoolImpl.obj
 0001:0006e3a0       ?deserializeGrammars@XMLGrammarPoolImpl@xercesc_2_5@@UAEXQAVBinInputStream@2@@Z 1206f3a0 f   XMLGrammarPoolImpl.obj
 0001:0006e700       ?put@?$RefHashTableOf@VGrammar@xercesc_2_5@@@xercesc_2_5@@QAEXPAXQAVGrammar@2@@Z 1206f700 f i XMLGrammarPoolImpl.obj
 0001:0006e920       ?isAllSpaces@XMLReader@xercesc_2_5@@QAE_NQBGI@Z 1206f920 f   XMLReader.obj
 0001:0006e960       ?containsWhiteSpace@XMLReader@xercesc_2_5@@QAE_NQBGI@Z 1206f960 f   XMLReader.obj
 0001:0006e9a0       ?isPublicIdChar@XMLReader@xercesc_2_5@@QAE_NG@Z 1206f9a0 f   XMLReader.obj
 0001:0006e9d0       ??0XMLReader@xercesc_2_5@@QAE@QBG0QAVBinInputStream@1@W4RefFrom@01@W4Types@01@W4Sources@01@_N5W4XMLVersion@01@QAVMemoryManager@1@@Z 1206f9d0 f   XMLReader.obj
 0001:0006ec60       ??0XMLReader@xercesc_2_5@@QAE@QBG0QAVBinInputStream@1@0W4RefFrom@01@W4Types@01@W4Sources@01@_N5W4XMLVersion@01@QAVMemoryManager@1@@Z 1206fc60 f   XMLReader.obj
 0001:0006efa0       ??0XMLReader@xercesc_2_5@@QAE@QBG0QAVBinInputStream@1@W4Encodings@XMLRecognizer@1@W4RefFrom@01@W4Types@01@W4Sources@01@_N6W4XMLVersion@01@QAVMemoryManager@1@@Z 1206ffa0 f   XMLReader.obj
 0001:0006f2c0       ??1XMLReader@xercesc_2_5@@QAE@XZ 120702c0 f   XMLReader.obj
 0001:0006f320       ?getSrcOffset@XMLReader@xercesc_2_5@@QBEIXZ 12070320 f   XMLReader.obj
 0001:0006f390       ?refreshCharBuffer@XMLReader@xercesc_2_5@@QAE_NXZ 12070390 f   XMLReader.obj
 0001:0006f630       ?getName@XMLReader@xercesc_2_5@@QAE_NAAVXMLBuffer@2@_N@Z 12070630 f   XMLReader.obj
 0001:0006f830       ?getSpaces@XMLReader@xercesc_2_5@@QAE_NAAVXMLBuffer@2@@Z 12070830 f   XMLReader.obj
 0001:0006f960       ?getUpToCharOrWS@XMLReader@xercesc_2_5@@QAE_NAAVXMLBuffer@2@G@Z 12070960 f   XMLReader.obj
 0001:0006faa0       ?skipIfQuote@XMLReader@xercesc_2_5@@QAE_NAAG@Z 12070aa0 f   XMLReader.obj
 0001:0006fb00       ?skipSpaces@XMLReader@xercesc_2_5@@QAE_NAA_N@Z 12070b00 f   XMLReader.obj
 0001:0006fc80       ?skippedChar@XMLReader@xercesc_2_5@@QAE_NG@Z 12070c80 f   XMLReader.obj
 0001:0006fcc0       ?skippedSpace@XMLReader@xercesc_2_5@@QAE_NXZ 12070cc0 f   XMLReader.obj
 0001:0006fdb0       ?skippedString@XMLReader@xercesc_2_5@@QAE_NQBG@Z 12070db0 f   XMLReader.obj
 0001:0006fe50       ?peekString@XMLReader@xercesc_2_5@@QAE_NQBG@Z 12070e50 f   XMLReader.obj
 0001:0006fed0       ?setEncoding@XMLReader@xercesc_2_5@@QAE_NQBG@Z 12070ed0 f   XMLReader.obj
 0001:000702d0       ?checkForSwapped@XMLReader@xercesc_2_5@@AAEXXZ 120712d0 f   XMLReader.obj
 0001:000702f0       ?doInitDecode@XMLReader@xercesc_2_5@@AAEXXZ 120712f0 f   XMLReader.obj
 0001:00070840       ?refreshRawBuffer@XMLReader@xercesc_2_5@@AAEXXZ 12071840 f   XMLReader.obj
 0001:000708b0       ?xcodeMoreChars@XMLReader@xercesc_2_5@@AAEIQAGQAEI@Z 120718b0 f   XMLReader.obj
 0001:000709c0       ?reinitMsgLoader@XMLScanner@xercesc_2_5@@SAXXZ 120719c0 f   XMLScanner.obj
 0001:000709e0       ?reinitScannerMutex@XMLScanner@xercesc_2_5@@SAXXZ 120719e0 f   XMLScanner.obj
 0001:00070a10       ??0XMLScanner@xercesc_2_5@@QAE@QAVXMLValidator@1@QAVGrammarResolver@1@QAVMemoryManager@1@@Z 12071a10 f   XMLScanner.obj
 0001:00070ce0       ??_EXMLScanner@xercesc_2_5@@UAEPAXI@Z 12071ce0 f i XMLScanner.obj
 0001:00070d40       ??0XMLScanner@xercesc_2_5@@QAE@QAVXMLDocumentHandler@1@QAVDocTypeHandler@1@QAVXMLEntityHandler@1@QAVXMLErrorReporter@1@QAVXMLValidator@1@QAVGrammarResolver@1@QAVMemoryManager@1@@Z 12071d40 f   XMLScanner.obj
 0001:00071020       ??1XMLScanner@xercesc_2_5@@UAE@XZ 12072020 f   XMLScanner.obj
 0001:000711a0       ?setValidator@XMLScanner@xercesc_2_5@@QAEXQAVXMLValidator@2@@Z 120721a0 f   XMLScanner.obj
 0001:000711f0       ?scanDocument@XMLScanner@xercesc_2_5@@QAEXQBG@Z 120721f0 f   XMLScanner.obj
 0001:00071520       ?scanDocument@XMLScanner@xercesc_2_5@@QAEXQBD@Z 12072520 f   XMLScanner.obj
 0001:000715c0       ?scanFirst@XMLScanner@xercesc_2_5@@QAE_NQBGAAVXMLPScanToken@2@@Z 120725c0 f   XMLScanner.obj
 0001:00071900       ?scanFirst@XMLScanner@xercesc_2_5@@QAE_NQBDAAVXMLPScanToken@2@@Z 12072900 f   XMLScanner.obj
 0001:000719a0       ?scanFirst@XMLScanner@xercesc_2_5@@QAE_NABVInputSource@2@AAVXMLPScanToken@2@@Z 120729a0 f   XMLScanner.obj
 0001:00071b40       ?scanReset@XMLScanner@xercesc_2_5@@QAEXAAVXMLPScanToken@2@@Z 12072b40 f   XMLScanner.obj
 0001:00071ba0       ?setParseSettings@XMLScanner@xercesc_2_5@@QAEXQAV12@@Z 12072ba0 f   XMLScanner.obj
 0001:00071d20       ?commonInit@XMLScanner@xercesc_2_5@@AAEXXZ 12072d20 f   XMLScanner.obj
 0001:00071f20       ?initValidator@XMLScanner@xercesc_2_5@@IAEXPAVXMLValidator@2@@Z 12072f20 f   XMLScanner.obj
 0001:00071f40       ?emitErrorWillThrowException@XMLScanner@xercesc_2_5@@QAE_NW4Codes@XMLErrs@2@@Z 12072f40 f   XMLScanner.obj
 0001:00071f70       ?emitError@XMLScanner@xercesc_2_5@@QAEXW4Codes@XMLErrs@2@@Z 12072f70 f   XMLScanner.obj
 0001:00072200       ?emitError@XMLScanner@xercesc_2_5@@QAEXW4Codes@XMLErrs@2@QBG111@Z 12073200 f   XMLScanner.obj
 0001:00072320       ?emitError@XMLScanner@xercesc_2_5@@QAEXW4Codes@XMLErrs@2@QBD111@Z 12073320 f   XMLScanner.obj
 0001:00072440       ?scanMiscellaneous@XMLScanner@xercesc_2_5@@IAEXXZ 12073440 f   XMLScanner.obj
 0001:000725f0       ?scanPI@XMLScanner@xercesc_2_5@@IAEXXZ 120735f0 f   XMLScanner.obj
 0001:00072920       ?scanProlog@XMLScanner@xercesc_2_5@@IAEXXZ 12073920 f   XMLScanner.obj
 0001:00072b10       ?scanXMLDecl@XMLScanner@xercesc_2_5@@IAEXW4DeclTypes@12@@Z 12073b10 f   XMLScanner.obj
 0001:000733c0       ?getURIText@XMLScanner@xercesc_2_5@@QBEPBGI@Z 120743c0 f   XMLScanner.obj
 0001:00073400       ?getURIText@XMLScanner@xercesc_2_5@@QBE_NIAAVXMLBuffer@2@@Z 12074400 f   XMLScanner.obj
 0001:00073450       ?checkXMLDecl@XMLScanner@xercesc_2_5@@QAE_N_N@Z 12074450 f   XMLScanner.obj
 0001:000735d0       ?loadGrammar@XMLScanner@xercesc_2_5@@QAEPAVGrammar@2@QBGF_N@Z 120745d0 f   XMLScanner.obj
 0001:00073960       ?loadGrammar@XMLScanner@xercesc_2_5@@QAEPAVGrammar@2@QBDF_N@Z 12074960 f   XMLScanner.obj
 0001:00073a00       ?setURIStringPool@XMLScanner@xercesc_2_5@@QAEXQAVXMLStringPool@2@@Z 12074a00 f   XMLScanner.obj
 0001:00073a60       ?checkIDRefs@XMLScanner@xercesc_2_5@@IAEXXZ 12074a60 f   XMLScanner.obj
 0001:00073c00       ?isLegalToken@XMLScanner@xercesc_2_5@@IAE_NABVXMLPScanToken@2@@Z 12074c00 f   XMLScanner.obj
 0001:00073c20       ?senseNextToken@XMLScanner@xercesc_2_5@@IAE?AW4XMLTokens@12@AAI@Z 12074c20 f   XMLScanner.obj
 0001:00073db0       ?getQuotedString@XMLScanner@xercesc_2_5@@AAE_NAAVXMLBuffer@2@@Z 12074db0 f   XMLScanner.obj
 0001:00073e20       ?scanCharRef@XMLScanner@xercesc_2_5@@IAE_NAAG0@Z 12074e20 f   XMLScanner.obj
 0001:00074040       ?scanComment@XMLScanner@xercesc_2_5@@IAEXXZ 12075040 f   XMLScanner.obj
 0001:00074290       ?scanEq@XMLScanner@xercesc_2_5@@IAE_NXZ 12075290 f   XMLScanner.obj
 0001:000742c0       ?scanUpToWSOr@XMLScanner@xercesc_2_5@@AAEIAAVXMLBuffer@2@G@Z 120752c0 f   XMLScanner.obj
 0001:000742e0       ?getNewUIntPtr@XMLScanner@xercesc_2_5@@IAEPAIXZ 120752e0 f   XMLScanner.obj
 0001:000743c0       ?resetUIntPool@XMLScanner@xercesc_2_5@@IAEXXZ 120753c0 f   XMLScanner.obj
 0001:000743e0       ?recreateUIntPool@XMLScanner@xercesc_2_5@@IAEXXZ 120753e0 f   XMLScanner.obj
 0001:00074470       ??1?$XMLEnumerator@VXMLRefInfo@xercesc_2_5@@@xercesc_2_5@@UAE@XZ 12075470 f i XMLScanner.obj
 0001:00074480       ??_G?$XMLEnumerator@VXMLRefInfo@xercesc_2_5@@@xercesc_2_5@@UAEPAXI@Z 12075480 f i XMLScanner.obj
 0001:00074480       ??_E?$XMLEnumerator@VXMLRefInfo@xercesc_2_5@@@xercesc_2_5@@UAEPAXI@Z 12075480 f i XMLScanner.obj
 0001:000744a0       ?setElementAt@?$BaseRefVectorOf@VXMLAttr@xercesc_2_5@@@xercesc_2_5@@UAEXQAVXMLAttr@2@I@Z 120754a0 f i XMLScanner.obj
 0001:00074510       ?removeAllElements@?$BaseRefVectorOf@VXMLAttr@xercesc_2_5@@@xercesc_2_5@@UAEXXZ 12075510 f i XMLScanner.obj
 0001:00074570       ?removeElementAt@?$BaseRefVectorOf@VXMLAttr@xercesc_2_5@@@xercesc_2_5@@UAEXI@Z 12075570 f i XMLScanner.obj
 0001:00074630       ?removeLastElement@?$BaseRefVectorOf@VXMLAttr@xercesc_2_5@@@xercesc_2_5@@UAEXXZ 12075630 f i XMLScanner.obj
 0001:00074660       ?cleanup@?$BaseRefVectorOf@VXMLAttr@xercesc_2_5@@@xercesc_2_5@@UAEXXZ 12075660 f i XMLScanner.obj
 0001:000746b0       ??1?$RefHashTableOfEnumerator@VXMLRefInfo@xercesc_2_5@@@xercesc_2_5@@UAE@XZ 120756b0 f i XMLScanner.obj
 0001:00074780       ?nextElement@?$RefHashTableOfEnumerator@G@xercesc_2_5@@UAEAAGXZ 12075780 f i XMLScanner.obj
 0001:00074780       ?nextElement@?$RefHashTableOfEnumerator@VGrammar@xercesc_2_5@@@xercesc_2_5@@UAEAAVGrammar@2@XZ 12075780 f i XMLScanner.obj
 0001:00074780       ?nextElement@?$RefHashTableOfEnumerator@VValueStore@xercesc_2_5@@@xercesc_2_5@@UAEAAVValueStore@2@XZ 12075780 f i XMLScanner.obj
 0001:00074780       ?nextElement@?$RefHashTableOfEnumerator@VXercesGroupInfo@xercesc_2_5@@@xercesc_2_5@@UAEAAVXercesGroupInfo@2@XZ 12075780 f i XMLScanner.obj
 0001:00074780       ?nextElement@?$RefHashTableOfEnumerator@VDTDAttDef@xercesc_2_5@@@xercesc_2_5@@UAEAAVDTDAttDef@2@XZ 12075780 f i XMLScanner.obj
 0001:00074780       ?nextElement@?$RefHashTableOfEnumerator@VXercesAttGroupInfo@xercesc_2_5@@@xercesc_2_5@@UAEAAVXercesAttGroupInfo@2@XZ 12075780 f i XMLScanner.obj
 0001:00074780       ?nextElement@?$RefHashTableOfEnumerator@VComplexTypeInfo@xercesc_2_5@@@xercesc_2_5@@UAEAAVComplexTypeInfo@2@XZ 12075780 f i XMLScanner.obj
 0001:00074780       ?nextElement@?$RefHashTableOfEnumerator@V?$KeyRefPair@XVDOMUserDataHandler@xercesc_2_5@@@xercesc_2_5@@@xercesc_2_5@@UAEAAV?$KeyRefPair@XVDOMUserDataHandler@xercesc_2_5@@@2@XZ 12075780 f i XMLScanner.obj
 0001:00074780       ?nextElement@?$RefHashTableOfEnumerator@VXMLRefInfo@xercesc_2_5@@@xercesc_2_5@@UAEAAVXMLRefInfo@2@XZ 12075780 f i XMLScanner.obj
 0001:00074780       ?nextElement@?$RefHashTableOfEnumerator@VXMLAttDef@xercesc_2_5@@@xercesc_2_5@@UAEAAVXMLAttDef@2@XZ 12075780 f i XMLScanner.obj
 0001:00074780       ?nextElement@?$RefHashTableOfEnumerator@VKVStringPair@xercesc_2_5@@@xercesc_2_5@@UAEAAVKVStringPair@2@XZ 12075780 f i XMLScanner.obj
 0001:00074780       ?nextElement@?$RefHashTableOfEnumerator@VDatatypeValidator@xercesc_2_5@@@xercesc_2_5@@UAEAAVDatatypeValidator@2@XZ 12075780 f i XMLScanner.obj
 0001:00074780       ?nextElement@?$RefHashTableOfEnumerator@VXSAnnotation@xercesc_2_5@@@xercesc_2_5@@UAEAAVXSAnnotation@2@XZ 12075780 f i XMLScanner.obj
 0001:00074810       ??_G?$RefVectorOf@VXMLAttr@xercesc_2_5@@@xercesc_2_5@@UAEPAXI@Z 12075810 f i XMLScanner.obj
 0001:00074810       ??_E?$RefVectorOf@VXMLAttr@xercesc_2_5@@@xercesc_2_5@@UAEPAXI@Z 12075810 f i XMLScanner.obj
 0001:00074830       ??1?$RefVectorOf@VXMLAttr@xercesc_2_5@@@xercesc_2_5@@UAE@XZ 12075830 f i XMLScanner.obj
 0001:000748c0       ??1?$BaseRefVectorOf@VXMLAttr@xercesc_2_5@@@xercesc_2_5@@UAE@XZ 120758c0 f i XMLScanner.obj
 0001:000748d0       ??_E?$RefHashTableOfEnumerator@VXMLRefInfo@xercesc_2_5@@@xercesc_2_5@@UAEPAXI@Z 120758d0 f i XMLScanner.obj
 0001:000748d0       ??_G?$RefHashTableOfEnumerator@VXMLRefInfo@xercesc_2_5@@@xercesc_2_5@@UAEPAXI@Z 120758d0 f i XMLScanner.obj
 0001:000748f0       ?getDefaultScanner@XMLScannerResolver@xercesc_2_5@@SAPAVXMLScanner@2@QAVXMLValidator@2@QAVGrammarResolver@2@QAVMemoryManager@2@@Z 120758f0 f   XMLScannerResolver.obj
 0001:00074960       ?resolveScanner@XMLScannerResolver@xercesc_2_5@@SAPAVXMLScanner@2@QBGQAVXMLValidator@2@QAVGrammarResolver@2@QAVMemoryManager@2@@Z 12075960 f   XMLScannerResolver.obj
 0001:00074c20       ?resolveScanner@XMLScannerResolver@xercesc_2_5@@SAPAVXMLScanner@2@QBGQAVXMLDocumentHandler@2@QAVDocTypeHandler@2@QAVXMLEntityHandler@2@QAVXMLErrorReporter@2@QAVXMLValidator@2@QAVGrammarResolver@2@QAVMemoryManager@2@@Z 12075c20 f   XMLScannerResolver.obj
 0001:00074f40       ??_FDTDAttDefList@xercesc_2_5@@QAEXXZ 12075f40 f i XObjectComparator.obj
 0001:00074f50       ?addAttDef@DTDAttDefList@xercesc_2_5@@AAEXPAVDTDAttDef@2@@Z 12075f50 f i XObjectComparator.obj
 0001:00074f50       ?addAttDef@SchemaAttDefList@xercesc_2_5@@AAEXPAVSchemaAttDef@2@@Z 12075f50 f i XObjectComparator.obj
 0001:00074fb0       ??_FIC_Key@xercesc_2_5@@QAEXXZ 12075fb0 f i XObjectComparator.obj
 0001:00074fc0       ?getType@IC_Key@xercesc_2_5@@UBEFXZ 12075fc0 f i XObjectComparator.obj
 0001:00074fd0       ??_FIC_Unique@xercesc_2_5@@QAEXXZ 12075fd0 f i XObjectComparator.obj
 0001:00074fe0       ?getType@IC_Unique@xercesc_2_5@@UBEFXZ 12075fe0 f i XObjectComparator.obj
 0001:00074ff0       ?dumpContent@XObjectComparator@xercesc_2_5@@SAXQAVXMLGrammarPoolImpl@2@@Z 12075ff0 f   XObjectComparator.obj
 0001:00075230       ?isEquivalent@XObjectComparator@xercesc_2_5@@SA_NQAVXMLGrammarPoolImpl@2@0@Z 12076230 f   XObjectComparator.obj
 0001:00075320       ?isEquivalent@XObjectComparator@xercesc_2_5@@SA_NQAVGrammar@2@0@Z 12076320 f   XObjectComparator.obj
 0001:00075380       ?isEquivalent@XObjectComparator@xercesc_2_5@@SA_NQAVSchemaGrammar@2@0@Z 12076380 f   XObjectComparator.obj
 0001:00075510       ?isEquivalent@XObjectComparator@xercesc_2_5@@SA_NQAVXMLDTDDescription@2@0@Z 12076510 f   XObjectComparator.obj
 0001:00075510       ?isBaseEquivalent@XObjectComparator@xercesc_2_5@@SA_NQAVXMLAttDefList@2@0@Z 12076510 f   XObjectComparator.obj
 0001:00075510       ?isEquivalent@XObjectComparator@xercesc_2_5@@SA_NQAVXMLSchemaDescription@2@0@Z 12076510 f   XObjectComparator.obj
 0001:00075510       ?isEquivalent@XObjectComparator@xercesc_2_5@@SA_NQAVXMLNumber@2@0@Z 12076510 f   XObjectComparator.obj
 0001:00075530       ?isBaseEquivalent@XObjectComparator@xercesc_2_5@@SA_NQAVXMLElementDecl@2@0@Z 12076530 f   XObjectComparator.obj
 0001:00075620       ?isEquivalent@XObjectComparator@xercesc_2_5@@SA_NQAVSchemaElementDecl@2@0@Z 12076620 f   XObjectComparator.obj
 0001:00075860       ?isEquivalent@XObjectComparator@xercesc_2_5@@SA_NQAVDTDElementDecl@2@0@Z 12076860 f   XObjectComparator.obj
 0001:00075a80       ?isBaseEquivalent@XObjectComparator@xercesc_2_5@@SA_NQAVXMLAttDef@2@0@Z 12076a80 f   XObjectComparator.obj
 0001:00075b50       ?isEquivalent@XObjectComparator@xercesc_2_5@@SA_NQAVSchemaAttDef@2@0@Z 12076b50 f   XObjectComparator.obj
 0001:00075d20       ?isEquivalent@XObjectComparator@xercesc_2_5@@SA_NQAVDTDAttDef@2@0@Z 12076d20 f   XObjectComparator.obj
 0001:00075e80       ?isEquivalent@XObjectComparator@xercesc_2_5@@SA_NQAVSchemaAttDefList@2@0@Z 12076e80 f   XObjectComparator.obj
 0001:00075eb0       ?isEquivalent@XObjectComparator@xercesc_2_5@@SA_NQAVDTDAttDefList@2@0@Z 12076eb0 f   XObjectComparator.obj
 0001:00075ee0       ?isBaseEquivalent@XObjectComparator@xercesc_2_5@@SA_NQAVXMLEntityDecl@2@0@Z 12076ee0 f   XObjectComparator.obj
 0001:000760c0       ?isEquivalent@XObjectComparator@xercesc_2_5@@SA_NQAVDTDEntityDecl@2@0@Z 120770c0 f   XObjectComparator.obj
 0001:000762e0       ?isEquivalent@XObjectComparator@xercesc_2_5@@SA_NQAVXMLNotationDecl@2@0@Z 120772e0 f   XObjectComparator.obj
 0001:00076430       ?isEquivalent@XObjectComparator@xercesc_2_5@@SA_NQAVComplexTypeInfo@2@0@Z 12077430 f   XObjectComparator.obj
 0001:00076790       ?isEquivalent@XObjectComparator@xercesc_2_5@@SA_NQAVXercesGroupInfo@2@0@Z 12077790 f   XObjectComparator.obj
 0001:00076930       ?isEquivalent@XObjectComparator@xercesc_2_5@@SA_NQAVXercesAttGroupInfo@2@0@Z 12077930 f   XObjectComparator.obj
 0001:000769b0       ?isEquivalent@XObjectComparator@xercesc_2_5@@SA_NQAVDatatypeValidator@2@0@Z 120779b0 f   XObjectComparator.obj
 0001:000769e0       ?isEquivalent@XObjectComparator@xercesc_2_5@@SA_NQAVDatatypeValidatorFactory@2@0@Z 120779e0 f   XObjectComparator.obj
 0001:00076a10       ?isEquivalent@XObjectComparator@xercesc_2_5@@SA_NQAVContentSpecNode@2@0@Z 12077a10 f   XObjectComparator.obj
 0001:00076b40       ?isEquivalent@XObjectComparator@xercesc_2_5@@SA_NQAVQName@2@0@Z 12077b40 f   XObjectComparator.obj
 0001:00076c00       ?isEquivalent@XObjectComparator@xercesc_2_5@@SA_NQAVKVStringPair@2@0@Z 12077c00 f   XObjectComparator.obj
 0001:00076cc0       ?isEquivalent@XObjectComparator@xercesc_2_5@@SA_NQAVXMLRefInfo@2@0@Z 12077cc0 f   XObjectComparator.obj
 0001:00076d40       ?isEquivalent@XObjectComparator@xercesc_2_5@@SA_NQAVXMLStringPool@2@0@Z 12077d40 f   XObjectComparator.obj
 0001:00076e00       ?isEquivalent@XObjectComparator@xercesc_2_5@@SA_NQAVXercesNodeTest@2@0@Z 12077e00 f   XObjectComparator.obj
 0001:00076ee0       ?isEquivalent@XObjectComparator@xercesc_2_5@@SA_NQAVXercesStep@2@0@Z 12077ee0 f   XObjectComparator.obj
 0001:00076fe0       ?isEquivalent@XObjectComparator@xercesc_2_5@@SA_NQAVXercesLocationPath@2@0@Z 12077fe0 f   XObjectComparator.obj
 0001:00077010       ?isEquivalent@XObjectComparator@xercesc_2_5@@SA_NQAVXercesXPath@2@0@Z 12078010 f   XObjectComparator.obj
 0001:000770a0       ?isEquivalent@XObjectComparator@xercesc_2_5@@SA_NQAVIC_Field@2@0@Z 120780a0 f   XObjectComparator.obj
 0001:00077330       ?isEquivalent@XObjectComparator@xercesc_2_5@@SA_NQAVIC_Selector@2@0@Z 12078330 f   XObjectComparator.obj
 0001:00077580       ?isEquivalent@XObjectComparator@xercesc_2_5@@SA_NQAVIdentityConstraint@2@0@Z 12078580 f   XObjectComparator.obj
 0001:00077800       ?isBaseEquivalent@XObjectComparator@xercesc_2_5@@SA_NQAVIdentityConstraint@2@0@Z 12078800 f   XObjectComparator.obj
 0001:00077a30       ?isEquivalent@XObjectComparator@xercesc_2_5@@SA_NQAVIC_Key@2@0@Z 12078a30 f   XObjectComparator.obj
 0001:00077c90       ?isEquivalent@XObjectComparator@xercesc_2_5@@SA_NQAVIC_KeyRef@2@0@Z 12078c90 f   XObjectComparator.obj
 0001:00077f40       ?isEquivalent@XObjectComparator@xercesc_2_5@@SA_NQAVIC_Unique@2@0@Z 12078f40 f   XObjectComparator.obj
 0001:000781a0       ?store@XProtoType@xercesc_2_5@@QBEXAAVXSerializeEngine@2@@Z 120791a0 f   XProtoType.obj
 0001:000781d0       ?load@XProtoType@xercesc_2_5@@SAXAAVXSerializeEngine@2@QAEQAVMemoryManager@2@@Z 120791d0 f   XProtoType.obj
 0001:00078370       ??0XSerializeEngine@xercesc_2_5@@QAE@PAVBinInputStream@1@QAVMemoryManager@1@K@Z 12079370 f   XSerializeEngine.obj
 0001:00078450       ??0XSerializeEngine@xercesc_2_5@@QAE@PAVBinOutputStream@1@QAVMemoryManager@1@K@Z 12079450 f   XSerializeEngine.obj
 0001:000786d0       ??1XSerializeEngine@xercesc_2_5@@QAE@XZ 120796d0 f   XSerializeEngine.obj
 0001:00078850       ?flush@XSerializeEngine@xercesc_2_5@@QAEXXZ 12079850 f   XSerializeEngine.obj
 0001:00078970       ?write@XSerializeEngine@xercesc_2_5@@QAEXQAVXSerializable@2@@Z 12079970 f   XSerializeEngine.obj
 0001:00078bf0       ?write@XSerializeEngine@xercesc_2_5@@QAEXQAVXProtoType@2@@Z 12079bf0 f   XSerializeEngine.obj
 0001:00078e40       ?write@XSerializeEngine@xercesc_2_5@@QAEXQBGH@Z 12079e40 f   XSerializeEngine.obj
 0001:00078e60       ?write@XSerializeEngine@xercesc_2_5@@QAEXQBEH@Z 12079e60 f   XSerializeEngine.obj
 0001:00079190       ?writeString@XSerializeEngine@xercesc_2_5@@QAEXQBGH_N@Z 1207a190 f   XSerializeEngine.obj
 0001:000793f0       ?writeString@XSerializeEngine@xercesc_2_5@@QAEXQBEH_N@Z 1207a3f0 f   XSerializeEngine.obj
 0001:00079650       ?read@XSerializeEngine@xercesc_2_5@@QAEPAVXSerializable@2@QAVXProtoType@2@@Z 1207a650 f   XSerializeEngine.obj
 0001:00079980       ?read@XSerializeEngine@xercesc_2_5@@QAE_NQAVXProtoType@2@PAI@Z 1207a980 f   XSerializeEngine.obj
 0001:00079d10       ?read@XSerializeEngine@xercesc_2_5@@QAEXQAGH@Z 1207ad10 f   XSerializeEngine.obj
 0001:00079d30       ?read@XSerializeEngine@xercesc_2_5@@QAEXQAEH@Z 1207ad30 f   XSerializeEngine.obj
 0001:00079f50       ?readString@XSerializeEngine@xercesc_2_5@@QAEXAAPAGAAH1_N@Z 1207af50 f   XSerializeEngine.obj
 0001:0007a120       ?readString@XSerializeEngine@xercesc_2_5@@QAEXAAPAEAAH1_N@Z 1207b120 f   XSerializeEngine.obj
 0001:0007a2f0       ??6XSerializeEngine@xercesc_2_5@@QAEAAV01@G@Z 1207b2f0 f   XSerializeEngine.obj
 0001:0007a460       ??6XSerializeEngine@xercesc_2_5@@QAEAAV01@_N@Z 1207b460 f   XSerializeEngine.obj
 0001:0007a460       ??6XSerializeEngine@xercesc_2_5@@QAEAAV01@E@Z 1207b460 f   XSerializeEngine.obj
 0001:0007a5c0       ??6XSerializeEngine@xercesc_2_5@@QAEAAV01@D@Z 1207b5c0 f   XSerializeEngine.obj
 0001:0007a740       ??6XSerializeEngine@xercesc_2_5@@QAEAAV01@F@Z 1207b740 f   XSerializeEngine.obj
 0001:0007a8b0       ??6XSerializeEngine@xercesc_2_5@@QAEAAV01@K@Z 1207b8b0 f   XSerializeEngine.obj
 0001:0007a8b0       ??6XSerializeEngine@xercesc_2_5@@QAEAAV01@J@Z 1207b8b0 f   XSerializeEngine.obj
 0001:0007a8b0       ??6XSerializeEngine@xercesc_2_5@@QAEAAV01@H@Z 1207b8b0 f   XSerializeEngine.obj
 0001:0007a8b0       ??6XSerializeEngine@xercesc_2_5@@QAEAAV01@I@Z 1207b8b0 f   XSerializeEngine.obj
 0001:0007a8b0       ??6XSerializeEngine@xercesc_2_5@@QAEAAV01@M@Z 1207b8b0 f   XSerializeEngine.obj
 0001:0007aa20       ??6XSerializeEngine@xercesc_2_5@@QAEAAV01@N@Z 1207ba20 f   XSerializeEngine.obj
 0001:0007aba0       ??5XSerializeEngine@xercesc_2_5@@QAEAAV01@AAG@Z 1207bba0 f   XSerializeEngine.obj
 0001:0007abe0       ??5XSerializeEngine@xercesc_2_5@@QAEAAV01@AA_N@Z 1207bbe0 f   XSerializeEngine.obj
 0001:0007abe0       ??5XSerializeEngine@xercesc_2_5@@QAEAAV01@AAD@Z 1207bbe0 f   XSerializeEngine.obj
 0001:0007abe0       ??5XSerializeEngine@xercesc_2_5@@QAEAAV01@AAE@Z 1207bbe0 f   XSerializeEngine.obj
 0001:0007ac10       ??5XSerializeEngine@xercesc_2_5@@QAEAAV01@AAF@Z 1207bc10 f   XSerializeEngine.obj
 0001:0007acd0       ??5XSerializeEngine@xercesc_2_5@@QAEAAV01@AAM@Z 1207bcd0 f   XSerializeEngine.obj
 0001:0007acd0       ??5XSerializeEngine@xercesc_2_5@@QAEAAV01@AAJ@Z 1207bcd0 f   XSerializeEngine.obj
 0001:0007acd0       ??5XSerializeEngine@xercesc_2_5@@QAEAAV01@AAI@Z 1207bcd0 f   XSerializeEngine.obj
 0001:0007acd0       ??5XSerializeEngine@xercesc_2_5@@QAEAAV01@AAH@Z 1207bcd0 f   XSerializeEngine.obj
 0001:0007acd0       ??5XSerializeEngine@xercesc_2_5@@QAEAAV01@AAK@Z 1207bcd0 f   XSerializeEngine.obj
 0001:0007ad90       ??5XSerializeEngine@xercesc_2_5@@QAEAAV01@AAN@Z 1207bd90 f   XSerializeEngine.obj
 0001:0007ae50       ?lookupStorePool@XSerializeEngine@xercesc_2_5@@ABEIQAX@Z 1207be50 f   XSerializeEngine.obj
 0001:0007aee0       ?addStorePool@XSerializeEngine@xercesc_2_5@@AAEXQAX@Z 1207bee0 f   XSerializeEngine.obj
 0001:0007b190       ?lookupLoadPool@XSerializeEngine@xercesc_2_5@@ABEPAVXSerializable@2@I@Z 1207c190 f   XSerializeEngine.obj
 0001:0007b260       ?addLoadPool@XSerializeEngine@xercesc_2_5@@AAEXQAX@Z 1207c260 f   XSerializeEngine.obj
 0001:0007b3e0       ?pumpCount@XSerializeEngine@xercesc_2_5@@AAEXXZ 1207c3e0 f   XSerializeEngine.obj
 0001:0007b460       ?fillBuffer@XSerializeEngine@xercesc_2_5@@AAEXH@Z 1207c460 f   XSerializeEngine.obj
 0001:0007b730       ?flushBuffer@XSerializeEngine@xercesc_2_5@@AAEXXZ 1207c730 f   XSerializeEngine.obj
 0001:0007b880       ?checkAndFlushBuffer@XSerializeEngine@xercesc_2_5@@AAEXH@Z 1207c880 f i XSerializeEngine.obj
 0001:0007ba30       ?checkAndFillBuffer@XSerializeEngine@xercesc_2_5@@AAEXH@Z 1207ca30 f i XSerializeEngine.obj
 0001:0007bab0       ?ensureStoreBuffer@XSerializeEngine@xercesc_2_5@@ABEXXZ 1207cab0 f i XSerializeEngine.obj
 0001:0007bb40       ?ensureLoadBuffer@XSerializeEngine@xercesc_2_5@@ABEXXZ 1207cb40 f i XSerializeEngine.obj
 0001:0007bbd0       ?ensurePointer@XSerializeEngine@xercesc_2_5@@ABEXQAX@Z 1207cbd0 f i XSerializeEngine.obj
 0001:0007bc40       ?ensureBufferLen@XSerializeEngine@xercesc_2_5@@ABEXH@Z 1207cc40 f i XSerializeEngine.obj
 0001:0007bcb0       ?needToStoreObject@XSerializeEngine@xercesc_2_5@@QAE_NQAX@Z 1207ccb0 f   XSerializeEngine.obj
 0001:0007bf20       ?needToLoadObject@XSerializeEngine@xercesc_2_5@@QAE_NPAPAX@Z 1207cf20 f   XSerializeEngine.obj
 0001:0007c0f0       ?registerObject@XSerializeEngine@xercesc_2_5@@QAEXQAX@Z 1207d0f0 f   XSerializeEngine.obj
 0001:0007c2a0       ??0XSObjectFactory@xercesc_2_5@@QAE@QAVMemoryManager@1@@Z 1207d2a0 f   XSObjectFactory.obj
 0001:0007c3f0       ??1XSObjectFactory@xercesc_2_5@@QAE@XZ 1207d3f0 f   XSObjectFactory.obj
 0001:0007c490       ?createModelGroupParticle@XSObjectFactory@xercesc_2_5@@AAEPAVXSParticle@2@QBVContentSpecNode@2@QAVXSModel@2@@Z 1207d490 f   XSObjectFactory.obj
 0001:0007c780       ?buildAllParticles@XSObjectFactory@xercesc_2_5@@AAEXQBVContentSpecNode@2@QAV?$RefVectorOf@VXSParticle@xercesc_2_5@@@2@QAVXSModel@2@@Z 1207d780 f   XSObjectFactory.obj
 0001:0007c850       ?buildChoiceSequenceParticles@XSObjectFactory@xercesc_2_5@@AAEXQBVContentSpecNode@2@QAV?$RefVectorOf@VXSParticle@xercesc_2_5@@@2@QAVXSModel@2@@Z 1207d850 f   XSObjectFactory.obj
 0001:0007ca40       ?createElementParticle@XSObjectFactory@xercesc_2_5@@AAEPAVXSParticle@2@QBVContentSpecNode@2@QAVXSModel@2@@Z 1207da40 f   XSObjectFactory.obj
 0001:0007cad0       ?createWildcardParticle@XSObjectFactory@xercesc_2_5@@AAEPAVXSParticle@2@QBVContentSpecNode@2@QAVXSModel@2@@Z 1207dad0 f   XSObjectFactory.obj
 0001:0007cc00       ?addOrFind@XSObjectFactory@xercesc_2_5@@AAEPAVXSAttributeDeclaration@2@QAVSchemaAttDef@2@QAVXSModel@2@QAVXSComplexTypeDefinition@2@@Z 1207dc00 f   XSObjectFactory.obj
 0001:0007ceb0       ?addOrFind@XSObjectFactory@xercesc_2_5@@AAEPAVXSSimpleTypeDefinition@2@QAVDatatypeValidator@2@QAVXSModel@2@_N@Z 1207deb0 f   XSObjectFactory.obj
 0001:0007d300       ?addOrFind@XSObjectFactory@xercesc_2_5@@AAEPAVXSElementDeclaration@2@QAVSchemaElementDecl@2@QAVXSModel@2@QAVXSComplexTypeDefinition@2@@Z 1207e300 f   XSObjectFactory.obj
 0001:0007d6b0       ?addOrFind@XSObjectFactory@xercesc_2_5@@AAEPAVXSComplexTypeDefinition@2@QAVComplexTypeInfo@2@QAVXSModel@2@@Z 1207e6b0 f   XSObjectFactory.obj
 0001:0007dbf0       ?addOrFind@XSObjectFactory@xercesc_2_5@@AAEPAVXSIDCDefinition@2@QAVIdentityConstraint@2@QAVXSModel@2@@Z 1207ebf0 f   XSObjectFactory.obj
 0001:0007dea0       ?addOrFind@XSObjectFactory@xercesc_2_5@@AAEPAVXSNotationDeclaration@2@QAVXMLNotationDecl@2@QAVXSModel@2@@Z 1207eea0 f   XSObjectFactory.obj
 0001:0007e0e0       ?createXSAttributeUse@XSObjectFactory@xercesc_2_5@@AAEPAVXSAttributeUse@2@QAVXSAttributeDeclaration@2@QAVXSModel@2@@Z 1207f0e0 f   XSObjectFactory.obj
 0001:0007e1d0       ?createXSWildcard@XSObjectFactory@xercesc_2_5@@AAEPAVXSWildcard@2@QAVSchemaAttDef@2@QAVXSModel@2@@Z 1207f1d0 f   XSObjectFactory.obj
 0001:0007e440       ?createXSWildcard@XSObjectFactory@xercesc_2_5@@AAEPAVXSWildcard@2@QBVContentSpecNode@2@QAVXSModel@2@@Z 1207f440 f   XSObjectFactory.obj
 0001:0007e650       ?createXSModelGroupDefinition@XSObjectFactory@xercesc_2_5@@AAEPAVXSModelGroupDefinition@2@QAVXercesGroupInfo@2@QAVXSModel@2@@Z 1207f650 f   XSObjectFactory.obj
 0001:0007e810       ?createXSAttGroupDefinition@XSObjectFactory@xercesc_2_5@@AAEPAVXSAttributeGroupDefinition@2@QAVXercesAttGroupInfo@2@QAVXSModel@2@@Z 1207f810 f   XSObjectFactory.obj
 0001:0007eb40       ?getAnnotationFromModel@XSObjectFactory@xercesc_2_5@@AAEPAVXSAnnotation@2@QAVXSModel@2@QBX@Z 1207fb40 f   XSObjectFactory.obj
 0001:0007ec30       ?putObjectInMap@XSObjectFactory@xercesc_2_5@@AAEXPAXQAVXSObject@2@@Z 1207fc30 f   XSObjectFactory.obj
 0001:0007ecd0       ?processFacets@XSObjectFactory@xercesc_2_5@@AAEXQAVDatatypeValidator@2@QAVXSModel@2@QAVXSSimpleTypeDefinition@2@@Z 1207fcd0 f   XSObjectFactory.obj
 0001:0007f960       ?processAttUse@XSObjectFactory@xercesc_2_5@@AAEXQAVSchemaAttDef@2@QAVXSAttributeUse@2@@Z 12080960 f   XSObjectFactory.obj
 0001:0007f9b0       ?isMultiValueFacetDefined@XSObjectFactory@xercesc_2_5@@AAE_NQAVDatatypeValidator@2@@Z 120809b0 f   XSObjectFactory.obj
 0001:0007f9d0       ??1?$XMLEnumerator@VKVStringPair@xercesc_2_5@@@xercesc_2_5@@UAE@XZ 120809d0 f i XSObjectFactory.obj
 0001:0007f9e0       ??_E?$XMLEnumerator@VKVStringPair@xercesc_2_5@@@xercesc_2_5@@UAEPAXI@Z 120809e0 f i XSObjectFactory.obj
 0001:0007f9e0       ??_G?$XMLEnumerator@VKVStringPair@xercesc_2_5@@@xercesc_2_5@@UAEPAXI@Z 120809e0 f i XSObjectFactory.obj
 0001:0007fa00       ?elementAt@?$BaseRefVectorOf@VScope@InScopeNamespaces@DOMNormalizer@xercesc_2_5@@@xercesc_2_5@@QAEPAVScope@InScopeNamespaces@DOMNormalizer@2@I@Z 12080a00 f i XSObjectFactory.obj
 0001:0007fa00       ?elementAt@?$BaseRefVectorOf@VXSNamespaceItem@xercesc_2_5@@@xercesc_2_5@@QAEPAVXSNamespaceItem@2@I@Z 12080a00 f i XSObjectFactory.obj
 0001:0007fa00       ?elementAt@?$BaseRefVectorOf@VSchemaInfo@xercesc_2_5@@@xercesc_2_5@@QAEPAVSchemaInfo@2@I@Z 12080a00 f i XSObjectFactory.obj
 0001:0007fa00       ?elementAt@?$BaseRefVectorOf@VSchemaElementDecl@xercesc_2_5@@@xercesc_2_5@@QAEPAVSchemaElementDecl@2@I@Z 12080a00 f i XSObjectFactory.obj
 0001:0007fa00       ?elementAt@?$BaseRefVectorOf@VSchemaAttDef@xercesc_2_5@@@xercesc_2_5@@QAEPAVSchemaAttDef@2@I@Z 12080a00 f i XSObjectFactory.obj
 0001:0007fa00       ?elementAt@?$BaseRefVectorOf@VXercesStep@xercesc_2_5@@@xercesc_2_5@@QAEPAVXercesStep@2@I@Z 12080a00 f i XSObjectFactory.obj
 0001:0007fa00       ?elementAt@?$BaseRefVectorOf@VPSVIAttribute@xercesc_2_5@@@xercesc_2_5@@QAEPAVPSVIAttribute@2@I@Z 12080a00 f i XSObjectFactory.obj
 0001:0007fa50       ?removeElementAt@?$BaseRefVectorOf@VRangeImpl@xercesc_2_5@@@xercesc_2_5@@UAEXI@Z 12080a50 f i XSObjectFactory.obj
 0001:0007fa50       ?removeElementAt@?$BaseRefVectorOf@VNodeImpl@xercesc_2_5@@@xercesc_2_5@@UAEXI@Z 12080a50 f i XSObjectFactory.obj
 0001:0007fa50       ?removeElementAt@?$BaseRefVectorOf@VNodeIteratorImpl@xercesc_2_5@@@xercesc_2_5@@UAEXI@Z 12080a50 f i XSObjectFactory.obj
 0001:0007fa50       ?removeElementAt@?$BaseRefVectorOf@VXSAttributeUse@xercesc_2_5@@@xercesc_2_5@@UAEXI@Z 12080a50 f i XSObjectFactory.obj
 0001:0007fa50       ?removeElementAt@?$BaseRefVectorOf@VXSAttributeDeclaration@xercesc_2_5@@@xercesc_2_5@@UAEXI@Z 12080a50 f i XSObjectFactory.obj
 0001:0007fa50       ?removeElementAt@?$BaseRefVectorOf@VXSAnnotation@xercesc_2_5@@@xercesc_2_5@@UAEXI@Z 12080a50 f i XSObjectFactory.obj
 0001:0007fa50       ?removeElementAt@?$BaseRefVectorOf@VXMLNumber@xercesc_2_5@@@xercesc_2_5@@UAEXI@Z 12080a50 f i XSObjectFactory.obj
 0001:0007fa50       ?removeElementAt@?$BaseRefVectorOf@VXMLElementDecl@xercesc_2_5@@@xercesc_2_5@@UAEXI@Z 12080a50 f i XSObjectFactory.obj
 0001:0007fa50       ?removeElementAt@?$BaseRefVectorOf@VXSIDCDefinition@xercesc_2_5@@@xercesc_2_5@@UAEXI@Z 12080a50 f i XSObjectFactory.obj
 0001:0007fa50       ?removeElementAt@?$BaseRefVectorOf@VXSElementDeclaration@xercesc_2_5@@@xercesc_2_5@@UAEXI@Z 12080a50 f i XSObjectFactory.obj
 0001:0007fa50       ?removeElementAt@?$BaseRefVectorOf@VKVStringPair@xercesc_2_5@@@xercesc_2_5@@UAEXI@Z 12080a50 f i XSObjectFactory.obj
 0001:0007fa50       ?removeElementAt@?$BaseRefVectorOf@VXPathMatcher@xercesc_2_5@@@xercesc_2_5@@UAEXI@Z 12080a50 f i XSObjectFactory.obj
 0001:0007fa50       ?removeElementAt@?$BaseRefVectorOf@VXSParticle@xercesc_2_5@@@xercesc_2_5@@UAEXI@Z 12080a50 f i XSObjectFactory.obj
 0001:0007fa50       ?removeElementAt@?$BaseRefVectorOf@VDOMNodeIteratorImpl@xercesc_2_5@@@xercesc_2_5@@UAEXI@Z 12080a50 f i XSObjectFactory.obj
 0001:0007fa50       ?removeElementAt@?$BaseRefVectorOf@VSchemaAttDef@xercesc_2_5@@@xercesc_2_5@@UAEXI@Z 12080a50 f i XSObjectFactory.obj
 0001:0007fa50       ?removeElementAt@?$BaseRefVectorOf@VXercesStep@xercesc_2_5@@@xercesc_2_5@@UAEXI@Z 12080a50 f i XSObjectFactory.obj
 0001:0007fa50       ?removeElementAt@?$BaseRefVectorOf@VDOMDocumentImpl@xercesc_2_5@@@xercesc_2_5@@UAEXI@Z 12080a50 f i XSObjectFactory.obj
 0001:0007fa50       ?removeElementAt@?$BaseRefVectorOf@VXSObject@xercesc_2_5@@@xercesc_2_5@@UAEXI@Z 12080a50 f i XSObjectFactory.obj
 0001:0007fa50       ?removeElementAt@?$BaseRefVectorOf@VXSMultiValueFacet@xercesc_2_5@@@xercesc_2_5@@UAEXI@Z 12080a50 f i XSObjectFactory.obj
 0001:0007fa50       ?removeElementAt@?$BaseRefVectorOf@VDatatypeValidator@xercesc_2_5@@@xercesc_2_5@@UAEXI@Z 12080a50 f i XSObjectFactory.obj
 0001:0007fa50       ?removeElementAt@?$BaseRefVectorOf@VContentSpecNode@xercesc_2_5@@@xercesc_2_5@@UAEXI@Z 12080a50 f i XSObjectFactory.obj
 0001:0007fa50       ?removeElementAt@?$BaseRefVectorOf@VIC_Field@xercesc_2_5@@@xercesc_2_5@@UAEXI@Z 12080a50 f i XSObjectFactory.obj
 0001:0007fa50       ?removeElementAt@?$BaseRefVectorOf@VDOMRangeImpl@xercesc_2_5@@@xercesc_2_5@@UAEXI@Z 12080a50 f i XSObjectFactory.obj
 0001:0007fa50       ?removeElementAt@?$BaseRefVectorOf@VXercesLocationPath@xercesc_2_5@@@xercesc_2_5@@UAEXI@Z 12080a50 f i XSObjectFactory.obj
 0001:0007fa50       ?removeElementAt@?$BaseRefVectorOf@VDOMNode@xercesc_2_5@@@xercesc_2_5@@UAEXI@Z 12080a50 f i XSObjectFactory.obj
 0001:0007fa50       ?removeElementAt@?$BaseRefVectorOf@VTreeWalkerImpl@xercesc_2_5@@@xercesc_2_5@@UAEXI@Z 12080a50 f i XSObjectFactory.obj
 0001:0007fa50       ?removeElementAt@?$BaseRefVectorOf@VIdentityConstraint@xercesc_2_5@@@xercesc_2_5@@UAEXI@Z 12080a50 f i XSObjectFactory.obj
 0001:0007fa50       ?removeElementAt@?$BaseRefVectorOf@VMatch@xercesc_2_5@@@xercesc_2_5@@UAEXI@Z 12080a50 f i XSObjectFactory.obj
 0001:0007fa50       ?removeElementAt@?$BaseRefVectorOf@VSchemaElementDecl@xercesc_2_5@@@xercesc_2_5@@UAEXI@Z 12080a50 f i XSObjectFactory.obj
 0001:0007fa50       ?removeElementAt@?$BaseRefVectorOf@VToken@xercesc_2_5@@@xercesc_2_5@@UAEXI@Z 12080a50 f i XSObjectFactory.obj
 0001:0007fa50       ?removeElementAt@?$BaseRefVectorOf@VPSVIAttribute@xercesc_2_5@@@xercesc_2_5@@UAEXI@Z 12080a50 f i XSObjectFactory.obj
 0001:0007fa50       ?removeElementAt@?$BaseRefVectorOf@VDOMImplementationSource@xercesc_2_5@@@xercesc_2_5@@UAEXI@Z 12080a50 f i XSObjectFactory.obj
 0001:0007fa50       ?removeElementAt@?$BaseRefVectorOf@VOp@xercesc_2_5@@@xercesc_2_5@@UAEXI@Z 12080a50 f i XSObjectFactory.obj
 0001:0007fa50       ?removeElementAt@?$BaseRefVectorOf@VXSSimpleTypeDefinition@xercesc_2_5@@@xercesc_2_5@@UAEXI@Z 12080a50 f i XSObjectFactory.obj
 0001:0007fa50       ?removeElementAt@?$BaseRefVectorOf@VXMLEntityDecl@xercesc_2_5@@@xercesc_2_5@@UAEXI@Z 12080a50 f i XSObjectFactory.obj
 0001:0007fa50       ?removeElementAt@?$BaseRefVectorOf@VXSFacet@xercesc_2_5@@@xercesc_2_5@@UAEXI@Z 12080a50 f i XSObjectFactory.obj
 0001:0007fa50       ?removeElementAt@?$BaseRefVectorOf@VENameMap@xercesc_2_5@@@xercesc_2_5@@UAEXI@Z 12080a50 f i XSObjectFactory.obj
 0001:0007fb00       ??1?$RefHashTableOfEnumerator@VKVStringPair@xercesc_2_5@@@xercesc_2_5@@UAE@XZ 12080b00 f i XSObjectFactory.obj
 0001:0007fbd0       ??_G?$RefVectorOf@VXSParticle@xercesc_2_5@@@xercesc_2_5@@UAEPAXI@Z 12080bd0 f i XSObjectFactory.obj
 0001:0007fbd0       ??_E?$RefVectorOf@VXSParticle@xercesc_2_5@@@xercesc_2_5@@UAEPAXI@Z 12080bd0 f i XSObjectFactory.obj
 0001:0007fbf0       ??1?$RefVectorOf@VXSParticle@xercesc_2_5@@@xercesc_2_5@@UAE@XZ 12080bf0 f i XSObjectFactory.obj
 0001:0007fc70       ??1?$BaseRefVectorOf@VXSParticle@xercesc_2_5@@@xercesc_2_5@@UAE@XZ 12080c70 f i XSObjectFactory.obj
 0001:0007fc80       ??_G?$RefVectorOf@VXSSimpleTypeDefinition@xercesc_2_5@@@xercesc_2_5@@UAEPAXI@Z 12080c80 f i XSObjectFactory.obj
 0001:0007fc80       ??_E?$RefVectorOf@VXSSimpleTypeDefinition@xercesc_2_5@@@xercesc_2_5@@UAEPAXI@Z 12080c80 f i XSObjectFactory.obj
 0001:0007fca0       ??1?$RefVectorOf@VXSSimpleTypeDefinition@xercesc_2_5@@@xercesc_2_5@@UAE@XZ 12080ca0 f i XSObjectFactory.obj
 0001:0007fd20       ??1?$BaseRefVectorOf@VXSSimpleTypeDefinition@xercesc_2_5@@@xercesc_2_5@@UAE@XZ 12080d20 f i XSObjectFactory.obj
 0001:0007fd30       ??_E?$RefVectorOf@VXSAttributeUse@xercesc_2_5@@@xercesc_2_5@@UAEPAXI@Z 12080d30 f i XSObjectFactory.obj
 0001:0007fd30       ??_G?$RefVectorOf@VXSAttributeUse@xercesc_2_5@@@xercesc_2_5@@UAEPAXI@Z 12080d30 f i XSObjectFactory.obj
 0001:0007fd50       ??1?$RefVectorOf@VXSAttributeUse@xercesc_2_5@@@xercesc_2_5@@UAE@XZ 12080d50 f i XSObjectFactory.obj
 0001:0007fdd0       ??1?$BaseRefVectorOf@VXSAttributeUse@xercesc_2_5@@@xercesc_2_5@@UAE@XZ 12080dd0 f i XSObjectFactory.obj
 0001:0007fde0       ??_E?$RefVectorOf@VXSFacet@xercesc_2_5@@@xercesc_2_5@@UAEPAXI@Z 12080de0 f i XSObjectFactory.obj
 0001:0007fde0       ??_G?$RefVectorOf@VXSFacet@xercesc_2_5@@@xercesc_2_5@@UAEPAXI@Z 12080de0 f i XSObjectFactory.obj
 0001:0007fe00       ??1?$RefVectorOf@VXSFacet@xercesc_2_5@@@xercesc_2_5@@UAE@XZ 12080e00 f i XSObjectFactory.obj
 0001:0007fe80       ??1?$BaseRefVectorOf@VXSFacet@xercesc_2_5@@@xercesc_2_5@@UAE@XZ 12080e80 f i XSObjectFactory.obj
 0001:0007fe90       ??_G?$RefVectorOf@VXSMultiValueFacet@xercesc_2_5@@@xercesc_2_5@@UAEPAXI@Z 12080e90 f i XSObjectFactory.obj
 0001:0007fe90       ??_E?$RefVectorOf@VXSMultiValueFacet@xercesc_2_5@@@xercesc_2_5@@UAEPAXI@Z 12080e90 f i XSObjectFactory.obj
 0001:0007feb0       ??1?$RefVectorOf@VXSMultiValueFacet@xercesc_2_5@@@xercesc_2_5@@UAE@XZ 12080eb0 f i XSObjectFactory.obj
 0001:0007ff30       ??1?$BaseRefVectorOf@VXSMultiValueFacet@xercesc_2_5@@@xercesc_2_5@@UAE@XZ 12080f30 f i XSObjectFactory.obj
 0001:0007ff40       ??_E?$RefHashTableOfEnumerator@VKVStringPair@xercesc_2_5@@@xercesc_2_5@@UAEPAXI@Z 12080f40 f i XSObjectFactory.obj
 0001:0007ff40       ??_G?$RefHashTableOfEnumerator@VKVStringPair@xercesc_2_5@@@xercesc_2_5@@UAEPAXI@Z 12080f40 f i XSObjectFactory.obj
 0001:0007ff60       ??0?$RefHash2KeysTableOf@VXSIDCDefinition@xercesc_2_5@@@xercesc_2_5@@QAE@I_NQAVMemoryManager@1@@Z 12080f60 f i XSObjectFactory.obj
 0001:00080060       ?put@?$RefHash2KeysTableOf@VXSIDCDefinition@xercesc_2_5@@@xercesc_2_5@@QAEXPAXHQAVXSIDCDefinition@2@@Z 12081060 f i XSObjectFactory.obj
 0001:00080180       ??0?$BaseRefVectorOf@VXSAttributeUse@xercesc_2_5@@@xercesc_2_5@@QAE@I_NQAVMemoryManager@1@@Z 12081180 f i XSObjectFactory.obj
 0001:000801e0       ??0?$BaseRefVectorOf@VXSFacet@xercesc_2_5@@@xercesc_2_5@@QAE@I_NQAVMemoryManager@1@@Z 120811e0 f i XSObjectFactory.obj
 0001:00080240       ??0?$BaseRefVectorOf@VXSMultiValueFacet@xercesc_2_5@@@xercesc_2_5@@QAE@I_NQAVMemoryManager@1@@Z 12081240 f i XSObjectFactory.obj
 0001:000802a0       ??_E?$RefVectorOf@VXSIDCDefinition@xercesc_2_5@@@xercesc_2_5@@UAEPAXI@Z 120812a0 f i XSObjectFactory.obj
 0001:000802a0       ??_G?$RefVectorOf@VXSIDCDefinition@xercesc_2_5@@@xercesc_2_5@@UAEPAXI@Z 120812a0 f i XSObjectFactory.obj
 0001:000802c0       ??1?$RefVectorOf@VXSIDCDefinition@xercesc_2_5@@@xercesc_2_5@@UAE@XZ 120812c0 f i XSObjectFactory.obj
 0001:00080340       ??1?$BaseRefVectorOf@VXSIDCDefinition@xercesc_2_5@@@xercesc_2_5@@UAE@XZ 12081340 f i XSObjectFactory.obj
 0001:00080350       ??0?$BaseRefVectorOf@VXSIDCDefinition@xercesc_2_5@@@xercesc_2_5@@QAE@I_NQAVMemoryManager@1@@Z 12081350 f i XSObjectFactory.obj
 0001:000803b0       ?isEquivalent@XTemplateComparator@xercesc_2_5@@SA_NQAV?$ValueVectorOf@PAVSchemaElementDecl@xercesc_2_5@@@2@0@Z 120813b0 f   XTemplateComparator.obj
 0001:00080480       ?isEquivalent@XTemplateComparator@xercesc_2_5@@SA_NQAV?$ValueVectorOf@I@2@0@Z 12081480 f   XTemplateComparator.obj
 0001:00080540       ?isEquivalent@XTemplateComparator@xercesc_2_5@@SA_NQAV?$RefArrayVectorOf@G@2@0@Z 12081540 f   XTemplateComparator.obj
 0001:00080640       ?isEquivalent@XTemplateComparator@xercesc_2_5@@SA_NQAV?$RefVectorOf@VSchemaAttDef@xercesc_2_5@@@2@0@Z 12081640 f   XTemplateComparator.obj
 0001:00080710       ?isEquivalent@XTemplateComparator@xercesc_2_5@@SA_NQAV?$RefVectorOf@VSchemaElementDecl@xercesc_2_5@@@2@0@Z 12081710 f   XTemplateComparator.obj
 0001:000807e0       ?isEquivalent@XTemplateComparator@xercesc_2_5@@SA_NQAV?$RefVectorOf@VContentSpecNode@xercesc_2_5@@@2@0@Z 120817e0 f   XTemplateComparator.obj
 0001:000808b0       ?isEquivalent@XTemplateComparator@xercesc_2_5@@SA_NQAV?$RefVectorOf@VIC_Field@xercesc_2_5@@@2@0@Z 120818b0 f   XTemplateComparator.obj
 0001:00080980       ?isEquivalent@XTemplateComparator@xercesc_2_5@@SA_NQAV?$RefVectorOf@VDatatypeValidator@xercesc_2_5@@@2@0@Z 12081980 f   XTemplateComparator.obj
 0001:00080a50       ?isEquivalent@XTemplateComparator@xercesc_2_5@@SA_NQAV?$RefVectorOf@VIdentityConstraint@xercesc_2_5@@@2@0@Z 12081a50 f   XTemplateComparator.obj
 0001:00080b20       ?isEquivalent@XTemplateComparator@xercesc_2_5@@SA_NQAV?$RefVectorOf@VXMLNumber@xercesc_2_5@@@2@0@Z 12081b20 f   XTemplateComparator.obj
 0001:00080bf0       ?isEquivalent@XTemplateComparator@xercesc_2_5@@SA_NQAV?$RefVectorOf@VXercesLocationPath@xercesc_2_5@@@2@0@Z 12081bf0 f   XTemplateComparator.obj
 0001:00080cc0       ?isEquivalent@XTemplateComparator@xercesc_2_5@@SA_NQAV?$RefVectorOf@VXercesStep@xercesc_2_5@@@2@0@Z 12081cc0 f   XTemplateComparator.obj
 0001:00080d90       ?isEquivalent@XTemplateComparator@xercesc_2_5@@SA_NQAV?$RefHashTableOf@VKVStringPair@xercesc_2_5@@@2@0@Z 12081d90 f   XTemplateComparator.obj
 0001:000810e0       ?isEquivalent@XTemplateComparator@xercesc_2_5@@SA_NQAV?$RefHashTableOf@VXMLAttDef@xercesc_2_5@@@2@0@Z 120820e0 f   XTemplateComparator.obj
 0001:00081430       ?isEquivalent@XTemplateComparator@xercesc_2_5@@SA_NQAV?$RefHashTableOf@VDTDAttDef@xercesc_2_5@@@2@0@Z 12082430 f   XTemplateComparator.obj
 0001:00081780       ?isEquivalent@XTemplateComparator@xercesc_2_5@@SA_NQAV?$RefHashTableOf@VComplexTypeInfo@xercesc_2_5@@@2@0@Z 12082780 f   XTemplateComparator.obj
 0001:00081ad0       ?isEquivalent@XTemplateComparator@xercesc_2_5@@SA_NQAV?$RefHashTableOf@VXercesGroupInfo@xercesc_2_5@@@2@0@Z 12082ad0 f   XTemplateComparator.obj
 0001:00081e20       ?isEquivalent@XTemplateComparator@xercesc_2_5@@SA_NQAV?$RefHashTableOf@VXercesAttGroupInfo@xercesc_2_5@@@2@0@Z 12082e20 f   XTemplateComparator.obj
 0001:00082170       ?isEquivalent@XTemplateComparator@xercesc_2_5@@SA_NQAV?$RefHashTableOf@VXMLRefInfo@xercesc_2_5@@@2@0@Z 12083170 f   XTemplateComparator.obj
 0001:000824c0       ?isEquivalent@XTemplateComparator@xercesc_2_5@@SA_NQAV?$RefHashTableOf@VDatatypeValidator@xercesc_2_5@@@2@0@Z 120834c0 f   XTemplateComparator.obj
 0001:00082810       ?isEquivalent@XTemplateComparator@xercesc_2_5@@SA_NQAV?$RefHashTableOf@VGrammar@xercesc_2_5@@@2@0@Z 12083810 f   XTemplateComparator.obj
 0001:00082b60       ?isEquivalent@XTemplateComparator@xercesc_2_5@@SA_NQAV?$RefHash2KeysTableOf@VSchemaAttDef@xercesc_2_5@@@2@0@Z 12083b60 f   XTemplateComparator.obj
 0001:00082ea0       ?isEquivalent@XTemplateComparator@xercesc_2_5@@SA_NQAV?$RefHash2KeysTableOf@V?$ValueVectorOf@PAVSchemaElementDecl@xercesc_2_5@@@xercesc_2_5@@@2@0@Z 12083ea0 f   XTemplateComparator.obj
 0001:000831e0       ?isEquivalent@XTemplateComparator@xercesc_2_5@@SA_NQAV?$RefHash3KeysIdPool@VSchemaElementDecl@xercesc_2_5@@@2@0@Z 120841e0 f   XTemplateComparator.obj
 0001:000834e0       ?isEquivalent@XTemplateComparator@xercesc_2_5@@SA_NQAV?$NameIdPool@VDTDElementDecl@xercesc_2_5@@@2@0@Z 120844e0 f   XTemplateComparator.obj
 0001:00083690       ?isEquivalent@XTemplateComparator@xercesc_2_5@@SA_NQAV?$NameIdPool@VDTDEntityDecl@xercesc_2_5@@@2@0@Z 12084690 f   XTemplateComparator.obj
 0001:00083840       ?isEquivalent@XTemplateComparator@xercesc_2_5@@SA_NQAV?$NameIdPool@VXMLNotationDecl@xercesc_2_5@@@2@0@Z 12084840 f   XTemplateComparator.obj
 0001:000839f0       ??1?$XMLEnumerator@VDTDAttDef@xercesc_2_5@@@xercesc_2_5@@UAE@XZ 120849f0 f i XTemplateComparator.obj
 0001:00083a00       ??1?$XMLEnumerator@V?$ValueVectorOf@PAVSchemaElementDecl@xercesc_2_5@@@xercesc_2_5@@@xercesc_2_5@@UAE@XZ 12084a00 f i XTemplateComparator.obj
 0001:00083a10       ??_G?$XMLEnumerator@VDTDAttDef@xercesc_2_5@@@xercesc_2_5@@UAEPAXI@Z 12084a10 f i XTemplateComparator.obj
 0001:00083a10       ??_E?$XMLEnumerator@VDTDAttDef@xercesc_2_5@@@xercesc_2_5@@UAEPAXI@Z 12084a10 f i XTemplateComparator.obj
 0001:00083a30       ??_E?$XMLEnumerator@V?$ValueVectorOf@PAVSchemaElementDecl@xercesc_2_5@@@xercesc_2_5@@@xercesc_2_5@@UAEPAXI@Z 12084a30 f i XTemplateComparator.obj
 0001:00083a30       ??_G?$XMLEnumerator@V?$ValueVectorOf@PAVSchemaElementDecl@xercesc_2_5@@@xercesc_2_5@@@xercesc_2_5@@UAEPAXI@Z 12084a30 f i XTemplateComparator.obj
 0001:00083a50       ?get@?$RefHash2KeysTableOf@V?$ValueVectorOf@PAVSchemaElementDecl@xercesc_2_5@@@xercesc_2_5@@@xercesc_2_5@@QAEPAV?$ValueVectorOf@PAVSchemaElementDecl@xercesc_2_5@@@2@QBXH@Z 12084a50 f i XTemplateComparator.obj
 0001:00083a50       ?get@?$RefHash2KeysTableOf@VSchemaAttDef@xercesc_2_5@@@xercesc_2_5@@QAEPAVSchemaAttDef@2@QBXH@Z 12084a50 f i XTemplateComparator.obj
 0001:00083af0       ??1?$RefHashTableOfEnumerator@VDTDAttDef@xercesc_2_5@@@xercesc_2_5@@UAE@XZ 12084af0 f i XTemplateComparator.obj
 0001:00083bc0       ??1?$RefHash2KeysTableOfEnumerator@V?$ValueVectorOf@PAVSchemaElementDecl@xercesc_2_5@@@xercesc_2_5@@@xercesc_2_5@@UAE@XZ 12084bc0 f i XTemplateComparator.obj
 0001:00083cc0       ?nextElement@?$RefHash2KeysTableOfEnumerator@V?$ValueVectorOf@PAVSchemaElementDecl@xercesc_2_5@@@xercesc_2_5@@@xercesc_2_5@@UAEAAV?$ValueVectorOf@PAVSchemaElementDecl@xercesc_2_5@@@2@XZ 12084cc0 f i XTemplateComparator.obj
 0001:00083cc0       ?nextElement@?$RefHash2KeysTableOfEnumerator@VSchemaAttDef@xercesc_2_5@@@xercesc_2_5@@UAEAAVSchemaAttDef@2@XZ 12084cc0 f i XTemplateComparator.obj
 0001:00083d50       ??_G?$RefHash2KeysTableOf@VSchemaAttDef@xercesc_2_5@@@xercesc_2_5@@QAEPAXI@Z 12084d50 f i XTemplateComparator.obj
 0001:00083de0       ??_G?$RefHash3KeysIdPool@VSchemaElementDecl@xercesc_2_5@@@xercesc_2_5@@QAEPAXI@Z 12084de0 f i XTemplateComparator.obj
 0001:00083e80       ??_E?$RefHashTableOfEnumerator@VDTDAttDef@xercesc_2_5@@@xercesc_2_5@@UAEPAXI@Z 12084e80 f i XTemplateComparator.obj
 0001:00083e80       ??_G?$RefHashTableOfEnumerator@VDTDAttDef@xercesc_2_5@@@xercesc_2_5@@UAEPAXI@Z 12084e80 f i XTemplateComparator.obj
 0001:00083ea0       ??_G?$RefHashTableOf@VKVStringPair@xercesc_2_5@@@xercesc_2_5@@QAEPAXI@Z 12084ea0 f i XTemplateComparator.obj
 0001:00083ea0       ??_G?$RefHashTableOf@VGrammar@xercesc_2_5@@@xercesc_2_5@@QAEPAXI@Z 12084ea0 f i XTemplateComparator.obj
 0001:00083ea0       ??_G?$RefHashTableOf@VXMLRefInfo@xercesc_2_5@@@xercesc_2_5@@QAEPAXI@Z 12084ea0 f i XTemplateComparator.obj
 0001:00083ea0       ??_G?$RefHashTableOf@VXercesAttGroupInfo@xercesc_2_5@@@xercesc_2_5@@QAEPAXI@Z 12084ea0 f i XTemplateComparator.obj
 0001:00083ea0       ??_G?$RefHashTableOf@VDTDAttDef@xercesc_2_5@@@xercesc_2_5@@QAEPAXI@Z 12084ea0 f i XTemplateComparator.obj
 0001:00083ea0       ??_G?$RefHashTableOf@VXercesGroupInfo@xercesc_2_5@@@xercesc_2_5@@QAEPAXI@Z 12084ea0 f i XTemplateComparator.obj
 0001:00083ea0       ??_G?$RefHashTableOf@VDatatypeValidator@xercesc_2_5@@@xercesc_2_5@@QAEPAXI@Z 12084ea0 f i XTemplateComparator.obj
 0001:00083ea0       ??_G?$RefHashTableOf@VXMLAttDef@xercesc_2_5@@@xercesc_2_5@@QAEPAXI@Z 12084ea0 f i XTemplateComparator.obj
 0001:00083ea0       ??_G?$RefHashTableOf@VComplexTypeInfo@xercesc_2_5@@@xercesc_2_5@@QAEPAXI@Z 12084ea0 f i XTemplateComparator.obj
 0001:00083f30       ??_E?$RefHash2KeysTableOfEnumerator@V?$ValueVectorOf@PAVSchemaElementDecl@xercesc_2_5@@@xercesc_2_5@@@xercesc_2_5@@UAEPAXI@Z 12084f30 f i XTemplateComparator.obj
 0001:00083f30       ??_G?$RefHash2KeysTableOfEnumerator@V?$ValueVectorOf@PAVSchemaElementDecl@xercesc_2_5@@@xercesc_2_5@@@xercesc_2_5@@UAEPAXI@Z 12084f30 f i XTemplateComparator.obj
 0001:00083f50       ??_G?$RefHash2KeysTableOf@V?$ValueVectorOf@PAVSchemaElementDecl@xercesc_2_5@@@xercesc_2_5@@@xercesc_2_5@@QAEPAXI@Z 12084f50 f i XTemplateComparator.obj
 0001:00084010       ?findNext@?$RefHash3KeysIdPoolEnumerator@VSchemaElementDecl@xercesc_2_5@@@xercesc_2_5@@AAEXXZ 12085010 f i XTemplateComparator.obj
 0001:00084060       ?storeObject@XTemplateSerializer@xercesc_2_5@@SAXQAV?$ValueVectorOf@PAVSchemaElementDecl@xercesc_2_5@@@2@AAVXSerializeEngine@2@@Z 12085060 f   XTemplateSerializer.obj
 0001:000840e0       ?loadObject@XTemplateSerializer@xercesc_2_5@@SAXPAPAV?$ValueVectorOf@PAVSchemaElementDecl@xercesc_2_5@@@2@H_NAAVXSerializeEngine@2@@Z 120850e0 f   XTemplateSerializer.obj
 0001:00084290       ?storeObject@XTemplateSerializer@xercesc_2_5@@SAXQAV?$ValueVectorOf@I@2@AAVXSerializeEngine@2@@Z 12085290 f   XTemplateSerializer.obj
 0001:00084310       ?loadObject@XTemplateSerializer@xercesc_2_5@@SAXPAPAV?$ValueVectorOf@I@2@H_NAAVXSerializeEngine@2@@Z 12085310 f   XTemplateSerializer.obj
 0001:000844b0       ?storeObject@XTemplateSerializer@xercesc_2_5@@SAXQAV?$RefArrayVectorOf@G@2@AAVXSerializeEngine@2@@Z 120854b0 f   XTemplateSerializer.obj
 0001:00084530       ?loadObject@XTemplateSerializer@xercesc_2_5@@SAXPAPAV?$RefArrayVectorOf@G@2@H_NAAVXSerializeEngine@2@@Z 12085530 f   XTemplateSerializer.obj
 0001:000846f0       ?loadObject@XTemplateSerializer@xercesc_2_5@@SAXPAPAV?$RefVectorOf@VSchemaAttDef@xercesc_2_5@@@2@H_NAAVXSerializeEngine@2@@Z 120856f0 f   XTemplateSerializer.obj
 0001:000848a0       ?loadObject@XTemplateSerializer@xercesc_2_5@@SAXPAPAV?$RefVectorOf@VSchemaElementDecl@xercesc_2_5@@@2@H_NAAVXSerializeEngine@2@@Z 120858a0 f   XTemplateSerializer.obj
 0001:00084a50       ?loadObject@XTemplateSerializer@xercesc_2_5@@SAXPAPAV?$RefVectorOf@VContentSpecNode@xercesc_2_5@@@2@H_NAAVXSerializeEngine@2@@Z 12085a50 f   XTemplateSerializer.obj
 0001:00084c00       ?storeObject@XTemplateSerializer@xercesc_2_5@@SAXQAV?$RefVectorOf@VSchemaAttDef@xercesc_2_5@@@2@AAVXSerializeEngine@2@@Z 12085c00 f   XTemplateSerializer.obj
 0001:00084c00       ?storeObject@XTemplateSerializer@xercesc_2_5@@SAXQAV?$RefVectorOf@VContentSpecNode@xercesc_2_5@@@2@AAVXSerializeEngine@2@@Z 12085c00 f   XTemplateSerializer.obj
 0001:00084c00       ?storeObject@XTemplateSerializer@xercesc_2_5@@SAXQAV?$RefVectorOf@VXMLNumber@xercesc_2_5@@@2@AAVXSerializeEngine@2@@Z 12085c00 f   XTemplateSerializer.obj
 0001:00084c00       ?storeObject@XTemplateSerializer@xercesc_2_5@@SAXQAV?$RefVectorOf@VXercesLocationPath@xercesc_2_5@@@2@AAVXSerializeEngine@2@@Z 12085c00 f   XTemplateSerializer.obj
 0001:00084c00       ?storeObject@XTemplateSerializer@xercesc_2_5@@SAXQAV?$RefVectorOf@VXercesStep@xercesc_2_5@@@2@AAVXSerializeEngine@2@@Z 12085c00 f   XTemplateSerializer.obj
 0001:00084c00       ?storeObject@XTemplateSerializer@xercesc_2_5@@SAXQAV?$RefVectorOf@VIC_Field@xercesc_2_5@@@2@AAVXSerializeEngine@2@@Z 12085c00 f   XTemplateSerializer.obj
 0001:00084c00       ?storeObject@XTemplateSerializer@xercesc_2_5@@SAXQAV?$RefVectorOf@VSchemaElementDecl@xercesc_2_5@@@2@AAVXSerializeEngine@2@@Z 12085c00 f   XTemplateSerializer.obj
 0001:00084c80       ?loadObject@XTemplateSerializer@xercesc_2_5@@SAXPAPAV?$RefVectorOf@VIC_Field@xercesc_2_5@@@2@H_NAAVXSerializeEngine@2@@Z 12085c80 f   XTemplateSerializer.obj
 0001:00084e30       ?storeObject@XTemplateSerializer@xercesc_2_5@@SAXQAV?$RefVectorOf@VDatatypeValidator@xercesc_2_5@@@2@AAVXSerializeEngine@2@@Z 12085e30 f   XTemplateSerializer.obj
 0001:00084eb0       ?loadObject@XTemplateSerializer@xercesc_2_5@@SAXPAPAV?$RefVectorOf@VDatatypeValidator@xercesc_2_5@@@2@H_NAAVXSerializeEngine@2@@Z 12085eb0 f   XTemplateSerializer.obj
 0001:00085060       ?storeObject@XTemplateSerializer@xercesc_2_5@@SAXQAV?$RefVectorOf@VIdentityConstraint@xercesc_2_5@@@2@AAVXSerializeEngine@2@@Z 12086060 f   XTemplateSerializer.obj
 0001:000850e0       ?loadObject@XTemplateSerializer@xercesc_2_5@@SAXPAPAV?$RefVectorOf@VIdentityConstraint@xercesc_2_5@@@2@H_NAAVXSerializeEngine@2@@Z 120860e0 f   XTemplateSerializer.obj
 0001:00085290       ?loadObject@XTemplateSerializer@xercesc_2_5@@SAXPAPAV?$RefVectorOf@VXMLNumber@xercesc_2_5@@@2@H_NW4NumberType@XMLNumber@2@AAVXSerializeEngine@2@@Z 12086290 f   XTemplateSerializer.obj
 0001:00085440       ?loadObject@XTemplateSerializer@xercesc_2_5@@SAXPAPAV?$RefVectorOf@VXercesLocationPath@xercesc_2_5@@@2@H_NAAVXSerializeEngine@2@@Z 12086440 f   XTemplateSerializer.obj
 0001:000855f0       ?loadObject@XTemplateSerializer@xercesc_2_5@@SAXPAPAV?$RefVectorOf@VXercesStep@xercesc_2_5@@@2@H_NAAVXSerializeEngine@2@@Z 120865f0 f   XTemplateSerializer.obj
 0001:000857a0       ?storeObject@XTemplateSerializer@xercesc_2_5@@SAXQAV?$RefHashTableOf@VKVStringPair@xercesc_2_5@@@2@AAVXSerializeEngine@2@@Z 120867a0 f   XTemplateSerializer.obj
 0001:000859d0       ?loadObject@XTemplateSerializer@xercesc_2_5@@SAXPAPAV?$RefHashTableOf@VKVStringPair@xercesc_2_5@@@2@H_NAAVXSerializeEngine@2@@Z 120869d0 f   XTemplateSerializer.obj
 0001:00085cf0       ?storeObject@XTemplateSerializer@xercesc_2_5@@SAXQAV?$RefHashTableOf@VXMLAttDef@xercesc_2_5@@@2@AAVXSerializeEngine@2@@Z 12086cf0 f   XTemplateSerializer.obj
 0001:00085f20       ?loadObject@XTemplateSerializer@xercesc_2_5@@SAXPAPAV?$RefHashTableOf@VXMLAttDef@xercesc_2_5@@@2@H_NAAVXSerializeEngine@2@@Z 12086f20 f   XTemplateSerializer.obj
 0001:00086240       ?storeObject@XTemplateSerializer@xercesc_2_5@@SAXQAV?$RefHashTableOf@VDTDAttDef@xercesc_2_5@@@2@AAVXSerializeEngine@2@@Z 12087240 f   XTemplateSerializer.obj
 0001:00086470       ?loadObject@XTemplateSerializer@xercesc_2_5@@SAXPAPAV?$RefHashTableOf@VDTDAttDef@xercesc_2_5@@@2@H_NAAVXSerializeEngine@2@@Z 12087470 f   XTemplateSerializer.obj
 0001:00086790       ?storeObject@XTemplateSerializer@xercesc_2_5@@SAXQAV?$RefHashTableOf@VComplexTypeInfo@xercesc_2_5@@@2@AAVXSerializeEngine@2@@Z 12087790 f   XTemplateSerializer.obj
 0001:000869c0       ?loadObject@XTemplateSerializer@xercesc_2_5@@SAXPAPAV?$RefHashTableOf@VComplexTypeInfo@xercesc_2_5@@@2@H_NAAVXSerializeEngine@2@@Z 120879c0 f   XTemplateSerializer.obj
 0001:00086ce0       ?storeObject@XTemplateSerializer@xercesc_2_5@@SAXQAV?$RefHashTableOf@VXercesGroupInfo@xercesc_2_5@@@2@AAVXSerializeEngine@2@@Z 12087ce0 f   XTemplateSerializer.obj
 0001:00086f10       ?loadObject@XTemplateSerializer@xercesc_2_5@@SAXPAPAV?$RefHashTableOf@VXercesGroupInfo@xercesc_2_5@@@2@H_NAAVXSerializeEngine@2@@Z 12087f10 f   XTemplateSerializer.obj
 0001:00087230       ?storeObject@XTemplateSerializer@xercesc_2_5@@SAXQAV?$RefHashTableOf@VXercesAttGroupInfo@xercesc_2_5@@@2@AAVXSerializeEngine@2@@Z 12088230 f   XTemplateSerializer.obj
 0001:00087460       ?loadObject@XTemplateSerializer@xercesc_2_5@@SAXPAPAV?$RefHashTableOf@VXercesAttGroupInfo@xercesc_2_5@@@2@H_NAAVXSerializeEngine@2@@Z 12088460 f   XTemplateSerializer.obj
 0001:00087780       ?storeObject@XTemplateSerializer@xercesc_2_5@@SAXQAV?$RefHashTableOf@VXMLRefInfo@xercesc_2_5@@@2@AAVXSerializeEngine@2@@Z 12088780 f   XTemplateSerializer.obj
 0001:000879b0       ?loadObject@XTemplateSerializer@xercesc_2_5@@SAXPAPAV?$RefHashTableOf@VXMLRefInfo@xercesc_2_5@@@2@H_NAAVXSerializeEngine@2@@Z 120889b0 f   XTemplateSerializer.obj
 0001:00087cd0       ?storeObject@XTemplateSerializer@xercesc_2_5@@SAXQAV?$RefHashTableOf@VDatatypeValidator@xercesc_2_5@@@2@AAVXSerializeEngine@2@@Z 12088cd0 f   XTemplateSerializer.obj
 0001:00087f00       ?loadObject@XTemplateSerializer@xercesc_2_5@@SAXPAPAV?$RefHashTableOf@VDatatypeValidator@xercesc_2_5@@@2@H_NAAVXSerializeEngine@2@@Z 12088f00 f   XTemplateSerializer.obj
 0001:00088210       ?storeObject@XTemplateSerializer@xercesc_2_5@@SAXQAV?$RefHashTableOf@VGrammar@xercesc_2_5@@@2@AAVXSerializeEngine@2@@Z 12089210 f   XTemplateSerializer.obj
 0001:00088440       ?loadObject@XTemplateSerializer@xercesc_2_5@@SAXPAPAV?$RefHashTableOf@VGrammar@xercesc_2_5@@@2@H_NAAVXSerializeEngine@2@@Z 12089440 f   XTemplateSerializer.obj
 0001:00088750       ?storeObject@XTemplateSerializer@xercesc_2_5@@SAXQAV?$RefHashTableOf@VXSAnnotation@xercesc_2_5@@@2@AAVXSerializeEngine@2@@Z 12089750 f   XTemplateSerializer.obj
 0001:00088a40       ?loadObject@XTemplateSerializer@xercesc_2_5@@SAXPAPAV?$RefHashTableOf@VXSAnnotation@xercesc_2_5@@@2@H_NAAVXSerializeEngine@2@@Z 12089a40 f   XTemplateSerializer.obj
 0001:00088d70       ?storeObject@XTemplateSerializer@xercesc_2_5@@SAXQAV?$RefHash2KeysTableOf@VSchemaAttDef@xercesc_2_5@@@2@AAVXSerializeEngine@2@@Z 12089d70 f   XTemplateSerializer.obj
 0001:00088fb0       ?loadObject@XTemplateSerializer@xercesc_2_5@@SAXPAPAV?$RefHash2KeysTableOf@VSchemaAttDef@xercesc_2_5@@@2@H_NAAVXSerializeEngine@2@@Z 12089fb0 f   XTemplateSerializer.obj
 0001:00089270       ?storeObject@XTemplateSerializer@xercesc_2_5@@SAXQAV?$RefHash2KeysTableOf@V?$ValueVectorOf@PAVSchemaElementDecl@xercesc_2_5@@@xercesc_2_5@@@2@AAVXSerializeEngine@2@@Z 1208a270 f   XTemplateSerializer.obj
 0001:000894e0       ?loadObject@XTemplateSerializer@xercesc_2_5@@SAXPAPAV?$RefHash2KeysTableOf@V?$ValueVectorOf@PAVSchemaElementDecl@xercesc_2_5@@@xercesc_2_5@@@2@H_NAAVXSerializeEngine@2@@Z 1208a4e0 f   XTemplateSerializer.obj
 0001:000897b0       ?storeObject@XTemplateSerializer@xercesc_2_5@@SAXQAV?$RefHash3KeysIdPool@VSchemaElementDecl@xercesc_2_5@@@2@AAVXSerializeEngine@2@@Z 1208a7b0 f   XTemplateSerializer.obj
 0001:00089970       ?loadObject@XTemplateSerializer@xercesc_2_5@@SAXPAPAV?$RefHash3KeysIdPool@VSchemaElementDecl@xercesc_2_5@@@2@H_NHAAVXSerializeEngine@2@@Z 1208a970 f   XTemplateSerializer.obj
 0001:00089d10       ?storeObject@XTemplateSerializer@xercesc_2_5@@SAXQAV?$NameIdPool@VDTDElementDecl@xercesc_2_5@@@2@AAVXSerializeEngine@2@@Z 1208ad10 f   XTemplateSerializer.obj
 0001:00089dc0       ?loadObject@XTemplateSerializer@xercesc_2_5@@SAXPAPAV?$NameIdPool@VDTDElementDecl@xercesc_2_5@@@2@HHAAVXSerializeEngine@2@@Z 1208adc0 f   XTemplateSerializer.obj
 0001:0008a120       ?storeObject@XTemplateSerializer@xercesc_2_5@@SAXQAV?$NameIdPool@VDTDEntityDecl@xercesc_2_5@@@2@AAVXSerializeEngine@2@@Z 1208b120 f   XTemplateSerializer.obj
 0001:0008a1d0       ?loadObject@XTemplateSerializer@xercesc_2_5@@SAXPAPAV?$NameIdPool@VDTDEntityDecl@xercesc_2_5@@@2@HHAAVXSerializeEngine@2@@Z 1208b1d0 f   XTemplateSerializer.obj
 0001:0008a550       ?storeObject@XTemplateSerializer@xercesc_2_5@@SAXQAV?$NameIdPool@VXMLNotationDecl@xercesc_2_5@@@2@AAVXSerializeEngine@2@@Z 1208b550 f   XTemplateSerializer.obj
 0001:0008a600       ?loadObject@XTemplateSerializer@xercesc_2_5@@SAXPAPAV?$NameIdPool@VXMLNotationDecl@xercesc_2_5@@@2@HHAAVXSerializeEngine@2@@Z 1208b600 f   XTemplateSerializer.obj
 0001:0008a950       ??1?$XMLEnumerator@VXSAnnotation@xercesc_2_5@@@xercesc_2_5@@UAE@XZ 1208b950 f i XTemplateSerializer.obj
 0001:0008a960       ??_E?$XMLEnumerator@VXSAnnotation@xercesc_2_5@@@xercesc_2_5@@UAEPAXI@Z 1208b960 f i XTemplateSerializer.obj
 0001:0008a960       ??_G?$XMLEnumerator@VXSAnnotation@xercesc_2_5@@@xercesc_2_5@@UAEPAXI@Z 1208b960 f i XTemplateSerializer.obj
 0001:0008a980       ??1?$RefHashTableOfEnumerator@VXSAnnotation@xercesc_2_5@@@xercesc_2_5@@UAE@XZ 1208b980 f i XTemplateSerializer.obj
 0001:0008aa50       ??_E?$RefVectorOf@VDatatypeValidator@xercesc_2_5@@@xercesc_2_5@@UAEPAXI@Z 1208ba50 f i XTemplateSerializer.obj
 0001:0008aa50       ??_G?$RefVectorOf@VDatatypeValidator@xercesc_2_5@@@xercesc_2_5@@UAEPAXI@Z 1208ba50 f i XTemplateSerializer.obj
 0001:0008aa70       ??1?$RefVectorOf@VDatatypeValidator@xercesc_2_5@@@xercesc_2_5@@UAE@XZ 1208ba70 f i XTemplateSerializer.obj
 0001:0008aaf0       ??1?$BaseRefVectorOf@VDatatypeValidator@xercesc_2_5@@@xercesc_2_5@@UAE@XZ 1208baf0 f i XTemplateSerializer.obj
 0001:0008ab00       ??_G?$RefVectorOf@VXercesStep@xercesc_2_5@@@xercesc_2_5@@UAEPAXI@Z 1208bb00 f i XTemplateSerializer.obj
 0001:0008ab00       ??_E?$RefVectorOf@VXercesStep@xercesc_2_5@@@xercesc_2_5@@UAEPAXI@Z 1208bb00 f i XTemplateSerializer.obj
 0001:0008ab20       ??1?$RefVectorOf@VXercesStep@xercesc_2_5@@@xercesc_2_5@@UAE@XZ 1208bb20 f i XTemplateSerializer.obj
 0001:0008aba0       ??1?$BaseRefVectorOf@VXercesStep@xercesc_2_5@@@xercesc_2_5@@UAE@XZ 1208bba0 f i XTemplateSerializer.obj
 0001:0008abb0       ??_E?$RefVectorOf@VContentSpecNode@xercesc_2_5@@@xercesc_2_5@@UAEPAXI@Z 1208bbb0 f i XTemplateSerializer.obj
 0001:0008abb0       ??_G?$RefVectorOf@VContentSpecNode@xercesc_2_5@@@xercesc_2_5@@UAEPAXI@Z 1208bbb0 f i XTemplateSerializer.obj
 0001:0008abd0       ??1?$RefVectorOf@VContentSpecNode@xercesc_2_5@@@xercesc_2_5@@UAE@XZ 1208bbd0 f i XTemplateSerializer.obj
 0001:0008ac50       ??1?$BaseRefVectorOf@VContentSpecNode@xercesc_2_5@@@xercesc_2_5@@UAE@XZ 1208bc50 f i XTemplateSerializer.obj
 0001:0008ac60       ??_E?$RefVectorOf@VXMLNumber@xercesc_2_5@@@xercesc_2_5@@UAEPAXI@Z 1208bc60 f i XTemplateSerializer.obj
 0001:0008ac60       ??_G?$RefVectorOf@VXMLNumber@xercesc_2_5@@@xercesc_2_5@@UAEPAXI@Z 1208bc60 f i XTemplateSerializer.obj
 0001:0008ac80       ??1?$RefVectorOf@VXMLNumber@xercesc_2_5@@@xercesc_2_5@@UAE@XZ 1208bc80 f i XTemplateSerializer.obj
 0001:0008ad00       ??1?$BaseRefVectorOf@VXMLNumber@xercesc_2_5@@@xercesc_2_5@@UAE@XZ 1208bd00 f i XTemplateSerializer.obj
 0001:0008ad10       ??_E?$RefVectorOf@VXercesLocationPath@xercesc_2_5@@@xercesc_2_5@@UAEPAXI@Z 1208bd10 f i XTemplateSerializer.obj
 0001:0008ad10       ??_G?$RefVectorOf@VXercesLocationPath@xercesc_2_5@@@xercesc_2_5@@UAEPAXI@Z 1208bd10 f i XTemplateSerializer.obj
 0001:0008ad30       ??1?$RefVectorOf@VXercesLocationPath@xercesc_2_5@@@xercesc_2_5@@UAE@XZ 1208bd30 f i XTemplateSerializer.obj
 0001:0008adb0       ??1?$BaseRefVectorOf@VXercesLocationPath@xercesc_2_5@@@xercesc_2_5@@UAE@XZ 1208bdb0 f i XTemplateSerializer.obj
 0001:0008adc0       ??_E?$RefHashTableOfEnumerator@VXSAnnotation@xercesc_2_5@@@xercesc_2_5@@UAEPAXI@Z 1208bdc0 f i XTemplateSerializer.obj
 0001:0008adc0       ??_G?$RefHashTableOfEnumerator@VXSAnnotation@xercesc_2_5@@@xercesc_2_5@@UAEPAXI@Z 1208bdc0 f i XTemplateSerializer.obj
 0001:0008ade0       ??0?$RefHash3KeysTableBucketElem@VSchemaElementDecl@xercesc_2_5@@@xercesc_2_5@@QAE@PAXHHQAVSchemaElementDecl@1@PAU01@@Z 1208bde0 f i XTemplateSerializer.obj
 0001:0008ae10       ??1?$RefHashTableOf@VXercesGroupInfo@xercesc_2_5@@@xercesc_2_5@@QAE@XZ 1208be10 f i XTemplateSerializer.obj
 0001:0008ae10       ??1?$RefHashTableOf@VXMLAttDef@xercesc_2_5@@@xercesc_2_5@@QAE@XZ 1208be10 f i XTemplateSerializer.obj
 0001:0008ae10       ??1?$RefHashTableOf@VGrammar@xercesc_2_5@@@xercesc_2_5@@QAE@XZ 1208be10 f i XTemplateSerializer.obj
 0001:0008ae10       ??1?$RefHashTableOf@VKVStringPair@xercesc_2_5@@@xercesc_2_5@@QAE@XZ 1208be10 f i XTemplateSerializer.obj
 0001:0008ae10       ??1?$RefHashTableOf@VDTDAttDef@xercesc_2_5@@@xercesc_2_5@@QAE@XZ 1208be10 f i XTemplateSerializer.obj
 0001:0008ae10       ??1?$RefHashTableOf@VXercesAttGroupInfo@xercesc_2_5@@@xercesc_2_5@@QAE@XZ 1208be10 f i XTemplateSerializer.obj
 0001:0008ae10       ??1?$RefHashTableOf@VComplexTypeInfo@xercesc_2_5@@@xercesc_2_5@@QAE@XZ 1208be10 f i XTemplateSerializer.obj
 0001:0008ae10       ??1?$RefHashTableOf@VXMLRefInfo@xercesc_2_5@@@xercesc_2_5@@QAE@XZ 1208be10 f i XTemplateSerializer.obj
 0001:0008ae10       ??1?$RefHashTableOf@VDatatypeValidator@xercesc_2_5@@@xercesc_2_5@@QAE@XZ 1208be10 f i XTemplateSerializer.obj
 0001:0008ae90       ??1?$RefHash2KeysTableOf@V?$ValueVectorOf@PAVSchemaElementDecl@xercesc_2_5@@@xercesc_2_5@@@xercesc_2_5@@QAE@XZ 1208be90 f i XTemplateSerializer.obj
 0001:0008af40       ??0DocumentHandler@xercesc_2_5@@QAE@XZ 1208bf40 f i Dummy.obj
 0001:0008af50       ??1DocumentHandler@xercesc_2_5@@UAE@XZ 1208bf50 f i Dummy.obj
 0001:0008af60       ??_EDocumentHandler@xercesc_2_5@@UAEPAXI@Z 1208bf60 f i Dummy.obj
 0001:0008afc0       ??0DTDHandler@xercesc_2_5@@QAE@XZ 1208bfc0 f i Dummy.obj
 0001:0008afd0       ??1DTDHandler@xercesc_2_5@@UAE@XZ 1208bfd0 f i Dummy.obj
 0001:0008afe0       ??_EDTDHandler@xercesc_2_5@@UAEPAXI@Z 1208bfe0 f i Dummy.obj
 0001:0008b040       ??0EntityResolver@xercesc_2_5@@QAE@XZ 1208c040 f i Dummy.obj
 0001:0008b050       ??1EntityResolver@xercesc_2_5@@UAE@XZ 1208c050 f i Dummy.obj
 0001:0008b060       ??_EEntityResolver@xercesc_2_5@@UAEPAXI@Z 1208c060 f i Dummy.obj
 0001:0008b0c0       ??0ErrorHandler@xercesc_2_5@@QAE@XZ 1208c0c0 f i Dummy.obj
 0001:0008b0d0       ??1ErrorHandler@xercesc_2_5@@UAE@XZ 1208c0d0 f i Dummy.obj
 0001:0008b0e0       ??_EErrorHandler@xercesc_2_5@@UAEPAXI@Z 1208c0e0 f i Dummy.obj
 0001:0008b140       ??0HandlerBase@xercesc_2_5@@QAE@XZ 1208c140 f i Dummy.obj
 0001:0008b180       ??1HandlerBase@xercesc_2_5@@UAE@XZ 1208c180 f i Dummy.obj
 0001:0008b1e0       ??_EHandlerBase@xercesc_2_5@@UAEPAXI@Z 1208c1e0 f i Dummy.obj
 0001:0008b240       ?fatalError@DefaultHandler@xercesc_2_5@@UAEXABVSAXParseException@2@@Z 1208c240 f i Dummy.obj
 0001:0008b240       ?fatalError@HandlerBase@xercesc_2_5@@UAEXABVSAXParseException@2@@Z 1208c240 f i Dummy.obj
 0001:0008b260       ??_EHandlerBase@xercesc_2_5@@W3AEPAXI@Z 1208c260 f i Dummy.obj
 0001:0008b270       ??_EHandlerBase@xercesc_2_5@@W7AEPAXI@Z 1208c270 f i Dummy.obj
 0001:0008b280       ??_EHandlerBase@xercesc_2_5@@WM@AEPAXI@Z 1208c280 f i Dummy.obj
 0001:0008b290       ??1InputSource@xercesc_2_5@@UAE@XZ 1208c290 f   InputSource.obj
 0001:0008b2c0       ??_EInputSource@xercesc_2_5@@UAEPAXI@Z 1208c2c0 f i InputSource.obj
 0001:0008b340       ?setEncoding@InputSource@xercesc_2_5@@UAEXQBG@Z 1208c340 f   InputSource.obj
 0001:0008b3b0       ?setPublicId@InputSource@xercesc_2_5@@UAEXQBG@Z 1208c3b0 f   InputSource.obj
 0001:0008b420       ?setSystemId@InputSource@xercesc_2_5@@UAEXQBG@Z 1208c420 f   InputSource.obj
 0001:0008b490       ??0InputSource@xercesc_2_5@@IAE@QAVMemoryManager@1@@Z 1208c490 f   InputSource.obj
 0001:0008b4c0       ??0InputSource@xercesc_2_5@@IAE@QBGQAVMemoryManager@1@@Z 1208c4c0 f   InputSource.obj
 0001:0008b540       ??0InputSource@xercesc_2_5@@IAE@QBG0QAVMemoryManager@1@@Z 1208c540 f   InputSource.obj
 0001:0008b610       ??0InputSource@xercesc_2_5@@IAE@QBDQAVMemoryManager@1@@Z 1208c610 f   InputSource.obj
 0001:0008b650       ??0InputSource@xercesc_2_5@@IAE@QBD0QAVMemoryManager@1@@Z 1208c650 f   InputSource.obj
 0001:0008b6a0       ??0SAXNotSupportedException@xercesc_2_5@@QAE@QAVMemoryManager@1@@Z 1208c6a0 f   SAXException.obj
 0001:0008b720       ??0SAXNotSupportedException@xercesc_2_5@@QAE@QBGQAVMemoryManager@1@@Z 1208c720 f   SAXException.obj
 0001:0008b790       ??0SAXNotSupportedException@xercesc_2_5@@QAE@QBDQAVMemoryManager@1@@Z 1208c790 f   SAXException.obj
 0001:0008b7c0       ??0SAXNotSupportedException@xercesc_2_5@@QAE@ABVSAXException@1@@Z 1208c7c0 f   SAXException.obj
 0001:0008b830       ??0SAXNotRecognizedException@xercesc_2_5@@QAE@QAVMemoryManager@1@@Z 1208c830 f   SAXException.obj
 0001:0008b8b0       ??0SAXNotRecognizedException@xercesc_2_5@@QAE@QBGQAVMemoryManager@1@@Z 1208c8b0 f   SAXException.obj
 0001:0008b920       ??0SAXNotRecognizedException@xercesc_2_5@@QAE@QBDQAVMemoryManager@1@@Z 1208c920 f   SAXException.obj
 0001:0008b950       ??0SAXNotRecognizedException@xercesc_2_5@@QAE@ABVSAXException@1@@Z 1208c950 f   SAXException.obj
 0001:0008b9c0       ??0SAXParseException@xercesc_2_5@@QAE@QBGABVLocator@1@QAVMemoryManager@1@@Z 1208c9c0 f   SAXParseException.obj
 0001:0008bb30       ??_ESAXParseException@xercesc_2_5@@UAEPAXI@Z 1208cb30 f i SAXParseException.obj
 0001:0008bb90       ??0SAXParseException@xercesc_2_5@@QAE@QBG00JJQAVMemoryManager@1@@Z 1208cb90 f   SAXParseException.obj
 0001:0008bce0       ??0SAXParseException@xercesc_2_5@@QAE@ABV01@@Z 1208cce0 f   SAXParseException.obj
 0001:0008be30       ??1SAXParseException@xercesc_2_5@@UAE@XZ 1208ce30 f   SAXParseException.obj
 0001:0008bea0       ??4SAXParseException@xercesc_2_5@@QAEAAV01@ABV01@@Z 1208cea0 f   SAXParseException.obj
 0001:0008bfe0       ??0DOMImplementationLS@xercesc_2_5@@IAE@XZ 1208cfe0 f i AbstractDOMParser.obj
 0001:0008bff0       ??_EDOMImplementationLS@xercesc_2_5@@UAEPAXI@Z 1208cff0 f i AbstractDOMParser.obj
 0001:0008c050       ??0DOMImplementation@xercesc_2_5@@IAE@XZ 1208d050 f i AbstractDOMParser.obj
 0001:0008c060       ??1DOMImplementation@xercesc_2_5@@UAE@XZ 1208d060 f i AbstractDOMParser.obj
 0001:0008c060       ??1DOMImplementationLS@xercesc_2_5@@UAE@XZ 1208d060 f i AbstractDOMParser.obj
 0001:0008c070       ??_EDOMImplementation@xercesc_2_5@@UAEPAXI@Z 1208d070 f i AbstractDOMParser.obj
 0001:0008c0d0       ??0DOMNodeList@xercesc_2_5@@IAE@XZ 1208d0d0 f i AbstractDOMParser.obj
 0001:0008c0e0       ??1DOMNodeList@xercesc_2_5@@UAE@XZ 1208d0e0 f i AbstractDOMParser.obj
 0001:0008c0f0       ??_EDOMNodeList@xercesc_2_5@@UAEPAXI@Z 1208d0f0 f i AbstractDOMParser.obj
 0001:0008c150       ??1DOMParentNode@xercesc_2_5@@QAE@XZ 1208d150 f i AbstractDOMParser.obj
 0001:0008c160       ??0DOMUserDataHandler@xercesc_2_5@@IAE@XZ 1208d160 f i AbstractDOMParser.obj
 0001:0008c170       ??1DOMUserDataHandler@xercesc_2_5@@UAE@XZ 1208d170 f i AbstractDOMParser.obj
 0001:0008c180       ??_EDOMUserDataHandler@xercesc_2_5@@UAEPAXI@Z 1208d180 f i AbstractDOMParser.obj
 0001:0008c1e0       ?isReadOnly@DOMNodeImpl@xercesc_2_5@@QBE_NXZ 1208d1e0 f i AbstractDOMParser.obj
 0001:0008c200       ?isReadOnly@DOMNodeImpl@xercesc_2_5@@QAEX_N@Z 1208d200 f i AbstractDOMParser.obj
 0001:0008c240       ?needsSyncData@DOMNodeImpl@xercesc_2_5@@QBE_NXZ 1208d240 f i AbstractDOMParser.obj
 0001:0008c260       ?needsSyncData@DOMNodeImpl@xercesc_2_5@@QAEX_N@Z 1208d260 f i AbstractDOMParser.obj
 0001:0008c2a0       ?needsSyncChildren@DOMNodeImpl@xercesc_2_5@@QBE_NXZ 1208d2a0 f i AbstractDOMParser.obj
 0001:0008c2c0       ?needsSyncChildren@DOMNodeImpl@xercesc_2_5@@QAEX_N@Z 1208d2c0 f i AbstractDOMParser.obj
 0001:0008c300       ?isOwned@DOMNodeImpl@xercesc_2_5@@QBE_NXZ 1208d300 f i AbstractDOMParser.obj
 0001:0008c320       ?isOwned@DOMNodeImpl@xercesc_2_5@@QAEX_N@Z 1208d320 f i AbstractDOMParser.obj
 0001:0008c360       ?isFirstChild@DOMNodeImpl@xercesc_2_5@@QBE_NXZ 1208d360 f i AbstractDOMParser.obj
 0001:0008c380       ?isFirstChild@DOMNodeImpl@xercesc_2_5@@QAEX_N@Z 1208d380 f i AbstractDOMParser.obj
 0001:0008c3c0       ?isSpecified@DOMNodeImpl@xercesc_2_5@@QBE_NXZ 1208d3c0 f i AbstractDOMParser.obj
 0001:0008c3e0       ?isSpecified@DOMNodeImpl@xercesc_2_5@@QAEX_N@Z 1208d3e0 f i AbstractDOMParser.obj
 0001:0008c420       ?ignorableWhitespace@DOMNodeImpl@xercesc_2_5@@QBE_NXZ 1208d420 f i AbstractDOMParser.obj
 0001:0008c440       ?ignorableWhitespace@DOMNodeImpl@xercesc_2_5@@QAEX_N@Z 1208d440 f i AbstractDOMParser.obj
 0001:0008c480       ?setValue@DOMNodeImpl@xercesc_2_5@@QBE_NXZ 1208d480 f i AbstractDOMParser.obj
 0001:0008c4a0       ?setValue@DOMNodeImpl@xercesc_2_5@@QAEX_N@Z 1208d4a0 f i AbstractDOMParser.obj
 0001:0008c4e0       ?isIdAttr@DOMNodeImpl@xercesc_2_5@@QBE_NXZ 1208d4e0 f i AbstractDOMParser.obj
 0001:0008c500       ?isIdAttr@DOMNodeImpl@xercesc_2_5@@QAEX_N@Z 1208d500 f i AbstractDOMParser.obj
 0001:0008c540       ?hasUserData@DOMNodeImpl@xercesc_2_5@@QBE_NXZ 1208d540 f i AbstractDOMParser.obj
 0001:0008c560       ?hasUserData@DOMNodeImpl@xercesc_2_5@@QAEX_N@Z 1208d560 f i AbstractDOMParser.obj
 0001:0008c5a0       ?isLeafNode@DOMNodeImpl@xercesc_2_5@@QBE_NXZ 1208d5a0 f i AbstractDOMParser.obj
 0001:0008c5c0       ?setIsLeafNode@DOMNodeImpl@xercesc_2_5@@QAEX_N@Z 1208d5c0 f i AbstractDOMParser.obj
 0001:0008c600       ?isChildNode@DOMNodeImpl@xercesc_2_5@@QBE_NXZ 1208d600 f i AbstractDOMParser.obj
 0001:0008c620       ?setIsChildNode@DOMNodeImpl@xercesc_2_5@@QAEX_N@Z 1208d620 f i AbstractDOMParser.obj
 0001:0008c660       ?isToBeReleased@DOMNodeImpl@xercesc_2_5@@QBE_NXZ 1208d660 f i AbstractDOMParser.obj
 0001:0008c680       ?isToBeReleased@DOMNodeImpl@xercesc_2_5@@QAEX_N@Z 1208d680 f i AbstractDOMParser.obj
 0001:0008c6c0       ?setErrorChecking@DOMDocumentImpl@xercesc_2_5@@QAEX_N@Z 1208d6c0 f i AbstractDOMParser.obj
 0001:0008c6d0       ?getErrorChecking@DOMDocumentImpl@xercesc_2_5@@QBE_NXZ 1208d6d0 f i AbstractDOMParser.obj
 0001:0008c6e0       ??_FDOMDocumentImpl@xercesc_2_5@@QAEXXZ 1208d6e0 f i AbstractDOMParser.obj
 0001:0008c6f0       ?getMemoryManager@DOMDocumentImpl@xercesc_2_5@@QBEPAVMemoryManager@2@XZ 1208d6f0 f i AbstractDOMParser.obj
 0001:0008c700       ??0DOMTypeInfo@xercesc_2_5@@IAE@XZ 1208d700 f i AbstractDOMParser.obj
 0001:0008c710       ??1DOMTypeInfo@xercesc_2_5@@UAE@XZ 1208d710 f i AbstractDOMParser.obj
 0001:0008c710       ??1DOMTypeInfoImpl@xercesc_2_5@@UAE@XZ 1208d710 f i AbstractDOMParser.obj
 0001:0008c720       ??_EDOMTypeInfo@xercesc_2_5@@UAEPAXI@Z 1208d720 f i AbstractDOMParser.obj
 0001:0008c780       ??_ODOMAttrImpl@xercesc_2_5@@QAEXABV01@@Z 1208d780 f i AbstractDOMParser.obj
 0001:0008c790       ?removeAttrFromIDNodeMap@DOMAttrImpl@xercesc_2_5@@UAEXXZ 1208d790 f i AbstractDOMParser.obj
 0001:0008c7c0       ?addAttrToIDNodeMap@DOMAttrImpl@xercesc_2_5@@UAEXXZ 1208d7c0 f i AbstractDOMParser.obj
 0001:0008c850       ??0DOMCharacterData@xercesc_2_5@@IAE@XZ 1208d850 f i AbstractDOMParser.obj
 0001:0008c860       ??0DOMText@xercesc_2_5@@IAE@XZ 1208d860 f i AbstractDOMParser.obj
 0001:0008c870       ??0DOMCDATASection@xercesc_2_5@@IAE@XZ 1208d870 f i AbstractDOMParser.obj
 0001:0008c880       ??0DOMComment@xercesc_2_5@@IAE@XZ 1208d880 f i AbstractDOMParser.obj
 0001:0008c890       ??_ODOMTextImpl@xercesc_2_5@@QAEXABV01@@Z 1208d890 f i AbstractDOMParser.obj
 0001:0008c8a0       ??0DOMNamedNodeMap@xercesc_2_5@@IAE@XZ 1208d8a0 f i AbstractDOMParser.obj
 0001:0008c8b0       ??1DOMNamedNodeMap@xercesc_2_5@@UAE@XZ 1208d8b0 f i AbstractDOMParser.obj
 0001:0008c8c0       ??_EDOMNamedNodeMap@xercesc_2_5@@UAEPAXI@Z 1208d8c0 f i AbstractDOMParser.obj
 0001:0008c920       ?hasDefaults@DOMAttrMapImpl@xercesc_2_5@@UAE_NXZ 1208d920 f i AbstractDOMParser.obj
 0001:0008c920       ?getDoValidation@XMLScanner@xercesc_2_5@@QBE_NXZ 1208d920 f i AbstractDOMParser.obj
 0001:0008c930       ?hasDefaults@DOMAttrMapImpl@xercesc_2_5@@UAEX_N@Z 1208d930 f i AbstractDOMParser.obj
 0001:0008c940       ??_ODOMElementImpl@xercesc_2_5@@QAEXABV01@@Z 1208d940 f i AbstractDOMParser.obj
 0001:0008c950       ??0DOMEntity@xercesc_2_5@@IAE@XZ 1208d950 f i AbstractDOMParser.obj
 0001:0008c960       ??_EDOMCharacterData@xercesc_2_5@@UAEPAXI@Z 1208d960 f i AbstractDOMParser.obj
 0001:0008c960       ??_EDOMElement@xercesc_2_5@@UAEPAXI@Z 1208d960 f i AbstractDOMParser.obj
 0001:0008c960       ??_EDOMNotation@xercesc_2_5@@UAEPAXI@Z 1208d960 f i AbstractDOMParser.obj
 0001:0008c960       ??_EDOMText@xercesc_2_5@@UAEPAXI@Z 1208d960 f i AbstractDOMParser.obj
 0001:0008c960       ??_EDOMProcessingInstruction@xercesc_2_5@@UAEPAXI@Z 1208d960 f i AbstractDOMParser.obj
 0001:0008c960       ??_EDOMEntityReference@xercesc_2_5@@UAEPAXI@Z 1208d960 f i AbstractDOMParser.obj
 0001:0008c960       ??_EDOMComment@xercesc_2_5@@UAEPAXI@Z 1208d960 f i AbstractDOMParser.obj
 0001:0008c960       ??_EDOMEntity@xercesc_2_5@@UAEPAXI@Z 1208d960 f i AbstractDOMParser.obj
 0001:0008c960       ??_EDOMXPathNamespace@xercesc_2_5@@UAEPAXI@Z 1208d960 f i AbstractDOMParser.obj
 0001:0008c960       ??_EDOMCDATASection@xercesc_2_5@@UAEPAXI@Z 1208d960 f i AbstractDOMParser.obj
 0001:0008c960       ??_EDOMAttr@xercesc_2_5@@UAEPAXI@Z 1208d960 f i AbstractDOMParser.obj
 0001:0008c960       ??_EDOMDocumentType@xercesc_2_5@@UAEPAXI@Z 1208d960 f i AbstractDOMParser.obj
 0001:0008c960       ??_EDOMDocumentFragment@xercesc_2_5@@UAEPAXI@Z 1208d960 f i AbstractDOMParser.obj
 0001:0008c9c0       ??_ODOMEntityImpl@xercesc_2_5@@QAEXABV01@@Z 1208d9c0 f i AbstractDOMParser.obj
 0001:0008c9d0       ??0DOMEntityReference@xercesc_2_5@@IAE@XZ 1208d9d0 f i AbstractDOMParser.obj
 0001:0008c9e0       ??_ODOMEntityReferenceImpl@xercesc_2_5@@QAEXABV01@@Z 1208d9e0 f i AbstractDOMParser.obj
 0001:0008c9f0       ??0DOMNotation@xercesc_2_5@@IAE@XZ 1208d9f0 f i AbstractDOMParser.obj
 0001:0008ca00       ??1DOMProcessingInstruction@xercesc_2_5@@UAE@XZ 1208da00 f i AbstractDOMParser.obj
 0001:0008ca00       ??1DOMComment@xercesc_2_5@@UAE@XZ 1208da00 f i AbstractDOMParser.obj
 0001:0008ca00       ??1DOMEntityReference@xercesc_2_5@@UAE@XZ 1208da00 f i AbstractDOMParser.obj
 0001:0008ca00       ??1DOMDocumentType@xercesc_2_5@@UAE@XZ 1208da00 f i AbstractDOMParser.obj
 0001:0008ca00       ??1DOMNode@xercesc_2_5@@UAE@XZ 1208da00 f i AbstractDOMParser.obj
 0001:0008ca00       ??1DOMEntity@xercesc_2_5@@UAE@XZ 1208da00 f i AbstractDOMParser.obj
 0001:0008ca00       ??1DOMElement@xercesc_2_5@@UAE@XZ 1208da00 f i AbstractDOMParser.obj
 0001:0008ca00       ??1DOMText@xercesc_2_5@@UAE@XZ 1208da00 f i AbstractDOMParser.obj
 0001:0008ca00       ??1DOMAttr@xercesc_2_5@@UAE@XZ 1208da00 f i AbstractDOMParser.obj
 0001:0008ca00       ??1DOMCDATASection@xercesc_2_5@@UAE@XZ 1208da00 f i AbstractDOMParser.obj
 0001:0008ca00       ??1DOMNotation@xercesc_2_5@@UAE@XZ 1208da00 f i AbstractDOMParser.obj
 0001:0008ca00       ??1DOMCharacterData@xercesc_2_5@@UAE@XZ 1208da00 f i AbstractDOMParser.obj
 0001:0008ca00       ??1DOMDocumentFragment@xercesc_2_5@@UAE@XZ 1208da00 f i AbstractDOMParser.obj
 0001:0008ca00       ??1DOMXPathNamespace@xercesc_2_5@@UAE@XZ 1208da00 f i AbstractDOMParser.obj
 0001:0008ca10       ??_ODOMNotationImpl@xercesc_2_5@@QAEXABV01@@Z 1208da10 f i AbstractDOMParser.obj
 0001:0008ca20       ??0DOMProcessingInstruction@xercesc_2_5@@IAE@XZ 1208da20 f i AbstractDOMParser.obj
 0001:0008ca30       ??_ODOMProcessingInstructionImpl@xercesc_2_5@@QAEXABV01@@Z 1208da30 f i AbstractDOMParser.obj
 0001:0008ca40       ??0AbstractDOMParser@xercesc_2_5@@IAE@QAVXMLValidator@1@QAVMemoryManager@1@QAVXMLGrammarPool@1@@Z 1208da40 f   AbstractDOMParser.obj
 0001:0008cb50       ??_EAbstractDOMParser@xercesc_2_5@@UAEPAXI@Z 1208db50 f i AbstractDOMParser.obj
 0001:0008cbb0       ??1AbstractDOMParser@xercesc_2_5@@UAE@XZ 1208dbb0 f   AbstractDOMParser.obj
 0001:0008cc50       ?initialize@AbstractDOMParser@xercesc_2_5@@AAEXXZ 1208dc50 f   AbstractDOMParser.obj
 0001:0008cd80       ?cleanUp@AbstractDOMParser@xercesc_2_5@@AAEXXZ 1208dd80 f   AbstractDOMParser.obj
 0001:0008ce10       ?reset@AbstractDOMParser@xercesc_2_5@@QAEXXZ 1208de10 f   AbstractDOMParser.obj
 0001:0008cf90       ?resetPool@AbstractDOMParser@xercesc_2_5@@IAEXXZ 1208df90 f   AbstractDOMParser.obj
 0001:0008d000       ?isDocumentAdopted@AbstractDOMParser@xercesc_2_5@@IBE_NXZ 1208e000 f   AbstractDOMParser.obj
 0001:0008d010       ?adoptDocument@AbstractDOMParser@xercesc_2_5@@QAEPAVDOMDocument@2@XZ 1208e010 f   AbstractDOMParser.obj
 0001:0008d020       ?getValidator@AbstractDOMParser@xercesc_2_5@@QBEABVXMLValidator@2@XZ 1208e020 f   AbstractDOMParser.obj
 0001:0008d030       ?getDoNamespaces@AbstractDOMParser@xercesc_2_5@@QBE_NXZ 1208e030 f   AbstractDOMParser.obj
 0001:0008d040       ?getExitOnFirstFatalError@AbstractDOMParser@xercesc_2_5@@QBE_NXZ 1208e040 f   AbstractDOMParser.obj
 0001:0008d050       ?getValidationConstraintFatal@AbstractDOMParser@xercesc_2_5@@QBE_NXZ 1208e050 f   AbstractDOMParser.obj
 0001:0008d060       ?getValidationScheme@AbstractDOMParser@xercesc_2_5@@QBE?AW4ValSchemes@12@XZ 1208e060 f   AbstractDOMParser.obj
 0001:0008d080       ?getDoSchema@AbstractDOMParser@xercesc_2_5@@QBE_NXZ 1208e080 f   AbstractDOMParser.obj
 0001:0008d090       ?getValidationSchemaFullChecking@AbstractDOMParser@xercesc_2_5@@QBE_NXZ 1208e090 f   AbstractDOMParser.obj
 0001:0008d0a0       ?getErrorCount@AbstractDOMParser@xercesc_2_5@@QBEHXZ 1208e0a0 f   AbstractDOMParser.obj
 0001:0008d0b0       ?getExternalSchemaLocation@AbstractDOMParser@xercesc_2_5@@QBEPAGXZ 1208e0b0 f   AbstractDOMParser.obj
 0001:0008d0c0       ?getExternalNoNamespaceSchemaLocation@AbstractDOMParser@xercesc_2_5@@QBEPAGXZ 1208e0c0 f   AbstractDOMParser.obj
 0001:0008d0d0       ?getSecurityManager@AbstractDOMParser@xercesc_2_5@@QBEPAVSecurityManager@2@XZ 1208e0d0 f   AbstractDOMParser.obj
 0001:0008d0e0       ?getLoadExternalDTD@AbstractDOMParser@xercesc_2_5@@QBE_NXZ 1208e0e0 f   AbstractDOMParser.obj
 0001:0008d0f0       ?getCalculateSrcOfs@AbstractDOMParser@xercesc_2_5@@QBE_NXZ 1208e0f0 f   AbstractDOMParser.obj
 0001:0008d100       ?getStandardUriConformant@AbstractDOMParser@xercesc_2_5@@QBE_NXZ 1208e100 f   AbstractDOMParser.obj
 0001:0008d110       ?setPSVIHandler@AbstractDOMParser@xercesc_2_5@@UAEXQAVPSVIHandler@2@@Z 1208e110 f   AbstractDOMParser.obj
 0001:0008d140       ?setDoNamespaces@AbstractDOMParser@xercesc_2_5@@QAEX_N@Z 1208e140 f   AbstractDOMParser.obj
 0001:0008d150       ?setExitOnFirstFatalError@AbstractDOMParser@xercesc_2_5@@QAEX_N@Z 1208e150 f   AbstractDOMParser.obj
 0001:0008d160       ?setValidationConstraintFatal@AbstractDOMParser@xercesc_2_5@@QAEX_N@Z 1208e160 f   AbstractDOMParser.obj
 0001:0008d170       ?setValidationScheme@AbstractDOMParser@xercesc_2_5@@QAEXW4ValSchemes@12@@Z 1208e170 f   AbstractDOMParser.obj
 0001:0008d1c0       ?setDoSchema@AbstractDOMParser@xercesc_2_5@@QAEX_N@Z 1208e1c0 f   AbstractDOMParser.obj
 0001:0008d1d0       ?setValidationSchemaFullChecking@AbstractDOMParser@xercesc_2_5@@QAEX_N@Z 1208e1d0 f   AbstractDOMParser.obj
 0001:0008d1e0       ?setExternalSchemaLocation@AbstractDOMParser@xercesc_2_5@@QAEXQBG@Z 1208e1e0 f   AbstractDOMParser.obj
 0001:0008d260       ?setExternalNoNamespaceSchemaLocation@AbstractDOMParser@xercesc_2_5@@QAEXQBG@Z 1208e260 f   AbstractDOMParser.obj
 0001:0008d2e0       ?setExternalSchemaLocation@AbstractDOMParser@xercesc_2_5@@QAEXQBD@Z 1208e2e0 f   AbstractDOMParser.obj
 0001:0008d320       ?setExternalNoNamespaceSchemaLocation@AbstractDOMParser@xercesc_2_5@@QAEXQBD@Z 1208e320 f   AbstractDOMParser.obj
 0001:0008d360       ?setSecurityManager@AbstractDOMParser@xercesc_2_5@@QAEXQAVSecurityManager@2@@Z 1208e360 f   AbstractDOMParser.obj
 0001:0008d3c0       ?setLoadExternalDTD@AbstractDOMParser@xercesc_2_5@@QAEX_N@Z 1208e3c0 f   AbstractDOMParser.obj
 0001:0008d3d0       ?setCalculateSrcOfs@AbstractDOMParser@xercesc_2_5@@QAEX_N@Z 1208e3d0 f   AbstractDOMParser.obj
 0001:0008d3e0       ?setStandardUriConformant@AbstractDOMParser@xercesc_2_5@@QAEX_N@Z 1208e3e0 f   AbstractDOMParser.obj
 0001:0008d400       ?useScanner@AbstractDOMParser@xercesc_2_5@@QAEXQBG@Z 1208e400 f   AbstractDOMParser.obj
 0001:0008d450       ?parse@AbstractDOMParser@xercesc_2_5@@QAEXABVInputSource@2@@Z 1208e450 f   AbstractDOMParser.obj
 0001:0008d510       ?parse@AbstractDOMParser@xercesc_2_5@@QAEXQBG@Z 1208e510 f   AbstractDOMParser.obj
 0001:0008d5d0       ?parse@AbstractDOMParser@xercesc_2_5@@QAEXQBD@Z 1208e5d0 f   AbstractDOMParser.obj
 0001:0008d690       ?parseFirst@AbstractDOMParser@xercesc_2_5@@QAE_NQBGAAVXMLPScanToken@2@@Z 1208e690 f   AbstractDOMParser.obj
 0001:0008d6e0       ?parseFirst@AbstractDOMParser@xercesc_2_5@@QAE_NQBDAAVXMLPScanToken@2@@Z 1208e6e0 f   AbstractDOMParser.obj
 0001:0008d730       ?parseFirst@AbstractDOMParser@xercesc_2_5@@QAE_NABVInputSource@2@AAVXMLPScanToken@2@@Z 1208e730 f   AbstractDOMParser.obj
 0001:0008d780       ?parseNext@AbstractDOMParser@xercesc_2_5@@QAE_NAAVXMLPScanToken@2@@Z 1208e780 f   AbstractDOMParser.obj
 0001:0008d790       ?parseReset@AbstractDOMParser@xercesc_2_5@@QAEXAAVXMLPScanToken@2@@Z 1208e790 f   AbstractDOMParser.obj
 0001:0008d7b0       ?docCharacters@AbstractDOMParser@xercesc_2_5@@UAEXQBGI_N@Z 1208e7b0 f   AbstractDOMParser.obj
 0001:0008d840       ?docComment@AbstractDOMParser@xercesc_2_5@@UAEXQBG@Z 1208e840 f   AbstractDOMParser.obj
 0001:0008d870       ?docPI@AbstractDOMParser@xercesc_2_5@@UAEXQBG0@Z 1208e870 f   AbstractDOMParser.obj
 0001:0008d8a0       ?endEntityReference@AbstractDOMParser@xercesc_2_5@@UAEXABVXMLEntityDecl@2@@Z 1208e8a0 f   AbstractDOMParser.obj
 0001:0008dbb0       ?endElement@AbstractDOMParser@xercesc_2_5@@UAEXABVXMLElementDecl@2@I_NQBG@Z 1208ebb0 f   AbstractDOMParser.obj
 0001:0008dc90       ?elementTypeInfo@AbstractDOMParser@xercesc_2_5@@UAEXQBG0@Z 1208ec90 f   AbstractDOMParser.obj
 0001:0008dcb0       ?ignorableWhitespace@AbstractDOMParser@xercesc_2_5@@UAEXQBGI_N@Z 1208ecb0 f   AbstractDOMParser.obj
 0001:0008dd40       ?resetDocument@AbstractDOMParser@xercesc_2_5@@UAEXXZ 1208ed40 f   AbstractDOMParser.obj
 0001:0008dd50       ?startDocument@AbstractDOMParser@xercesc_2_5@@UAEXXZ 1208ed50 f   AbstractDOMParser.obj
 0001:0008ddd0       ?endDocument@AbstractDOMParser@xercesc_2_5@@UAEXXZ 1208edd0 f   AbstractDOMParser.obj
 0001:0008de00       ?startElement@AbstractDOMParser@xercesc_2_5@@UAEXABVXMLElementDecl@2@IQBGABV?$RefVectorOf@VXMLAttr@xercesc_2_5@@@2@I_N3@Z 1208ee00 f   AbstractDOMParser.obj
 0001:0008e5c0       ?startEntityReference@AbstractDOMParser@xercesc_2_5@@UAEXABVXMLEntityDecl@2@@Z 1208f5c0 f   AbstractDOMParser.obj
 0001:0008e6e0       ?XMLDecl@AbstractDOMParser@xercesc_2_5@@UAEXQBG000@Z 1208f6e0 f   AbstractDOMParser.obj
 0001:0008e780       ?createElementNSNode@AbstractDOMParser@xercesc_2_5@@MAEPAVDOMElement@2@PBG0@Z 1208f780 f   AbstractDOMParser.obj
 0001:0008e7a0       ?getDoValidation@AbstractDOMParser@xercesc_2_5@@QBE_NXZ 1208f7a0 f   AbstractDOMParser.obj
 0001:0008e7b0       ?setDoValidation@AbstractDOMParser@xercesc_2_5@@QAEX_N@Z 1208f7b0 f   AbstractDOMParser.obj
 0001:0008e7e0       ?attDef@AbstractDOMParser@xercesc_2_5@@UAEXABVDTDElementDecl@2@ABVDTDAttDef@2@_N@Z 1208f7e0 f   AbstractDOMParser.obj
 0001:0008ec80       ?doctypeComment@AbstractDOMParser@xercesc_2_5@@UAEXQBG@Z 1208fc80 f   AbstractDOMParser.obj
 0001:0008ed70       ?doctypeDecl@AbstractDOMParser@xercesc_2_5@@UAEXABVDTDElementDecl@2@QBG1_N2@Z 1208fd70 f   AbstractDOMParser.obj
 0001:0008edb0       ?doctypePI@AbstractDOMParser@xercesc_2_5@@UAEXQBG0@Z 1208fdb0 f   AbstractDOMParser.obj
 0001:0008ee90       ?doctypeWhitespace@AbstractDOMParser@xercesc_2_5@@UAEXQBGI@Z 1208fe90 f   AbstractDOMParser.obj
 0001:0008eec0       ?elementDecl@AbstractDOMParser@xercesc_2_5@@UAEXABVDTDElementDecl@2@_N@Z 1208fec0 f   AbstractDOMParser.obj
 0001:0008efd0       ?endAttList@AbstractDOMParser@xercesc_2_5@@UAEXABVDTDElementDecl@2@@Z 1208ffd0 f   AbstractDOMParser.obj
 0001:0008f2e0       ?endIntSubset@AbstractDOMParser@xercesc_2_5@@UAEXXZ 120902e0 f   AbstractDOMParser.obj
 0001:0008f310       ?entityDecl@AbstractDOMParser@xercesc_2_5@@UAEXABVDTDEntityDecl@2@_N1@Z 12090310 f   AbstractDOMParser.obj
 0001:0008f6b0       ?resetDocType@AbstractDOMParser@xercesc_2_5@@UAEXXZ 120906b0 f   AbstractDOMParser.obj
 0001:0008f6c0       ?notationDecl@AbstractDOMParser@xercesc_2_5@@UAEXABVXMLNotationDecl@2@_N@Z 120906c0 f   AbstractDOMParser.obj
 0001:0008f960       ?startAttList@AbstractDOMParser@xercesc_2_5@@UAEXABVDTDElementDecl@2@@Z 12090960 f   AbstractDOMParser.obj
 0001:0008fa10       ?startIntSubset@AbstractDOMParser@xercesc_2_5@@UAEXXZ 12090a10 f   AbstractDOMParser.obj
 0001:0008fa20       ?TextDecl@AbstractDOMParser@xercesc_2_5@@UAEXQBG0@Z 12090a20 f   AbstractDOMParser.obj
 0001:0008fa50       ??_E?$RefVectorOf@VDOMDocumentImpl@xercesc_2_5@@@xercesc_2_5@@UAEPAXI@Z 12090a50 f i AbstractDOMParser.obj
 0001:0008fa50       ??_G?$RefVectorOf@VDOMDocumentImpl@xercesc_2_5@@@xercesc_2_5@@UAEPAXI@Z 12090a50 f i AbstractDOMParser.obj
 0001:0008fa70       ??1?$RefVectorOf@VDOMDocumentImpl@xercesc_2_5@@@xercesc_2_5@@UAE@XZ 12090a70 f i AbstractDOMParser.obj
 0001:0008faf0       ??1?$BaseRefVectorOf@VDOMDocumentImpl@xercesc_2_5@@@xercesc_2_5@@UAE@XZ 12090af0 f i AbstractDOMParser.obj
 0001:0008fb00       ??_EAbstractDOMParser@xercesc_2_5@@W3AEPAXI@Z 12090b00 f i AbstractDOMParser.obj
 0001:0008fb10       ??_EAbstractDOMParser@xercesc_2_5@@W7AEPAXI@Z 12090b10 f i AbstractDOMParser.obj
 0001:0008fb20       ??_EAbstractDOMParser@xercesc_2_5@@WM@AEPAXI@Z 12090b20 f i AbstractDOMParser.obj
